---
triple:          'arm64-apple-darwin'
binary-path:     '/Users/markenstrom/Documents/BM5BasedModel/c/vsCell3/vsCell'
relocations:
  - { offsetInCU: 0x3F, offset: 0x3F, size: 0x8, addend: 0x0, symName: _mRNAExpressionList, symObjAddr: 0x172280, symBinAddr: 0x100040020, symSize: 0x0 }
  - { offsetInCU: 0xFC3E, offset: 0xFC3E, size: 0x8, addend: 0x0, symName: __ZNSt3__1L19piecewise_constructE, symObjAddr: 0x281BF, symBinAddr: 0x10003A1C0, symSize: 0x0 }
  - { offsetInCU: 0x10812, offset: 0x10812, size: 0x8, addend: 0x0, symName: __ZNSt3__17advanceB8ue170006IP4MRNAllvEEvRT_T0_, symObjAddr: 0x9378, symBinAddr: 0x10000D2A0, symSize: 0x38 }
  - { offsetInCU: 0x10C9A, offset: 0x10C9A, size: 0x8, addend: 0x0, symName: __ZNSt3__124__put_character_sequenceB8ue170006IcNS_11char_traitsIcEEEERNS_13basic_ostreamIT_T0_EES7_PKS4_m, symObjAddr: 0xB8D8, symBinAddr: 0x10000F800, symSize: 0x1EC }
  - { offsetInCU: 0x13340, offset: 0x13340, size: 0x8, addend: 0x0, symName: __ZNSt3__17advanceB8ue170006INS_21__tree_const_iteratorINS_12__value_typeINS_12basic_stringIcNS_11char_traitsIcEENS_9allocatorIcEEEEfEEPNS_11__tree_nodeIS9_PvEElEEllvEEvRT_T0_, symObjAddr: 0xF170, symBinAddr: 0x100013098, symSize: 0x38 }
  - { offsetInCU: 0x193BE, offset: 0x193BE, size: 0x8, addend: 0x0, symName: __ZNSt3__16copy_nB8ue170006IPKcmPcEENS_9enable_ifIXsr37__has_random_access_iterator_categoryIT_EE5valueET1_E4typeES5_T0_S6_, symObjAddr: 0x17318, symBinAddr: 0x10001B240, symSize: 0x44 }
  - { offsetInCU: 0x221FA, offset: 0x221FA, size: 0x8, addend: 0x0, symName: '__ZNSt3__111__introsortINS_17_ClassicAlgPolicyERZ4mainE3$_0PNS_4pairIiiEELb0EEEvT1_S7_T0_NS_15iterator_traitsIS7_E15difference_typeEb', symObjAddr: 0x24164, symBinAddr: 0x10002808C, symSize: 0x434 }
  - { offsetInCU: 0x22325, offset: 0x22325, size: 0x8, addend: 0x0, symName: '__ZNSt3__126__insertion_sort_unguardedB8ue170006INS_17_ClassicAlgPolicyERZ4mainE3$_0PNS_4pairIiiEEEEvT1_S7_T0_', symObjAddr: 0x24850, symBinAddr: 0x100028778, symSize: 0x120 }
  - { offsetInCU: 0x22415, offset: 0x22415, size: 0x8, addend: 0x0, symName: '__ZNSt3__111__sift_downB8ue170006INS_17_ClassicAlgPolicyERZ4mainE3$_0PNS_4pairIiiEEEEvT1_OT0_NS_15iterator_traitsIS7_E15difference_typeES7_', symObjAddr: 0x25ABC, symBinAddr: 0x1000299E4, symSize: 0x20C }
  - { offsetInCU: 0x224C2, offset: 0x224C2, size: 0x8, addend: 0x0, symName: '__ZNSt3__117__floyd_sift_downB8ue170006INS_17_ClassicAlgPolicyERZ4mainE3$_0PNS_4pairIiiEEEET1_S7_OT0_NS_15iterator_traitsIS7_E15difference_typeE', symObjAddr: 0x25E64, symBinAddr: 0x100029D8C, symSize: 0x100 }
  - { offsetInCU: 0x2255A, offset: 0x2255A, size: 0x8, addend: 0x0, symName: '__ZNSt3__131__partition_with_equals_on_leftB8ue170006INS_17_ClassicAlgPolicyEPNS_4pairIiiEERZ4mainE3$_0EET0_S7_S7_T1_', symObjAddr: 0x24B7C, symBinAddr: 0x100028AA4, symSize: 0x20C }
  - { offsetInCU: 0x22615, offset: 0x22615, size: 0x8, addend: 0x0, symName: '__ZNSt3__118__bitset_partitionB8ue170006INS_17_ClassicAlgPolicyEPNS_4pairIiiEERZ4mainE3$_0EENS2_IT0_bEES7_S7_T1_', symObjAddr: 0x24D88, symBinAddr: 0x100028CB0, symSize: 0x32C }
  - { offsetInCU: 0x22710, offset: 0x22710, size: 0x8, addend: 0x0, symName: __ZNSt3__124__swap_bitmap_pos_withinB8ue170006INS_17_ClassicAlgPolicyEPNS_4pairIiiEEEEvRT0_S6_RyS7_, symObjAddr: 0x265B0, symBinAddr: 0x10002A4D8, symSize: 0x1E0 }
  - { offsetInCU: 0x227DD, offset: 0x227DD, size: 0x8, addend: 0x0, symName: '__ZNSt3__132__partition_with_equals_on_rightB8ue170006INS_17_ClassicAlgPolicyEPNS_4pairIiiEERZ4mainE3$_0EENS2_IT0_bEES7_S7_T1_', symObjAddr: 0x250B4, symBinAddr: 0x100028FDC, symSize: 0x224 }
  - { offsetInCU: 0x228A7, offset: 0x228A7, size: 0x8, addend: 0x0, symName: '__ZNSt3__127__insertion_sort_incompleteB8ue170006INS_17_ClassicAlgPolicyERZ4mainE3$_0PNS_4pairIiiEEEEbT1_S7_T0_', symObjAddr: 0x252D8, symBinAddr: 0x100029200, symSize: 0x304 }
  - { offsetInCU: 0x23A84, offset: 0x23A84, size: 0x8, addend: 0x0, symName: __ZNSt3__1lsB8ue170006IcNS_11char_traitsIcEENS_9allocatorIcEEEERNS_13basic_ostreamIT_T0_EES9_RKNS_12basic_stringIS6_S7_T1_EE, symObjAddr: 0x9F8, symBinAddr: 0x100004920, symSize: 0x4C }
  - { offsetInCU: 0x23ADC, offset: 0x23ADC, size: 0x8, addend: 0x0, symName: __ZNSt3__1lsB8ue170006INS_11char_traitsIcEEEERNS_13basic_ostreamIcT_EES6_PKc, symObjAddr: 0xA44, symBinAddr: 0x10000496C, symSize: 0x48 }
  - { offsetInCU: 0x23B22, offset: 0x23B22, size: 0x8, addend: 0x0, symName: __ZNSt3__14endlB8ue170006IcNS_11char_traitsIcEEEERNS_13basic_ostreamIT_T0_EES7_, symObjAddr: 0xAB8, symBinAddr: 0x1000049E0, symSize: 0x58 }
  - { offsetInCU: 0x24373, offset: 0x24373, size: 0x8, addend: 0x0, symName: __ZNSt3__1neB8ue170006ERKNS_14__map_iteratorINS_15__tree_iteratorINS_12__value_typeINS_12basic_stringIcNS_11char_traitsIcEENS_9allocatorIcEEEEfEEPNS_11__tree_nodeIS9_PvEElEEEESH_, symObjAddr: 0xDDC, symBinAddr: 0x100004D04, symSize: 0x30 }
  - { offsetInCU: 0x243B0, offset: 0x243B0, size: 0x8, addend: 0x0, symName: __ZNSt3__1neB8ue170006IPKNS_6vectorIP4CellNS_9allocatorIS3_EEEEEEbRKNS_11__wrap_iterIT_EESD_, symObjAddr: 0x1014, symBinAddr: 0x100004F3C, symSize: 0x34 }
  - { offsetInCU: 0x243F3, offset: 0x243F3, size: 0x8, addend: 0x0, symName: __ZNSt3__1neB8ue170006IPKP4CellEEbRKNS_11__wrap_iterIT_EES9_, symObjAddr: 0x10C0, symBinAddr: 0x100004FE8, symSize: 0x34 }
  - { offsetInCU: 0x24436, offset: 0x24436, size: 0x8, addend: 0x0, symName: __ZNSt3__1neB8ue170006IPK4MRNAEEbRKNS_11__wrap_iterIT_EES8_, symObjAddr: 0x1250, symBinAddr: 0x100005178, symSize: 0x34 }
  - { offsetInCU: 0x24479, offset: 0x24479, size: 0x8, addend: 0x0, symName: __ZNSt3__1neB8ue170006IPNS_12basic_stringIcNS_11char_traitsIcEENS_9allocatorIcEEEEEEbRKNS_11__wrap_iterIT_EESC_, symObjAddr: 0x13D4, symBinAddr: 0x1000052FC, symSize: 0x34 }
  - { offsetInCU: 0x244BC, offset: 0x244BC, size: 0x8, addend: 0x0, symName: __ZNSt3__1neB8ue170006ERKNS_14__map_iteratorINS_15__tree_iteratorINS_12__value_typeINS_12basic_stringIcNS_11char_traitsIcEENS_9allocatorIcEEEEiEEPNS_11__tree_nodeIS9_PvEElEEEESH_, symObjAddr: 0x1420, symBinAddr: 0x100005348, symSize: 0x30 }
  - { offsetInCU: 0x24504, offset: 0x24504, size: 0x8, addend: 0x0, symName: __ZNSt3__1neB8ue170006ERKNS_14__map_iteratorINS_15__tree_iteratorINS_12__value_typeINS_12basic_stringIcNS_11char_traitsIcEENS_9allocatorIcEEEE8CellTypeEEPNS_11__tree_nodeISA_PvEElEEEESI_, symObjAddr: 0x1D7C, symBinAddr: 0x100005CA4, symSize: 0x30 }
  - { offsetInCU: 0x24541, offset: 0x24541, size: 0x8, addend: 0x0, symName: __ZNSt3__1neB8ue170006IPP4CellEEbRKNS_11__wrap_iterIT_EES8_, symObjAddr: 0x1E8C, symBinAddr: 0x100005DB4, symSize: 0x34 }
  - { offsetInCU: 0x24584, offset: 0x24584, size: 0x8, addend: 0x0, symName: __ZNSt3__1neB8ue170006IP4CellEEbRKNS_11__wrap_iterIT_EES7_, symObjAddr: 0x1F54, symBinAddr: 0x100005E7C, symSize: 0x34 }
  - { offsetInCU: 0x245C7, offset: 0x245C7, size: 0x8, addend: 0x0, symName: __ZNSt3__1plB8ue170006IcNS_11char_traitsIcEENS_9allocatorIcEEEENS_12basic_stringIT_T0_T1_EEOS9_SA_, symObjAddr: 0x20EC, symBinAddr: 0x100006014, symSize: 0x40 }
  - { offsetInCU: 0x2461F, offset: 0x2461F, size: 0x8, addend: 0x0, symName: __ZNSt3__1plB8ue170006IcNS_11char_traitsIcEENS_9allocatorIcEEEENS_12basic_stringIT_T0_T1_EERKS9_PKS6_, symObjAddr: 0x212C, symBinAddr: 0x100006054, symSize: 0x11C }
  - { offsetInCU: 0x246C0, offset: 0x246C0, size: 0x8, addend: 0x0, symName: __ZNSt3__1eqB8ue170006ERKNS_14__map_iteratorINS_15__tree_iteratorINS_12__value_typeINS_12basic_stringIcNS_11char_traitsIcEENS_9allocatorIcEEEEP4CellEEPNS_11__tree_nodeISB_PvEElEEEESJ_, symObjAddr: 0x2288, symBinAddr: 0x1000061B0, symSize: 0x30 }
  - { offsetInCU: 0x24719, offset: 0x24719, size: 0x8, addend: 0x0, symName: __ZNSt3__13refB8ue170006INS_6vectorIP4CellNS_9allocatorIS3_EEEEEENS_17reference_wrapperIT_EERS8_, symObjAddr: 0x2D8C, symBinAddr: 0x100006CB4, symSize: 0x2C }
  - { offsetInCU: 0x2474E, offset: 0x2474E, size: 0x8, addend: 0x0, symName: __ZNSt3__13refB8ue170006INS_3mapINS_12basic_stringIcNS_11char_traitsIcEENS_9allocatorIcEEEEiNS_4lessIS7_EENS5_INS_4pairIKS7_iEEEEEEEENS_17reference_wrapperIT_EERSG_, symObjAddr: 0x2DE4, symBinAddr: 0x100006D0C, symSize: 0x2C }
  - { offsetInCU: 0x24783, offset: 0x24783, size: 0x8, addend: 0x0, symName: __ZNSt3__1neB8ue170006IPNS_6threadEEEbRKNS_11__wrap_iterIT_EES7_, symObjAddr: 0x2E9C, symBinAddr: 0x100006DC4, symSize: 0x34 }
  - { offsetInCU: 0x247C6, offset: 0x247C6, size: 0x8, addend: 0x0, symName: __ZNSt3__1neB8ue170006IPNS_3mapINS_12basic_stringIcNS_11char_traitsIcEENS_9allocatorIcEEEEiNS_4lessIS7_EENS5_INS_4pairIKS7_iEEEEEEEEbRKNS_11__wrap_iterIT_EESK_, symObjAddr: 0x2F68, symBinAddr: 0x100006E90, symSize: 0x34 }
  - { offsetInCU: 0x24809, offset: 0x24809, size: 0x8, addend: 0x0, symName: __ZNSt3__1neB8ue170006ERKNS_20__map_const_iteratorINS_21__tree_const_iteratorINS_12__value_typeINS_12basic_stringIcNS_11char_traitsIcEENS_9allocatorIcEEEEiEEPNS_11__tree_nodeIS9_PvEElEEEESH_, symObjAddr: 0x3024, symBinAddr: 0x100006F4C, symSize: 0x30 }
  - { offsetInCU: 0x24846, offset: 0x24846, size: 0x8, addend: 0x0, symName: __ZNSt3__1neB8ue170006IPNS_6vectorIP4CellNS_9allocatorIS3_EEEEEEbRKNS_11__wrap_iterIT_EESC_, symObjAddr: 0x31B4, symBinAddr: 0x1000070DC, symSize: 0x34 }
  - { offsetInCU: 0x24889, offset: 0x24889, size: 0x8, addend: 0x0, symName: __ZNSt3__1eqB8ue170006IcNS_11char_traitsIcEENS_9allocatorIcEEEEbRKNS_12basic_stringIT_T0_T1_EEPKS6_, symObjAddr: 0x68A4, symBinAddr: 0x10000A7CC, symSize: 0xAC }
  - { offsetInCU: 0x24FE6, offset: 0x24FE6, size: 0x8, addend: 0x0, symName: __ZNSt3__17getlineB8ue170006IcNS_11char_traitsIcEENS_9allocatorIcEEEERNS_13basic_istreamIT_T0_EES9_RNS_12basic_stringIS6_S7_T1_EE, symObjAddr: 0x6C1C, symBinAddr: 0x10000AB44, symSize: 0x5C }
  - { offsetInCU: 0x253BA, offset: 0x253BA, size: 0x8, addend: 0x0, symName: __ZNSt3__1rsB8ue170006IcNS_11char_traitsIcEENS_9allocatorIcEEEERNS_13basic_istreamIT_T0_EES9_RNS_12basic_stringIS6_S7_T1_EE, symObjAddr: 0x6DC0, symBinAddr: 0x10000ACE8, symSize: 0x308 }
  - { offsetInCU: 0x25669, offset: 0x25669, size: 0x8, addend: 0x0, symName: __ZNSt3__1eqB8ue170006INS_9allocatorIcEEEEbRKNS_12basic_stringIcNS_11char_traitsIcEET_EES9_, symObjAddr: 0x72A8, symBinAddr: 0x10000B1D0, symSize: 0x148 }
  - { offsetInCU: 0x256DC, offset: 0x256DC, size: 0x8, addend: 0x0, symName: __ZNSt3__16all_ofB8ue170006INS_11__wrap_iterIPcEEPFiiEEEbT_S6_T0_, symObjAddr: 0x748C, symBinAddr: 0x10000B3B4, symSize: 0xA8 }
  - { offsetInCU: 0x25736, offset: 0x25736, size: 0x8, addend: 0x0, symName: '__ZNSt3__14sortB8ue170006INS_11__wrap_iterIPNS_4pairIiiEEEEZ4mainE3$_0EEvT_S7_T0_', symObjAddr: 0x78CC, symBinAddr: 0x10000B7F4, symSize: 0x40 }
  - { offsetInCU: 0x25790, offset: 0x25790, size: 0x8, addend: 0x0, symName: __ZNSt3__1neB8ue170006IPNS_4pairIiiEEEEbRKNS_11__wrap_iterIT_EES8_, symObjAddr: 0x796C, symBinAddr: 0x10000B894, symSize: 0x34 }
  - { offsetInCU: 0x2581C, offset: 0x2581C, size: 0x8, addend: 0x0, symName: __ZNSt3__112__to_addressB8ue170006INS_4pairINS_12basic_stringIcNS_11char_traitsIcEENS_9allocatorIcEEEEdEEEEPT_SA_, symObjAddr: 0x86A8, symBinAddr: 0x10000C5D0, symSize: 0x14 }
  - { offsetInCU: 0x25851, offset: 0x25851, size: 0x8, addend: 0x0, symName: __ZNSt3__119__libcpp_deallocateB8ue170006EPvmm, symObjAddr: 0x87EC, symBinAddr: 0x10000C714, symSize: 0x30 }
  - { offsetInCU: 0x25899, offset: 0x25899, size: 0x8, addend: 0x0, symName: __ZNSt3__127__do_deallocate_handle_sizeB8ue170006IJEEEvPvmDpT_, symObjAddr: 0x881C, symBinAddr: 0x10000C744, symSize: 0x28 }
  - { offsetInCU: 0x258D7, offset: 0x258D7, size: 0x8, addend: 0x0, symName: __ZNSt3__124__libcpp_operator_deleteB8ue170006IJPvEEEvDpT_, symObjAddr: 0x8844, symBinAddr: 0x10000C76C, symSize: 0x24 }
  - { offsetInCU: 0x2590C, offset: 0x2590C, size: 0x8, addend: 0x0, symName: __ZNSt3__1eqB8ue170006IPKNS_6vectorIP4CellNS_9allocatorIS3_EEEEEEbRKNS_11__wrap_iterIT_EESD_, symObjAddr: 0x89B8, symBinAddr: 0x10000C8E0, symSize: 0x48 }
  - { offsetInCU: 0x2594F, offset: 0x2594F, size: 0x8, addend: 0x0, symName: __ZNSt3__1eqB8ue170006IPKP4CellEEbRKNS_11__wrap_iterIT_EES9_, symObjAddr: 0x8A18, symBinAddr: 0x10000C940, symSize: 0x48 }
  - { offsetInCU: 0x25992, offset: 0x25992, size: 0x8, addend: 0x0, symName: __ZNSt3__1eqB8ue170006IPK4MRNAEEbRKNS_11__wrap_iterIT_EES8_, symObjAddr: 0x8A78, symBinAddr: 0x10000C9A0, symSize: 0x48 }
  - { offsetInCU: 0x259D5, offset: 0x259D5, size: 0x8, addend: 0x0, symName: __ZNSt3__1eqB8ue170006IPNS_12basic_stringIcNS_11char_traitsIcEENS_9allocatorIcEEEEEEbRKNS_11__wrap_iterIT_EESC_, symObjAddr: 0x8AD8, symBinAddr: 0x10000CA00, symSize: 0x48 }
  - { offsetInCU: 0x25A18, offset: 0x25A18, size: 0x8, addend: 0x0, symName: __ZNSt3__1eqB8ue170006IPP4CellEEbRKNS_11__wrap_iterIT_EES8_, symObjAddr: 0x8BC4, symBinAddr: 0x10000CAEC, symSize: 0x48 }
  - { offsetInCU: 0x25A5B, offset: 0x25A5B, size: 0x8, addend: 0x0, symName: __ZNSt3__1eqB8ue170006IP4CellEEbRKNS_11__wrap_iterIT_EES7_, symObjAddr: 0x8C24, symBinAddr: 0x10000CB4C, symSize: 0x48 }
  - { offsetInCU: 0x25A9E, offset: 0x25A9E, size: 0x8, addend: 0x0, symName: __ZNSt3__112__to_addressB8ue170006I4CellEEPT_S3_, symObjAddr: 0x8C84, symBinAddr: 0x10000CBAC, symSize: 0x14 }
  - { offsetInCU: 0x25AD3, offset: 0x25AD3, size: 0x8, addend: 0x0, symName: __ZNSt3__18distanceB8ue170006IP4MRNAEENS_15iterator_traitsIT_E15difference_typeES4_S4_, symObjAddr: 0x8F00, symBinAddr: 0x10000CE28, symSize: 0x2C }
  - { offsetInCU: 0x25B16, offset: 0x25B16, size: 0x8, addend: 0x0, symName: __ZNSt3__14nextB8ue170006IP4MRNAEENS_9enable_ifIXsr29__has_input_iterator_categoryIT_EE5valueES4_E4typeES4_NS_15iterator_traitsIS4_E15difference_typeE, symObjAddr: 0x8F94, symBinAddr: 0x10000CEBC, symSize: 0x34 }
  - { offsetInCU: 0x25B59, offset: 0x25B59, size: 0x8, addend: 0x0, symName: __ZNSt3__14copyB8ue170006IP4MRNAS2_EET0_T_S4_S3_, symObjAddr: 0x8FC8, symBinAddr: 0x10000CEF0, symSize: 0x40 }
  - { offsetInCU: 0x25BB3, offset: 0x25BB3, size: 0x8, addend: 0x0, symName: __ZNSt3__16__copyB8ue170006INS_17_ClassicAlgPolicyEP4MRNAS3_S3_EENS_4pairIT0_T2_EES5_T1_S6_, symObjAddr: 0x9094, symBinAddr: 0x10000CFBC, symSize: 0x44 }
  - { offsetInCU: 0x25C1F, offset: 0x25C1F, size: 0x8, addend: 0x0, symName: __ZNSt3__121__convert_to_integralB8ue170006El, symObjAddr: 0x93B0, symBinAddr: 0x10000D2D8, symSize: 0x14 }
  - { offsetInCU: 0x25C4B, offset: 0x25C4B, size: 0x8, addend: 0x0, symName: __ZNSt3__19__advanceB8ue170006IP4MRNAEEvRT_NS_15iterator_traitsIS3_E15difference_typeENS_26random_access_iterator_tagE, symObjAddr: 0x93C4, symBinAddr: 0x10000D2EC, symSize: 0x28 }
  - { offsetInCU: 0x25C94, offset: 0x25C94, size: 0x8, addend: 0x0, symName: __ZNSt3__130__uninitialized_allocator_copyB8ue170006INS_9allocatorI4MRNAEEPS2_S4_S4_EET2_RT_T0_T1_S5_, symObjAddr: 0x9428, symBinAddr: 0x10000D350, symSize: 0x80 }
  - { offsetInCU: 0x25D31, offset: 0x25D31, size: 0x8, addend: 0x0, symName: __ZNSt3__114__unwrap_rangeB8ue170006IP4MRNAS2_EENS_4pairIT0_S4_EET_S6_, symObjAddr: 0x9540, symBinAddr: 0x10000D468, symSize: 0x60 }
  - { offsetInCU: 0x25D7D, offset: 0x25D7D, size: 0x8, addend: 0x0, symName: __ZNSt3__135__uninitialized_allocator_copy_implB8ue170006INS_9allocatorI4MRNAEEPS2_S4_S4_EET2_RT_T0_T1_S5_, symObjAddr: 0x95A0, symBinAddr: 0x10000D4C8, symSize: 0xF4 }
  - { offsetInCU: 0x25E1B, offset: 0x25E1B, size: 0x8, addend: 0x0, symName: __ZNSt3__113__unwrap_iterB8ue170006IP4MRNANS_18__unwrap_iter_implIS2_Lb1EEELi0EEEDTclsrT0_8__unwrapclsr3stdE7declvalIT_EEEES6_, symObjAddr: 0x9694, symBinAddr: 0x10000D5BC, symSize: 0x24 }
  - { offsetInCU: 0x25E5F, offset: 0x25E5F, size: 0x8, addend: 0x0, symName: __ZNSt3__113__rewrap_iterB8ue170006IP4MRNAS2_NS_18__unwrap_iter_implIS2_Lb1EEEEET_S5_T0_, symObjAddr: 0x96B8, symBinAddr: 0x10000D5E0, symSize: 0x3C }
  - { offsetInCU: 0x25EB4, offset: 0x25EB4, size: 0x8, addend: 0x0, symName: __ZNSt3__19make_pairB8ue170006IP4MRNAS2_EENS_4pairINS_18__unwrap_ref_decayIT_E4typeENS4_IT0_E4typeEEEOS5_OS8_, symObjAddr: 0x96F4, symBinAddr: 0x10000D61C, symSize: 0x38 }
  - { offsetInCU: 0x25FD7, offset: 0x25FD7, size: 0x8, addend: 0x0, symName: __ZNSt3__122__make_exception_guardB8ue170006INS_29_AllocatorDestroyRangeReverseINS_9allocatorI4MRNAEEPS3_EEEENS_28__exception_guard_exceptionsIT_EES8_, symObjAddr: 0x979C, symBinAddr: 0x10000D6C4, symSize: 0x4C }
  - { offsetInCU: 0x2600D, offset: 0x2600D, size: 0x8, addend: 0x0, symName: __ZNSt3__112__to_addressB8ue170006I4MRNAEEPT_S3_, symObjAddr: 0x9860, symBinAddr: 0x10000D788, symSize: 0x14 }
  - { offsetInCU: 0x26042, offset: 0x26042, size: 0x8, addend: 0x0, symName: __ZNSt3__119__allocator_destroyB8ue170006INS_9allocatorI4MRNAEENS_16reverse_iteratorIPS2_EES6_EEvRT_T0_T1_, symObjAddr: 0x9ABC, symBinAddr: 0x10000D9E4, symSize: 0x70 }
  - { offsetInCU: 0x260A5, offset: 0x260A5, size: 0x8, addend: 0x0, symName: __ZNSt3__1neB8ue170006IP4MRNAS2_EEbRKNS_16reverse_iteratorIT_EERKNS3_IT0_EE, symObjAddr: 0x9B60, symBinAddr: 0x10000DA88, symSize: 0x48 }
  - { offsetInCU: 0x260F1, offset: 0x260F1, size: 0x8, addend: 0x0, symName: __ZNSt3__112__to_addressB8ue170006INS_16reverse_iteratorIP4MRNAEEvEEu7__decayIDTclsr19__to_address_helperIT_EE6__callclsr3stdE7declvalIRKS5_EEEEES7_, symObjAddr: 0x9BD4, symBinAddr: 0x10000DAFC, symSize: 0x24 }
  - { offsetInCU: 0x261A3, offset: 0x261A3, size: 0x8, addend: 0x0, symName: __ZNSt3__123__dispatch_copy_or_moveB8ue170006INS_17_ClassicAlgPolicyENS_11__copy_loopIS1_EENS_14__copy_trivialEP4MRNAS6_S6_EENS_4pairIT2_T4_EES8_T3_S9_, symObjAddr: 0x9E28, symBinAddr: 0x10000DD50, symSize: 0x44 }
  - { offsetInCU: 0x26221, offset: 0x26221, size: 0x8, addend: 0x0, symName: __ZNSt3__121__unwrap_and_dispatchB8ue170006INS_10__overloadINS_11__copy_loopINS_17_ClassicAlgPolicyEEENS_14__copy_trivialEEEP4MRNAS8_S8_Li0EEENS_4pairIT0_T2_EESA_T1_SB_, symObjAddr: 0x9E6C, symBinAddr: 0x10000DD94, symSize: 0xB4 }
  - { offsetInCU: 0x2630A, offset: 0x2630A, size: 0x8, addend: 0x0, symName: __ZNSt3__114__rewrap_rangeB8ue170006IP4MRNAS2_EET_S3_T0_, symObjAddr: 0x9FA8, symBinAddr: 0x10000DED0, symSize: 0x2C }
  - { offsetInCU: 0x26356, offset: 0x26356, size: 0x8, addend: 0x0, symName: __ZNSt3__119__allocate_at_leastB8ue170006INS_9allocatorI4MRNAEEEENS_19__allocation_resultINS_16allocator_traitsIT_E7pointerEEERS6_m, symObjAddr: 0xA418, symBinAddr: 0x10000E340, symSize: 0x40 }
  - { offsetInCU: 0x26399, offset: 0x26399, size: 0x8, addend: 0x0, symName: __ZNSt3__13minB8ue170006ImEERKT_S3_S3_, symObjAddr: 0xA504, symBinAddr: 0x10000E42C, symSize: 0x2C }
  - { offsetInCU: 0x265DD, offset: 0x265DD, size: 0x8, addend: 0x0, symName: __ZNSt3__13minB8ue170006ImNS_6__lessIvvEEEERKT_S5_S5_T0_, symObjAddr: 0xA590, symBinAddr: 0x10000E4B8, symSize: 0x54 }
  - { offsetInCU: 0x2667C, offset: 0x2667C, size: 0x8, addend: 0x0, symName: __ZNSt3__120__throw_length_errorB8ue170006EPKc, symObjAddr: 0xA66C, symBinAddr: 0x10000E594, symSize: 0x64 }
  - { offsetInCU: 0x266A6, offset: 0x266A6, size: 0x8, addend: 0x0, symName: __ZNSt3__117__libcpp_allocateB8ue170006Emm, symObjAddr: 0xA7DC, symBinAddr: 0x10000E704, symSize: 0x28 }
  - { offsetInCU: 0x266E3, offset: 0x266E3, size: 0x8, addend: 0x0, symName: __ZNSt3__121__libcpp_operator_newB8ue170006IJmEEEPvDpT_, symObjAddr: 0xA804, symBinAddr: 0x10000E72C, symSize: 0x24 }
  - { offsetInCU: 0x2671C, offset: 0x2671C, size: 0x8, addend: 0x0, symName: __ZNSt3__13maxB8ue170006ImEERKT_S3_S3_, symObjAddr: 0xA828, symBinAddr: 0x10000E750, symSize: 0x2C }
  - { offsetInCU: 0x2675F, offset: 0x2675F, size: 0x8, addend: 0x0, symName: __ZNSt3__13maxB8ue170006ImNS_6__lessIvvEEEERKT_S5_S5_T0_, symObjAddr: 0xA854, symBinAddr: 0x10000E77C, symSize: 0x54 }
  - { offsetInCU: 0x267B9, offset: 0x267B9, size: 0x8, addend: 0x0, symName: __ZNSt3__110__distanceB8ue170006IP4MRNAEENS_15iterator_traitsIT_E15difference_typeES4_S4_NS_26random_access_iterator_tagE, symObjAddr: 0xA8A8, symBinAddr: 0x10000E7D0, symSize: 0x28 }
  - { offsetInCU: 0x26806, offset: 0x26806, size: 0x8, addend: 0x0, symName: __ZNSt3__1eqB8ue170006IPNS_6threadEEEbRKNS_11__wrap_iterIT_EES7_, symObjAddr: 0xAAA0, symBinAddr: 0x10000E9C8, symSize: 0x48 }
  - { offsetInCU: 0x26849, offset: 0x26849, size: 0x8, addend: 0x0, symName: __ZNSt3__1eqB8ue170006IPNS_3mapINS_12basic_stringIcNS_11char_traitsIcEENS_9allocatorIcEEEEiNS_4lessIS7_EENS5_INS_4pairIKS7_iEEEEEEEEbRKNS_11__wrap_iterIT_EESK_, symObjAddr: 0xAB00, symBinAddr: 0x10000EA28, symSize: 0x48 }
  - { offsetInCU: 0x2688C, offset: 0x2688C, size: 0x8, addend: 0x0, symName: __ZNSt3__1eqB8ue170006IPNS_6vectorIP4CellNS_9allocatorIS3_EEEEEEbRKNS_11__wrap_iterIT_EESC_, symObjAddr: 0xAB60, symBinAddr: 0x10000EA88, symSize: 0x48 }
  - { offsetInCU: 0x26935, offset: 0x26935, size: 0x8, addend: 0x0, symName: __ZNSt3__1eqB8ue170006IPNS_4pairIiiEEEEbRKNS_11__wrap_iterIT_EES8_, symObjAddr: 0xB2A0, symBinAddr: 0x10000F1C8, symSize: 0x48 }
  - { offsetInCU: 0x26978, offset: 0x26978, size: 0x8, addend: 0x0, symName: __ZNSt3__118__constexpr_strlenB8ue170006EPKc, symObjAddr: 0xB59C, symBinAddr: 0x10000F4C4, symSize: 0x24 }
  - { offsetInCU: 0x269D7, offset: 0x269D7, size: 0x8, addend: 0x0, symName: __ZNSt3__116__pad_and_outputB8ue170006IcNS_11char_traitsIcEEEENS_19ostreambuf_iteratorIT_T0_EES6_PKS4_S8_S8_RNS_8ios_baseES4_, symObjAddr: 0xBAE0, symBinAddr: 0x10000FA08, symSize: 0x240 }
  - { offsetInCU: 0x26AA6, offset: 0x26AA6, size: 0x8, addend: 0x0, symName: __ZNSt3__112__to_addressB8ue170006IKcEEPT_S3_, symObjAddr: 0xBF50, symBinAddr: 0x10000FE78, symSize: 0x14 }
  - { offsetInCU: 0x26B0E, offset: 0x26B0E, size: 0x8, addend: 0x0, symName: __ZNSt3__19use_facetB8ue170006INS_5ctypeIcEEEERKT_RKNS_6localeE, symObjAddr: 0xC160, symBinAddr: 0x100010088, symSize: 0x2C }
  - { offsetInCU: 0x26EEC, offset: 0x26EEC, size: 0x8, addend: 0x0, symName: __ZNSt3__1neB8ue170006ERKNS_15__tree_iteratorINS_12__value_typeINS_12basic_stringIcNS_11char_traitsIcEENS_9allocatorIcEEEE8CellTypeEEPNS_11__tree_nodeIS9_PvEElEESG_, symObjAddr: 0xC3C8, symBinAddr: 0x1000102F0, symSize: 0x34 }
  - { offsetInCU: 0x26F29, offset: 0x26F29, size: 0x8, addend: 0x0, symName: __ZNSt3__1ltB8ue170006IcNS_11char_traitsIcEENS_9allocatorIcEEEEbRKNS_12basic_stringIT_T0_T1_EESB_, symObjAddr: 0xC594, symBinAddr: 0x1000104BC, symSize: 0x38 }
  - { offsetInCU: 0x26F81, offset: 0x26F81, size: 0x8, addend: 0x0, symName: __ZNSt3__1eqB8ue170006ERKNS_15__tree_iteratorINS_12__value_typeINS_12basic_stringIcNS_11char_traitsIcEENS_9allocatorIcEEEE8CellTypeEEPNS_11__tree_nodeIS9_PvEElEESG_, symObjAddr: 0xC880, symBinAddr: 0x1000107A8, symSize: 0x30 }
  - { offsetInCU: 0x26FBE, offset: 0x26FBE, size: 0x8, addend: 0x0, symName: __ZNSt3__110__str_findB8ue170006IcmNS_11char_traitsIcEELm18446744073709551615EEET0_PKT_S3_S6_S3_S3_, symObjAddr: 0xC908, symBinAddr: 0x100010830, symSize: 0xE4 }
  - { offsetInCU: 0x27065, offset: 0x27065, size: 0x8, addend: 0x0, symName: __ZNSt3__118__search_substringB8ue170006IcNS_11char_traitsIcEEEEPKT_S5_S5_S5_S5_, symObjAddr: 0xC9EC, symBinAddr: 0x100010914, symSize: 0x154 }
  - { offsetInCU: 0x270FF, offset: 0x270FF, size: 0x8, addend: 0x0, symName: __ZNSt3__118__constexpr_memchrB8ue170006IKccEEPT_S3_T0_m, symObjAddr: 0xCBB0, symBinAddr: 0x100010AD8, symSize: 0x40 }
  - { offsetInCU: 0x27199, offset: 0x27199, size: 0x8, addend: 0x0, symName: __ZNSt3__112__to_addressB8ue170006INS_12basic_stringIcNS_11char_traitsIcEENS_9allocatorIcEEEEEEPT_S8_, symObjAddr: 0xDA4C, symBinAddr: 0x100011974, symSize: 0x14 }
  - { offsetInCU: 0x27234, offset: 0x27234, size: 0x8, addend: 0x0, symName: __ZNSt3__1neB8ue170006ERKNS_20__map_const_iteratorINS_21__tree_const_iteratorINS_12__value_typeINS_12basic_stringIcNS_11char_traitsIcEENS_9allocatorIcEEEEfEEPNS_11__tree_nodeIS9_PvEElEEEESH_, symObjAddr: 0xE254, symBinAddr: 0x10001217C, symSize: 0x30 }
  - { offsetInCU: 0x27271, offset: 0x27271, size: 0x8, addend: 0x0, symName: __ZNSt3__1neB8ue170006ERKNS_21__tree_const_iteratorINS_12__value_typeINS_12basic_stringIcNS_11char_traitsIcEENS_9allocatorIcEEEEfEEPNS_11__tree_nodeIS8_PvEElEESF_, symObjAddr: 0xE35C, symBinAddr: 0x100012284, symSize: 0x34 }
  - { offsetInCU: 0x272AE, offset: 0x272AE, size: 0x8, addend: 0x0, symName: __ZNSt3__1eqB8ue170006ERKNS_21__tree_const_iteratorINS_12__value_typeINS_12basic_stringIcNS_11char_traitsIcEENS_9allocatorIcEEEEfEEPNS_11__tree_nodeIS8_PvEElEESF_, symObjAddr: 0xE390, symBinAddr: 0x1000122B8, symSize: 0x30 }
  - { offsetInCU: 0x2730F, offset: 0x2730F, size: 0x8, addend: 0x0, symName: __ZNSt3__14nextB8ue170006INS_21__tree_const_iteratorINS_12__value_typeINS_12basic_stringIcNS_11char_traitsIcEENS_9allocatorIcEEEEfEEPNS_11__tree_nodeIS9_PvEElEEEENS_9enable_ifIXsr29__has_input_iterator_categoryIT_EE5valueESG_E4typeESG_NS_15iterator_traitsISG_E15difference_typeE, symObjAddr: 0xEE98, symBinAddr: 0x100012DC0, symSize: 0x3C }
  - { offsetInCU: 0x27352, offset: 0x27352, size: 0x8, addend: 0x0, symName: __ZNSt3__116__tree_prev_iterB8ue170006IPNS_16__tree_node_baseIPvEEPNS_15__tree_end_nodeIS4_EEEET_T0_, symObjAddr: 0xEFAC, symBinAddr: 0x100012ED4, symSize: 0xA4 }
  - { offsetInCU: 0x2739E, offset: 0x2739E, size: 0x8, addend: 0x0, symName: __ZNSt3__110__tree_maxB8ue170006IPNS_16__tree_node_baseIPvEEEET_S5_, symObjAddr: 0xF050, symBinAddr: 0x100012F78, symSize: 0x40 }
  - { offsetInCU: 0x273D3, offset: 0x273D3, size: 0x8, addend: 0x0, symName: __ZNSt3__120__tree_is_left_childB8ue170006IPNS_16__tree_node_baseIPvEEEEbT_, symObjAddr: 0xF090, symBinAddr: 0x100012FB8, symSize: 0x2C }
  - { offsetInCU: 0x27408, offset: 0x27408, size: 0x8, addend: 0x0, symName: __ZNSt3__19__advanceB8ue170006INS_21__tree_const_iteratorINS_12__value_typeINS_12basic_stringIcNS_11char_traitsIcEENS_9allocatorIcEEEEfEEPNS_11__tree_nodeIS9_PvEElEEEEvRT_NS_15iterator_traitsISF_E15difference_typeENS_26bidirectional_iterator_tagE, symObjAddr: 0xF1A8, symBinAddr: 0x1000130D0, symSize: 0xA4 }
  - { offsetInCU: 0x27451, offset: 0x27451, size: 0x8, addend: 0x0, symName: __ZNSt3__116__tree_next_iterB8ue170006IPNS_15__tree_end_nodeIPNS_16__tree_node_baseIPvEEEES5_EET_T0_, symObjAddr: 0xF284, symBinAddr: 0x1000131AC, symSize: 0x80 }
  - { offsetInCU: 0x2748F, offset: 0x2748F, size: 0x8, addend: 0x0, symName: __ZNSt3__110__tree_minB8ue170006IPNS_16__tree_node_baseIPvEEEET_S5_, symObjAddr: 0xF304, symBinAddr: 0x10001322C, symSize: 0x40 }
  - { offsetInCU: 0x274E2, offset: 0x274E2, size: 0x8, addend: 0x0, symName: __ZNSt3__127__tree_balance_after_insertB8ue170006IPNS_16__tree_node_baseIPvEEEEvT_S5_, symObjAddr: 0xF800, symBinAddr: 0x100013728, symSize: 0x27C }
  - { offsetInCU: 0x2755E, offset: 0x2755E, size: 0x8, addend: 0x0, symName: __ZNSt3__118__tree_left_rotateB8ue170006IPNS_16__tree_node_baseIPvEEEEvT_, symObjAddr: 0xFAA4, symBinAddr: 0x1000139CC, symSize: 0xD8 }
  - { offsetInCU: 0x275A0, offset: 0x275A0, size: 0x8, addend: 0x0, symName: __ZNSt3__119__tree_right_rotateB8ue170006IPNS_16__tree_node_baseIPvEEEEvT_, symObjAddr: 0xFB7C, symBinAddr: 0x100013AA4, symSize: 0xCC }
  - { offsetInCU: 0x27615, offset: 0x27615, size: 0x8, addend: 0x0, symName: __ZNSt3__1neB8ue170006ERKNS_15__tree_iteratorINS_12__value_typeINS_12basic_stringIcNS_11char_traitsIcEENS_9allocatorIcEEEEfEEPNS_11__tree_nodeIS8_PvEElEESF_, symObjAddr: 0x101C0, symBinAddr: 0x1000140E8, symSize: 0x34 }
  - { offsetInCU: 0x27652, offset: 0x27652, size: 0x8, addend: 0x0, symName: __ZNSt3__1eqB8ue170006ERKNS_15__tree_iteratorINS_12__value_typeINS_12basic_stringIcNS_11char_traitsIcEENS_9allocatorIcEEEEfEEPNS_11__tree_nodeIS8_PvEElEESF_, symObjAddr: 0x101F4, symBinAddr: 0x10001411C, symSize: 0x30 }
  - { offsetInCU: 0x276C2, offset: 0x276C2, size: 0x8, addend: 0x0, symName: __ZNSt3__119__allocate_at_leastB8ue170006INS_9allocatorINS_12basic_stringIcNS_11char_traitsIcEENS1_IcEEEEEEEENS_19__allocation_resultINS_16allocator_traitsIT_E7pointerEEERSA_m, symObjAddr: 0x10A1C, symBinAddr: 0x100014944, symSize: 0x40 }
  - { offsetInCU: 0x27705, offset: 0x27705, size: 0x8, addend: 0x0, symName: __ZNSt3__142__uninitialized_allocator_move_if_noexceptB8ue170006INS_9allocatorINS_12basic_stringIcNS_11char_traitsIcEENS1_IcEEEEEENS_16reverse_iteratorIPS6_EESA_SA_EET2_RT_T0_T1_SB_, symObjAddr: 0x10BD4, symBinAddr: 0x100014AFC, symSize: 0x12C }
  - { offsetInCU: 0x277A5, offset: 0x277A5, size: 0x8, addend: 0x0, symName: __ZNSt3__14swapB8ue170006IPNS_12basic_stringIcNS_11char_traitsIcEENS_9allocatorIcEEEEEENS_9enable_ifIXaasr21is_move_constructibleIT_EE5valuesr18is_move_assignableIS9_EE5valueEvE4typeERS9_SC_, symObjAddr: 0x10D4C, symBinAddr: 0x100014C74, symSize: 0x3C }
  - { offsetInCU: 0x277F6, offset: 0x277F6, size: 0x8, addend: 0x0, symName: __ZNSt3__122__make_exception_guardB8ue170006INS_29_AllocatorDestroyRangeReverseINS_9allocatorINS_12basic_stringIcNS_11char_traitsIcEENS2_IcEEEEEENS_16reverse_iteratorIPS7_EEEEEENS_28__exception_guard_exceptionsIT_EESE_, symObjAddr: 0x10E50, symBinAddr: 0x100014D78, symSize: 0x4C }
  - { offsetInCU: 0x2782C, offset: 0x2782C, size: 0x8, addend: 0x0, symName: __ZNSt3__1neB8ue170006IPNS_12basic_stringIcNS_11char_traitsIcEENS_9allocatorIcEEEES7_EEbRKNS_16reverse_iteratorIT_EERKNS8_IT0_EE, symObjAddr: 0x10EE0, symBinAddr: 0x100014E08, symSize: 0x48 }
  - { offsetInCU: 0x27878, offset: 0x27878, size: 0x8, addend: 0x0, symName: __ZNSt3__112__to_addressB8ue170006INS_16reverse_iteratorIPNS_12basic_stringIcNS_11char_traitsIcEENS_9allocatorIcEEEEEEvEEu7__decayIDTclsr19__to_address_helperIT_EE6__callclsr3stdE7declvalIRKSA_EEEEESC_, symObjAddr: 0x10F5C, symBinAddr: 0x100014E84, symSize: 0x24 }
  - { offsetInCU: 0x278D7, offset: 0x278D7, size: 0x8, addend: 0x0, symName: __ZNSt3__119__allocator_destroyB8ue170006INS_9allocatorINS_12basic_stringIcNS_11char_traitsIcEENS1_IcEEEEEENS_16reverse_iteratorINS8_IPS6_EEEESB_EEvRT_T0_T1_, symObjAddr: 0x112B8, symBinAddr: 0x1000151E0, symSize: 0x70 }
  - { offsetInCU: 0x2793C, offset: 0x2793C, size: 0x8, addend: 0x0, symName: __ZNSt3__1neB8ue170006INS_16reverse_iteratorIPNS_12basic_stringIcNS_11char_traitsIcEENS_9allocatorIcEEEEEES9_EEbRKNS1_IT_EERKNS1_IT0_EE, symObjAddr: 0x11364, symBinAddr: 0x10001528C, symSize: 0x60 }
  - { offsetInCU: 0x27988, offset: 0x27988, size: 0x8, addend: 0x0, symName: __ZNSt3__112__to_addressB8ue170006INS_16reverse_iteratorINS1_IPNS_12basic_stringIcNS_11char_traitsIcEENS_9allocatorIcEEEEEEEEvEEu7__decayIDTclsr19__to_address_helperIT_EE6__callclsr3stdE7declvalIRKSB_EEEEESD_, symObjAddr: 0x113C4, symBinAddr: 0x1000152EC, symSize: 0x24 }
  - { offsetInCU: 0x27A1E, offset: 0x27A1E, size: 0x8, addend: 0x0, symName: __ZNSt3__116forward_as_tupleB8ue170006IJNS_12basic_stringIcNS_11char_traitsIcEENS_9allocatorIcEEEEEEENS_5tupleIJDpOT_EEESA_, symObjAddr: 0x1182C, symBinAddr: 0x100015754, symSize: 0x2C }
  - { offsetInCU: 0x27A57, offset: 0x27A57, size: 0x8, addend: 0x0, symName: __ZNSt3__116forward_as_tupleB8ue170006IJEEENS_5tupleIJDpOT_EEES4_, symObjAddr: 0x11858, symBinAddr: 0x100015780, symSize: 0x4 }
  - { offsetInCU: 0x27AA4, offset: 0x27AA4, size: 0x8, addend: 0x0, symName: __ZNSt3__13getB8ue170006ILm0EJONS_12basic_stringIcNS_11char_traitsIcEENS_9allocatorIcEEEEEEERNS_13tuple_elementIXT_ENS_5tupleIJDpT0_EEEE4typeERSC_, symObjAddr: 0x1223C, symBinAddr: 0x100016164, symSize: 0x24 }
  - { offsetInCU: 0x27B0B, offset: 0x27B0B, size: 0x8, addend: 0x0, symName: __ZNSt3__111__tree_leafB8ue170006IPNS_16__tree_node_baseIPvEEEET_S5_, symObjAddr: 0x1306C, symBinAddr: 0x100016F94, symSize: 0x70 }
  - { offsetInCU: 0x27B91, offset: 0x27B91, size: 0x8, addend: 0x0, symName: __ZNSt3__1neB8ue170006ERKNS_15__tree_iteratorINS_12__value_typeINS_12basic_stringIcNS_11char_traitsIcEENS_9allocatorIcEEEEiEEPNS_11__tree_nodeIS8_PvEElEESF_, symObjAddr: 0x14A1C, symBinAddr: 0x100018944, symSize: 0x34 }
  - { offsetInCU: 0x27BCE, offset: 0x27BCE, size: 0x8, addend: 0x0, symName: __ZNSt3__1eqB8ue170006ERKNS_15__tree_iteratorINS_12__value_typeINS_12basic_stringIcNS_11char_traitsIcEENS_9allocatorIcEEEEiEEPNS_11__tree_nodeIS8_PvEElEESF_, symObjAddr: 0x14B00, symBinAddr: 0x100018A28, symSize: 0x30 }
  - { offsetInCU: 0x27C0B, offset: 0x27C0B, size: 0x8, addend: 0x0, symName: __ZNSt3__116forward_as_tupleB8ue170006IJRKNS_12basic_stringIcNS_11char_traitsIcEENS_9allocatorIcEEEEEEENS_5tupleIJDpOT_EEESC_, symObjAddr: 0x14C50, symBinAddr: 0x100018B78, symSize: 0x2C }
  - { offsetInCU: 0x27C44, offset: 0x27C44, size: 0x8, addend: 0x0, symName: __ZNSt3__13getB8ue170006ILm0EJRKNS_12basic_stringIcNS_11char_traitsIcEENS_9allocatorIcEEEEEEERNS_13tuple_elementIXT_ENS_5tupleIJDpT0_EEEE4typeERSD_, symObjAddr: 0x14EE4, symBinAddr: 0x100018E0C, symSize: 0x24 }
  - { offsetInCU: 0x27CBA, offset: 0x27CBA, size: 0x8, addend: 0x0, symName: __ZNSt3__112__to_addressB8ue170006IcEEPT_S2_, symObjAddr: 0x16CB4, symBinAddr: 0x10001ABDC, symSize: 0x14 }
  - { offsetInCU: 0x27EF1, offset: 0x27EF1, size: 0x8, addend: 0x0, symName: __ZNSt3__14copyB8ue170006IPKcPcEET0_T_S5_S4_, symObjAddr: 0x1735C, symBinAddr: 0x10001B284, symSize: 0x40 }
  - { offsetInCU: 0x27F4B, offset: 0x27F4B, size: 0x8, addend: 0x0, symName: __ZNSt3__16__copyB8ue170006INS_17_ClassicAlgPolicyEPKcS3_PcEENS_4pairIT0_T2_EES6_T1_S7_, symObjAddr: 0x1739C, symBinAddr: 0x10001B2C4, symSize: 0x44 }
  - { offsetInCU: 0x27FB7, offset: 0x27FB7, size: 0x8, addend: 0x0, symName: __ZNSt3__123__dispatch_copy_or_moveB8ue170006INS_17_ClassicAlgPolicyENS_11__copy_loopIS1_EENS_14__copy_trivialEPKcS6_PcEENS_4pairIT2_T4_EES9_T3_SA_, symObjAddr: 0x173E0, symBinAddr: 0x10001B308, symSize: 0x44 }
  - { offsetInCU: 0x28035, offset: 0x28035, size: 0x8, addend: 0x0, symName: __ZNSt3__121__unwrap_and_dispatchB8ue170006INS_10__overloadINS_11__copy_loopINS_17_ClassicAlgPolicyEEENS_14__copy_trivialEEEPKcS8_PcLi0EEENS_4pairIT0_T2_EESB_T1_SC_, symObjAddr: 0x17424, symBinAddr: 0x10001B34C, symSize: 0xB4 }
  - { offsetInCU: 0x280C3, offset: 0x280C3, size: 0x8, addend: 0x0, symName: __ZNSt3__114__unwrap_rangeB8ue170006IPKcS2_EENS_4pairIT0_S4_EET_S6_, symObjAddr: 0x174D8, symBinAddr: 0x10001B400, symSize: 0x60 }
  - { offsetInCU: 0x28258, offset: 0x28258, size: 0x8, addend: 0x0, symName: __ZNSt3__113__unwrap_iterB8ue170006IPcNS_18__unwrap_iter_implIS1_Lb1EEELi0EEEDTclsrT0_8__unwrapclsr3stdE7declvalIT_EEEES5_, symObjAddr: 0x17580, symBinAddr: 0x10001B4A8, symSize: 0x24 }
  - { offsetInCU: 0x2829C, offset: 0x2829C, size: 0x8, addend: 0x0, symName: __ZNSt3__19make_pairB8ue170006IPKcPcEENS_4pairINS_18__unwrap_ref_decayIT_E4typeENS5_IT0_E4typeEEEOS6_OS9_, symObjAddr: 0x175A4, symBinAddr: 0x10001B4CC, symSize: 0x38 }
  - { offsetInCU: 0x282EB, offset: 0x282EB, size: 0x8, addend: 0x0, symName: __ZNSt3__114__rewrap_rangeB8ue170006IPKcS2_EET_S3_T0_, symObjAddr: 0x175DC, symBinAddr: 0x10001B504, symSize: 0x2C }
  - { offsetInCU: 0x28337, offset: 0x28337, size: 0x8, addend: 0x0, symName: __ZNSt3__113__rewrap_iterB8ue170006IPcS1_NS_18__unwrap_iter_implIS1_Lb1EEEEET_S4_T0_, symObjAddr: 0x17608, symBinAddr: 0x10001B530, symSize: 0x3C }
  - { offsetInCU: 0x2838C, offset: 0x2838C, size: 0x8, addend: 0x0, symName: __ZNSt3__19make_pairB8ue170006IPKcS2_EENS_4pairINS_18__unwrap_ref_decayIT_E4typeENS4_IT0_E4typeEEEOS5_OS8_, symObjAddr: 0x17644, symBinAddr: 0x10001B56C, symSize: 0x38 }
  - { offsetInCU: 0x283DB, offset: 0x283DB, size: 0x8, addend: 0x0, symName: __ZNSt3__113__unwrap_iterB8ue170006IPKcNS_18__unwrap_iter_implIS2_Lb1EEELi0EEEDTclsrT0_8__unwrapclsr3stdE7declvalIT_EEEES6_, symObjAddr: 0x1767C, symBinAddr: 0x10001B5A4, symSize: 0x24 }
  - { offsetInCU: 0x28546, offset: 0x28546, size: 0x8, addend: 0x0, symName: __ZNSt3__119__copy_trivial_implB8ue170006IKccEENS_4pairIPT_PT0_EES4_S4_S6_, symObjAddr: 0x17734, symBinAddr: 0x10001B65C, symSize: 0x78 }
  - { offsetInCU: 0x285AE, offset: 0x285AE, size: 0x8, addend: 0x0, symName: __ZNSt3__119__constexpr_memmoveB8ue170006IcKcLi0EEEPT_S3_PT0_NS_15__element_countE, symObjAddr: 0x177AC, symBinAddr: 0x10001B6D4, symSize: 0x64 }
  - { offsetInCU: 0x2861C, offset: 0x2861C, size: 0x8, addend: 0x0, symName: __ZNSt3__19make_pairB8ue170006IRPKcPcEENS_4pairINS_18__unwrap_ref_decayIT_E4typeENS6_IT0_E4typeEEEOS7_OSA_, symObjAddr: 0x17810, symBinAddr: 0x10001B738, symSize: 0x38 }
  - { offsetInCU: 0x286BE, offset: 0x286BE, size: 0x8, addend: 0x0, symName: __ZNSt3__113__rewrap_iterB8ue170006IPKcS2_NS_18__unwrap_iter_implIS2_Lb1EEEEET_S5_T0_, symObjAddr: 0x1794C, symBinAddr: 0x10001B874, symSize: 0x3C }
  - { offsetInCU: 0x28713, offset: 0x28713, size: 0x8, addend: 0x0, symName: __ZNSt3__16fill_nB8ue170006IPcmcEET_S2_T0_RKT1_, symObjAddr: 0x17A18, symBinAddr: 0x10001B940, symSize: 0x44 }
  - { offsetInCU: 0x28776, offset: 0x28776, size: 0x8, addend: 0x0, symName: __ZNSt3__18__fill_nB8ue170006IPcmcEET_S2_T0_RKT1_, symObjAddr: 0x17A5C, symBinAddr: 0x10001B984, symSize: 0x64 }
  - { offsetInCU: 0x287D9, offset: 0x287D9, size: 0x8, addend: 0x0, symName: __ZNSt3__121__convert_to_integralB8ue170006Em, symObjAddr: 0x17AC0, symBinAddr: 0x10001B9E8, symSize: 0x14 }
  - { offsetInCU: 0x28805, offset: 0x28805, size: 0x8, addend: 0x0, symName: __ZNSt3__1neB8ue170006ERKNS_15__tree_iteratorINS_12__value_typeINS_12basic_stringIcNS_11char_traitsIcEENS_9allocatorIcEEEEP4CellEEPNS_11__tree_nodeISA_PvEElEESH_, symObjAddr: 0x17CF0, symBinAddr: 0x10001BC18, symSize: 0x34 }
  - { offsetInCU: 0x28842, offset: 0x28842, size: 0x8, addend: 0x0, symName: __ZNSt3__1eqB8ue170006ERKNS_15__tree_iteratorINS_12__value_typeINS_12basic_stringIcNS_11char_traitsIcEENS_9allocatorIcEEEEP4CellEEPNS_11__tree_nodeISA_PvEElEESH_, symObjAddr: 0x17EA8, symBinAddr: 0x10001BDD0, symSize: 0x30 }
  - { offsetInCU: 0x2887F, offset: 0x2887F, size: 0x8, addend: 0x0, symName: __ZNSt3__112__to_addressB8ue170006IP4CellEEPT_S4_, symObjAddr: 0x181A8, symBinAddr: 0x10001C0D0, symSize: 0x14 }
  - { offsetInCU: 0x288B4, offset: 0x288B4, size: 0x8, addend: 0x0, symName: __ZNSt3__119__allocate_at_leastB8ue170006INS_9allocatorIP4CellEEEENS_19__allocation_resultINS_16allocator_traitsIT_E7pointerEEERS7_m, symObjAddr: 0x187A4, symBinAddr: 0x10001C6CC, symSize: 0x40 }
  - { offsetInCU: 0x288F7, offset: 0x288F7, size: 0x8, addend: 0x0, symName: __ZNSt3__142__uninitialized_allocator_move_if_noexceptB8ue170006INS_9allocatorIP4CellEENS_16reverse_iteratorIPS3_EES7_S3_vEET1_RT_T0_SB_S8_, symObjAddr: 0x18A2C, symBinAddr: 0x10001C954, symSize: 0x78 }
  - { offsetInCU: 0x28975, offset: 0x28975, size: 0x8, addend: 0x0, symName: __ZNSt3__14swapB8ue170006IPP4CellEENS_9enable_ifIXaasr21is_move_constructibleIT_EE5valuesr18is_move_assignableIS5_EE5valueEvE4typeERS5_S8_, symObjAddr: 0x18AF0, symBinAddr: 0x10001CA18, symSize: 0x3C }
  - { offsetInCU: 0x289C6, offset: 0x289C6, size: 0x8, addend: 0x0, symName: __ZNSt3__14moveB8ue170006INS_16reverse_iteratorIPP4CellEES5_EET0_T_S7_S6_, symObjAddr: 0x18C20, symBinAddr: 0x10001CB48, symSize: 0x78 }
  - { offsetInCU: 0x28A20, offset: 0x28A20, size: 0x8, addend: 0x0, symName: __ZNSt3__16__moveB8ue170006INS_17_ClassicAlgPolicyENS_16reverse_iteratorIPP4CellEES6_S6_EENS_4pairIT0_T2_EES8_T1_S9_, symObjAddr: 0x18C98, symBinAddr: 0x10001CBC0, symSize: 0x64 }
  - { offsetInCU: 0x28A8C, offset: 0x28A8C, size: 0x8, addend: 0x0, symName: __ZNSt3__123__dispatch_copy_or_moveB8ue170006INS_17_ClassicAlgPolicyENS_11__move_loopIS1_EENS_14__move_trivialENS_16reverse_iteratorIPP4CellEES9_S9_EENS_4pairIT2_T4_EESB_T3_SC_, symObjAddr: 0x18CFC, symBinAddr: 0x10001CC24, symSize: 0x64 }
  - { offsetInCU: 0x28B0A, offset: 0x28B0A, size: 0x8, addend: 0x0, symName: __ZNSt3__121__unwrap_and_dispatchB8ue170006INS_10__overloadINS_11__move_loopINS_17_ClassicAlgPolicyEEENS_14__move_trivialEEENS_16reverse_iteratorIPP4CellEESB_SB_Li0EEENS_4pairIT0_T2_EESD_T1_SE_, symObjAddr: 0x18D60, symBinAddr: 0x10001CC88, symSize: 0x12C }
  - { offsetInCU: 0x28B9A, offset: 0x28B9A, size: 0x8, addend: 0x0, symName: __ZNSt3__114__unwrap_rangeB8ue170006INS_16reverse_iteratorIPP4CellEES5_EENS_4pairIT0_S7_EET_S9_, symObjAddr: 0x18E8C, symBinAddr: 0x10001CDB4, symSize: 0x84 }
  - { offsetInCU: 0x28D0C, offset: 0x28D0C, size: 0x8, addend: 0x0, symName: __ZNSt3__113__unwrap_iterB8ue170006INS_16reverse_iteratorIPP4CellEENS_18__unwrap_iter_implIS5_Lb0EEELi0EEEDTclsrT0_8__unwrapclsr3stdE7declvalIT_EEEES9_, symObjAddr: 0x18FB0, symBinAddr: 0x10001CED8, symSize: 0x44 }
  - { offsetInCU: 0x28D50, offset: 0x28D50, size: 0x8, addend: 0x0, symName: __ZNSt3__19make_pairB8ue170006INS_16reverse_iteratorIPP4CellEES5_EENS_4pairINS_18__unwrap_ref_decayIT_E4typeENS7_IT0_E4typeEEEOS8_OSB_, symObjAddr: 0x18FF4, symBinAddr: 0x10001CF1C, symSize: 0x38 }
  - { offsetInCU: 0x28D9F, offset: 0x28D9F, size: 0x8, addend: 0x0, symName: __ZNSt3__114__rewrap_rangeB8ue170006INS_16reverse_iteratorIPP4CellEES5_EET_S6_T0_, symObjAddr: 0x1902C, symBinAddr: 0x10001CF54, symSize: 0x5C }
  - { offsetInCU: 0x28DEB, offset: 0x28DEB, size: 0x8, addend: 0x0, symName: __ZNSt3__113__rewrap_iterB8ue170006INS_16reverse_iteratorIPP4CellEES5_NS_18__unwrap_iter_implIS5_Lb0EEEEET_S8_T0_, symObjAddr: 0x19088, symBinAddr: 0x10001CFB0, symSize: 0x74 }
  - { offsetInCU: 0x28E40, offset: 0x28E40, size: 0x8, addend: 0x0, symName: __ZNSt3__1neB8ue170006IPP4CellS3_EEbRKNS_16reverse_iteratorIT_EERKNS4_IT0_EE, symObjAddr: 0x190FC, symBinAddr: 0x10001D024, symSize: 0x48 }
  - { offsetInCU: 0x29090, offset: 0x29090, size: 0x8, addend: 0x0, symName: __ZNSt3__113__tree_removeB8ue170006IPNS_16__tree_node_baseIPvEEEEvT_S5_, symObjAddr: 0x1A474, symBinAddr: 0x10001E39C, symSize: 0x6E0 }
  - { offsetInCU: 0x2910E, offset: 0x2910E, size: 0x8, addend: 0x0, symName: __ZNSt3__111__tree_nextB8ue170006IPNS_16__tree_node_baseIPvEEEET_S5_, symObjAddr: 0x1AB54, symBinAddr: 0x10001EA7C, symSize: 0x80 }
  - { offsetInCU: 0x29143, offset: 0x29143, size: 0x8, addend: 0x0, symName: __ZNSt3__1miB8ue170006IPKP4CellS4_EEDTmicldtfp_4baseEcldtfp0_4baseEERKNS_11__wrap_iterIT_EERKNS6_IT0_EE, symObjAddr: 0x1AE88, symBinAddr: 0x10001EDB0, symSize: 0x48 }
  - { offsetInCU: 0x2918F, offset: 0x2918F, size: 0x8, addend: 0x0, symName: __ZNSt3__14moveB8ue170006IPP4CellS3_EET0_T_S5_S4_, symObjAddr: 0x1AF48, symBinAddr: 0x10001EE70, symSize: 0x40 }
  - { offsetInCU: 0x291E9, offset: 0x291E9, size: 0x8, addend: 0x0, symName: __ZNSt3__16__moveB8ue170006INS_17_ClassicAlgPolicyEPP4CellS4_S4_EENS_4pairIT0_T2_EES6_T1_S7_, symObjAddr: 0x1B0C8, symBinAddr: 0x10001EFF0, symSize: 0x44 }
  - { offsetInCU: 0x29255, offset: 0x29255, size: 0x8, addend: 0x0, symName: __ZNSt3__123__dispatch_copy_or_moveB8ue170006INS_17_ClassicAlgPolicyENS_11__move_loopIS1_EENS_14__move_trivialEPP4CellS7_S7_EENS_4pairIT2_T4_EES9_T3_SA_, symObjAddr: 0x1B10C, symBinAddr: 0x10001F034, symSize: 0x44 }
  - { offsetInCU: 0x292D3, offset: 0x292D3, size: 0x8, addend: 0x0, symName: __ZNSt3__121__unwrap_and_dispatchB8ue170006INS_10__overloadINS_11__move_loopINS_17_ClassicAlgPolicyEEENS_14__move_trivialEEEPP4CellS9_S9_Li0EEENS_4pairIT0_T2_EESB_T1_SC_, symObjAddr: 0x1B150, symBinAddr: 0x10001F078, symSize: 0xB4 }
  - { offsetInCU: 0x29361, offset: 0x29361, size: 0x8, addend: 0x0, symName: __ZNSt3__114__unwrap_rangeB8ue170006IPP4CellS3_EENS_4pairIT0_S5_EET_S7_, symObjAddr: 0x1B204, symBinAddr: 0x10001F12C, symSize: 0x60 }
  - { offsetInCU: 0x294F6, offset: 0x294F6, size: 0x8, addend: 0x0, symName: __ZNSt3__113__unwrap_iterB8ue170006IPP4CellNS_18__unwrap_iter_implIS3_Lb1EEELi0EEEDTclsrT0_8__unwrapclsr3stdE7declvalIT_EEEES7_, symObjAddr: 0x1B2AC, symBinAddr: 0x10001F1D4, symSize: 0x24 }
  - { offsetInCU: 0x2953A, offset: 0x2953A, size: 0x8, addend: 0x0, symName: __ZNSt3__19make_pairB8ue170006IPP4CellS3_EENS_4pairINS_18__unwrap_ref_decayIT_E4typeENS5_IT0_E4typeEEEOS6_OS9_, symObjAddr: 0x1B2D0, symBinAddr: 0x10001F1F8, symSize: 0x38 }
  - { offsetInCU: 0x29589, offset: 0x29589, size: 0x8, addend: 0x0, symName: __ZNSt3__114__rewrap_rangeB8ue170006IPP4CellS3_EET_S4_T0_, symObjAddr: 0x1B308, symBinAddr: 0x10001F230, symSize: 0x2C }
  - { offsetInCU: 0x295D5, offset: 0x295D5, size: 0x8, addend: 0x0, symName: __ZNSt3__113__rewrap_iterB8ue170006IPP4CellS3_NS_18__unwrap_iter_implIS3_Lb1EEEEET_S6_T0_, symObjAddr: 0x1B334, symBinAddr: 0x10001F25C, symSize: 0x3C }
  - { offsetInCU: 0x2962A, offset: 0x2962A, size: 0x8, addend: 0x0, symName: __ZNSt3__119__copy_trivial_implB8ue170006IP4CellS2_EENS_4pairIPT_PT0_EES5_S5_S7_, symObjAddr: 0x1B370, symBinAddr: 0x10001F298, symSize: 0x80 }
  - { offsetInCU: 0x29692, offset: 0x29692, size: 0x8, addend: 0x0, symName: __ZNSt3__119__constexpr_memmoveB8ue170006IP4CellS2_Li0EEEPT_S4_PT0_NS_15__element_countE, symObjAddr: 0x1B3F0, symBinAddr: 0x10001F318, symSize: 0x64 }
  - { offsetInCU: 0x29700, offset: 0x29700, size: 0x8, addend: 0x0, symName: __ZNSt3__19make_pairB8ue170006IRPP4CellS3_EENS_4pairINS_18__unwrap_ref_decayIT_E4typeENS6_IT0_E4typeEEEOS7_OSA_, symObjAddr: 0x1B454, symBinAddr: 0x10001F37C, symSize: 0x38 }
  - { offsetInCU: 0x297A2, offset: 0x297A2, size: 0x8, addend: 0x0, symName: __ZNSt3__112__to_addressB8ue170006INS_6threadEEEPT_S3_, symObjAddr: 0x1BA8C, symBinAddr: 0x10001F9B4, symSize: 0x14 }
  - { offsetInCU: 0x297D7, offset: 0x297D7, size: 0x8, addend: 0x0, symName: __ZNSt3__122__make_exception_guardB8ue170006INS_6vectorINS_3mapINS_12basic_stringIcNS_11char_traitsIcEENS_9allocatorIcEEEEiNS_4lessIS8_EENS6_INS_4pairIKS8_iEEEEEENS6_ISF_EEE16__destroy_vectorEEENS_28__exception_guard_exceptionsIT_EESK_, symObjAddr: 0x1BD20, symBinAddr: 0x10001FC48, symSize: 0x40 }
  - { offsetInCU: 0x2980C, offset: 0x2980C, size: 0x8, addend: 0x0, symName: __ZNSt3__119__allocate_at_leastB8ue170006INS_9allocatorINS_3mapINS_12basic_stringIcNS_11char_traitsIcEENS1_IcEEEEiNS_4lessIS7_EENS1_INS_4pairIKS7_iEEEEEEEEEENS_19__allocation_resultINS_16allocator_traitsIT_E7pointerEEERSI_m, symObjAddr: 0x1C114, symBinAddr: 0x10002003C, symSize: 0x40 }
  - { offsetInCU: 0x2984F, offset: 0x2984F, size: 0x8, addend: 0x0, symName: __ZNSt3__112__to_addressB8ue170006INS_3mapINS_12basic_stringIcNS_11char_traitsIcEENS_9allocatorIcEEEEiNS_4lessIS7_EENS5_INS_4pairIKS7_iEEEEEEEEPT_SG_, symObjAddr: 0x1C45C, symBinAddr: 0x100020384, symSize: 0x14 }
  - { offsetInCU: 0x29C81, offset: 0x29C81, size: 0x8, addend: 0x0, symName: __ZNSt3__122__libcpp_thread_createB8ue170006EPP17_opaque_pthread_tPFPvS3_ES3_, symObjAddr: 0x1D024, symBinAddr: 0x100020F4C, symSize: 0x38 }
  - { offsetInCU: 0x29CCD, offset: 0x29CCD, size: 0x8, addend: 0x0, symName: __ZNSt3__114__thread_proxyB8ue170006INS_5tupleIJNS_10unique_ptrINS_15__thread_structENS_14default_deleteIS3_EEEEPFvRNS_6vectorIP4CellNS_9allocatorIS9_EEEERNS_3mapINS_12basic_stringIcNS_11char_traitsIcEENSA_IcEEEEiNS_4lessISJ_EENSA_INS_4pairIKSJ_iEEEEEEiiENS_17reference_wrapperISC_EENSU_ISQ_EEiiEEEEEPvSY_, symObjAddr: 0x1D05C, symBinAddr: 0x100020F84, symSize: 0x90 }
  - { offsetInCU: 0x29E25, offset: 0x29E25, size: 0x8, addend: 0x0, symName: __ZNSt3__13getB8ue170006ILm0EJNS_10unique_ptrINS_15__thread_structENS_14default_deleteIS2_EEEEPFvRNS_6vectorIP4CellNS_9allocatorIS8_EEEERNS_3mapINS_12basic_stringIcNS_11char_traitsIcEENS9_IcEEEEiNS_4lessISI_EENS9_INS_4pairIKSI_iEEEEEEiiENS_17reference_wrapperISB_EENST_ISP_EEiiEEERNS_13tuple_elementIXT_ENS_5tupleIJDpT0_EEEE4typeERS10_, symObjAddr: 0x1D82C, symBinAddr: 0x100021754, symSize: 0x24 }
  - { offsetInCU: 0x29E81, offset: 0x29E81, size: 0x8, addend: 0x0, symName: __ZNSt3__116__thread_executeB8ue170006INS_10unique_ptrINS_15__thread_structENS_14default_deleteIS2_EEEEPFvRNS_6vectorIP4CellNS_9allocatorIS8_EEEERNS_3mapINS_12basic_stringIcNS_11char_traitsIcEENS9_IcEEEEiNS_4lessISI_EENS9_INS_4pairIKSI_iEEEEEEiiEJNS_17reference_wrapperISB_EENST_ISP_EEiiEJLm2ELm3ELm4ELm5EEEEvRNS_5tupleIJT_T0_DpT1_EEENS_15__tuple_indicesIJXspT2_EEEE, symObjAddr: 0x1D850, symBinAddr: 0x100021778, symSize: 0x6C }
  - { offsetInCU: 0x29EFD, offset: 0x29EFD, size: 0x8, addend: 0x0, symName: __ZNSt3__116__libcpp_tls_setB8ue170006EmPv, symObjAddr: 0x1D8BC, symBinAddr: 0x1000217E4, symSize: 0x2C }
  - { offsetInCU: 0x29F3A, offset: 0x29F3A, size: 0x8, addend: 0x0, symName: __ZNSt3__18__invokeB8ue170006IPFvRNS_6vectorIP4CellNS_9allocatorIS3_EEEERNS_3mapINS_12basic_stringIcNS_11char_traitsIcEENS4_IcEEEEiNS_4lessISD_EENS4_INS_4pairIKSD_iEEEEEEiiEJNS_17reference_wrapperIS6_EENSO_ISK_EEiiEEEDTclclsr3stdE7declvalIT_EEspclsr3stdE7declvalIT0_EEEEOSR_DpOSS_, symObjAddr: 0x1D8FC, symBinAddr: 0x100021824, symSize: 0x6C }
  - { offsetInCU: 0x29FC3, offset: 0x29FC3, size: 0x8, addend: 0x0, symName: __ZNSt3__13getB8ue170006ILm1EJNS_10unique_ptrINS_15__thread_structENS_14default_deleteIS2_EEEEPFvRNS_6vectorIP4CellNS_9allocatorIS8_EEEERNS_3mapINS_12basic_stringIcNS_11char_traitsIcEENS9_IcEEEEiNS_4lessISI_EENS9_INS_4pairIKSI_iEEEEEEiiENS_17reference_wrapperISB_EENST_ISP_EEiiEEERNS_13tuple_elementIXT_ENS_5tupleIJDpT0_EEEE4typeERS10_, symObjAddr: 0x1D968, symBinAddr: 0x100021890, symSize: 0x28 }
  - { offsetInCU: 0x2A01F, offset: 0x2A01F, size: 0x8, addend: 0x0, symName: __ZNSt3__13getB8ue170006ILm2EJNS_10unique_ptrINS_15__thread_structENS_14default_deleteIS2_EEEEPFvRNS_6vectorIP4CellNS_9allocatorIS8_EEEERNS_3mapINS_12basic_stringIcNS_11char_traitsIcEENS9_IcEEEEiNS_4lessISI_EENS9_INS_4pairIKSI_iEEEEEEiiENS_17reference_wrapperISB_EENST_ISP_EEiiEEERNS_13tuple_elementIXT_ENS_5tupleIJDpT0_EEEE4typeERS10_, symObjAddr: 0x1D990, symBinAddr: 0x1000218B8, symSize: 0x28 }
  - { offsetInCU: 0x2A07B, offset: 0x2A07B, size: 0x8, addend: 0x0, symName: __ZNSt3__13getB8ue170006ILm3EJNS_10unique_ptrINS_15__thread_structENS_14default_deleteIS2_EEEEPFvRNS_6vectorIP4CellNS_9allocatorIS8_EEEERNS_3mapINS_12basic_stringIcNS_11char_traitsIcEENS9_IcEEEEiNS_4lessISI_EENS9_INS_4pairIKSI_iEEEEEEiiENS_17reference_wrapperISB_EENST_ISP_EEiiEEERNS_13tuple_elementIXT_ENS_5tupleIJDpT0_EEEE4typeERS10_, symObjAddr: 0x1D9B8, symBinAddr: 0x1000218E0, symSize: 0x28 }
  - { offsetInCU: 0x2A0D7, offset: 0x2A0D7, size: 0x8, addend: 0x0, symName: __ZNSt3__13getB8ue170006ILm4EJNS_10unique_ptrINS_15__thread_structENS_14default_deleteIS2_EEEEPFvRNS_6vectorIP4CellNS_9allocatorIS8_EEEERNS_3mapINS_12basic_stringIcNS_11char_traitsIcEENS9_IcEEEEiNS_4lessISI_EENS9_INS_4pairIKSI_iEEEEEEiiENS_17reference_wrapperISB_EENST_ISP_EEiiEEERNS_13tuple_elementIXT_ENS_5tupleIJDpT0_EEEE4typeERS10_, symObjAddr: 0x1D9E0, symBinAddr: 0x100021908, symSize: 0x28 }
  - { offsetInCU: 0x2A133, offset: 0x2A133, size: 0x8, addend: 0x0, symName: __ZNSt3__13getB8ue170006ILm5EJNS_10unique_ptrINS_15__thread_structENS_14default_deleteIS2_EEEEPFvRNS_6vectorIP4CellNS_9allocatorIS8_EEEERNS_3mapINS_12basic_stringIcNS_11char_traitsIcEENS9_IcEEEEiNS_4lessISI_EENS9_INS_4pairIKSI_iEEEEEEiiENS_17reference_wrapperISB_EENST_ISP_EEiiEEERNS_13tuple_elementIXT_ENS_5tupleIJDpT0_EEEE4typeERS10_, symObjAddr: 0x1DA08, symBinAddr: 0x100021930, symSize: 0x28 }
  - { offsetInCU: 0x2A18F, offset: 0x2A18F, size: 0x8, addend: 0x0, symName: __ZNSt3__119__allocate_at_leastB8ue170006INS_9allocatorINS_6threadEEEEENS_19__allocation_resultINS_16allocator_traitsIT_E7pointerEEERS6_m, symObjAddr: 0x1E2A8, symBinAddr: 0x1000221D0, symSize: 0x40 }
  - { offsetInCU: 0x2A1D2, offset: 0x2A1D2, size: 0x8, addend: 0x0, symName: __ZNSt3__142__uninitialized_allocator_move_if_noexceptB8ue170006INS_9allocatorINS_6threadEEENS_16reverse_iteratorIPS2_EES6_S6_EET2_RT_T0_T1_S7_, symObjAddr: 0x1E45C, symBinAddr: 0x100022384, symSize: 0x12C }
  - { offsetInCU: 0x2A272, offset: 0x2A272, size: 0x8, addend: 0x0, symName: __ZNSt3__14swapB8ue170006IPNS_6threadEEENS_9enable_ifIXaasr21is_move_constructibleIT_EE5valuesr18is_move_assignableIS4_EE5valueEvE4typeERS4_S7_, symObjAddr: 0x1E5D4, symBinAddr: 0x1000224FC, symSize: 0x3C }
  - { offsetInCU: 0x2A2C3, offset: 0x2A2C3, size: 0x8, addend: 0x0, symName: __ZNSt3__122__make_exception_guardB8ue170006INS_29_AllocatorDestroyRangeReverseINS_9allocatorINS_6threadEEENS_16reverse_iteratorIPS3_EEEEEENS_28__exception_guard_exceptionsIT_EESA_, symObjAddr: 0x1E6BC, symBinAddr: 0x1000225E4, symSize: 0x4C }
  - { offsetInCU: 0x2A2F9, offset: 0x2A2F9, size: 0x8, addend: 0x0, symName: __ZNSt3__1neB8ue170006IPNS_6threadES2_EEbRKNS_16reverse_iteratorIT_EERKNS3_IT0_EE, symObjAddr: 0x1E74C, symBinAddr: 0x100022674, symSize: 0x48 }
  - { offsetInCU: 0x2A345, offset: 0x2A345, size: 0x8, addend: 0x0, symName: __ZNSt3__112__to_addressB8ue170006INS_16reverse_iteratorIPNS_6threadEEEvEEu7__decayIDTclsr19__to_address_helperIT_EE6__callclsr3stdE7declvalIRKS5_EEEEES7_, symObjAddr: 0x1E7C8, symBinAddr: 0x1000226F0, symSize: 0x24 }
  - { offsetInCU: 0x2A3A4, offset: 0x2A3A4, size: 0x8, addend: 0x0, symName: __ZNSt3__119__allocator_destroyB8ue170006INS_9allocatorINS_6threadEEENS_16reverse_iteratorINS4_IPS2_EEEES7_EEvRT_T0_T1_, symObjAddr: 0x1EB08, symBinAddr: 0x100022A30, symSize: 0x70 }
  - { offsetInCU: 0x2A409, offset: 0x2A409, size: 0x8, addend: 0x0, symName: __ZNSt3__1neB8ue170006INS_16reverse_iteratorIPNS_6threadEEES4_EEbRKNS1_IT_EERKNS1_IT0_EE, symObjAddr: 0x1EBB4, symBinAddr: 0x100022ADC, symSize: 0x60 }
  - { offsetInCU: 0x2A455, offset: 0x2A455, size: 0x8, addend: 0x0, symName: __ZNSt3__112__to_addressB8ue170006INS_16reverse_iteratorINS1_IPNS_6threadEEEEEvEEu7__decayIDTclsr19__to_address_helperIT_EE6__callclsr3stdE7declvalIRKS6_EEEEES8_, symObjAddr: 0x1EC14, symBinAddr: 0x100022B3C, symSize: 0x24 }
  - { offsetInCU: 0x2A4B4, offset: 0x2A4B4, size: 0x8, addend: 0x0, symName: __ZNSt3__1neB8ue170006ERKNS_21__tree_const_iteratorINS_12__value_typeINS_12basic_stringIcNS_11char_traitsIcEENS_9allocatorIcEEEEiEEPNS_11__tree_nodeIS8_PvEElEESF_, symObjAddr: 0x1F1A8, symBinAddr: 0x1000230D0, symSize: 0x34 }
  - { offsetInCU: 0x2A4F1, offset: 0x2A4F1, size: 0x8, addend: 0x0, symName: __ZNSt3__1eqB8ue170006ERKNS_21__tree_const_iteratorINS_12__value_typeINS_12basic_stringIcNS_11char_traitsIcEENS_9allocatorIcEEEEiEEPNS_11__tree_nodeIS8_PvEElEESF_, symObjAddr: 0x1F1DC, symBinAddr: 0x100023104, symSize: 0x30 }
  - { offsetInCU: 0x2A561, offset: 0x2A561, size: 0x8, addend: 0x0, symName: __ZNSt3__122__make_exception_guardB8ue170006INS_6vectorINS1_IP4CellNS_9allocatorIS3_EEEENS4_IS6_EEE16__destroy_vectorEEENS_28__exception_guard_exceptionsIT_EESB_, symObjAddr: 0x1F718, symBinAddr: 0x100023640, symSize: 0x40 }
  - { offsetInCU: 0x2A596, offset: 0x2A596, size: 0x8, addend: 0x0, symName: __ZNSt3__119__allocate_at_leastB8ue170006INS_9allocatorINS_6vectorIP4CellNS1_IS4_EEEEEEEENS_19__allocation_resultINS_16allocator_traitsIT_E7pointerEEERSA_m, symObjAddr: 0x1FB0C, symBinAddr: 0x100023A34, symSize: 0x40 }
  - { offsetInCU: 0x2A5D9, offset: 0x2A5D9, size: 0x8, addend: 0x0, symName: __ZNSt3__112__to_addressB8ue170006INS_6vectorIP4CellNS_9allocatorIS3_EEEEEEPT_S8_, symObjAddr: 0x1FE54, symBinAddr: 0x100023D7C, symSize: 0x14 }
  - { offsetInCU: 0x2A60E, offset: 0x2A60E, size: 0x8, addend: 0x0, symName: __ZNSt3__17getlineB8ue170006IcNS_11char_traitsIcEENS_9allocatorIcEEEERNS_13basic_istreamIT_T0_EES9_RNS_12basic_stringIS6_S7_T1_EES6_, symObjAddr: 0x20418, symBinAddr: 0x100024340, symSize: 0x238 }
  - { offsetInCU: 0x2A6CC, offset: 0x2A6CC, size: 0x8, addend: 0x0, symName: __ZNSt3__1neB8ue170006IPcEEbRKNS_11__wrap_iterIT_EES6_, symObjAddr: 0x20C4C, symBinAddr: 0x100024B74, symSize: 0x34 }
  - { offsetInCU: 0x2A70F, offset: 0x2A70F, size: 0x8, addend: 0x0, symName: __ZNSt3__1eqB8ue170006IPcEEbRKNS_11__wrap_iterIT_EES6_, symObjAddr: 0x20CB8, symBinAddr: 0x100024BE0, symSize: 0x48 }
  - { offsetInCU: 0x2A752, offset: 0x2A752, size: 0x8, addend: 0x0, symName: __ZNSt3__116forward_as_tupleB8ue170006IJiEEENS_5tupleIJDpOT_EEES4_, symObjAddr: 0x21830, symBinAddr: 0x100025758, symSize: 0x2C }
  - { offsetInCU: 0x2A7A9, offset: 0x2A7A9, size: 0x8, addend: 0x0, symName: __ZNSt3__13getB8ue170006ILm0EJOiEEERNS_13tuple_elementIXT_ENS_5tupleIJDpT0_EEEE4typeERS6_, symObjAddr: 0x22294, symBinAddr: 0x1000261BC, symSize: 0x24 }
  - { offsetInCU: 0x2A834, offset: 0x2A834, size: 0x8, addend: 0x0, symName: __ZNSt3__18distanceB8ue170006INS_14__map_iteratorINS_15__tree_iteratorINS_12__value_typeIiiEEPNS_11__tree_nodeIS4_PvEElEEEEEENS_15iterator_traitsIT_E15difference_typeESC_SC_, symObjAddr: 0x22858, symBinAddr: 0x100026780, symSize: 0x3C }
  - { offsetInCU: 0x2A877, offset: 0x2A877, size: 0x8, addend: 0x0, symName: __ZNSt3__110__distanceB8ue170006INS_14__map_iteratorINS_15__tree_iteratorINS_12__value_typeIiiEEPNS_11__tree_nodeIS4_PvEElEEEEEENS_15iterator_traitsIT_E15difference_typeESC_SC_NS_18input_iterator_tagE, symObjAddr: 0x22A24, symBinAddr: 0x10002694C, symSize: 0x5C }
  - { offsetInCU: 0x2A8D2, offset: 0x2A8D2, size: 0x8, addend: 0x0, symName: __ZNSt3__1neB8ue170006ERKNS_14__map_iteratorINS_15__tree_iteratorINS_12__value_typeIiiEEPNS_11__tree_nodeIS3_PvEElEEEESB_, symObjAddr: 0x22A80, symBinAddr: 0x1000269A8, symSize: 0x30 }
  - { offsetInCU: 0x2A90F, offset: 0x2A90F, size: 0x8, addend: 0x0, symName: __ZNSt3__1neB8ue170006ERKNS_15__tree_iteratorINS_12__value_typeIiiEEPNS_11__tree_nodeIS2_PvEElEES9_, symObjAddr: 0x22ADC, symBinAddr: 0x100026A04, symSize: 0x34 }
  - { offsetInCU: 0x2A94C, offset: 0x2A94C, size: 0x8, addend: 0x0, symName: __ZNSt3__1eqB8ue170006ERKNS_15__tree_iteratorINS_12__value_typeIiiEEPNS_11__tree_nodeIS2_PvEElEES9_, symObjAddr: 0x22B10, symBinAddr: 0x100026A38, symSize: 0x30 }
  - { offsetInCU: 0x2A989, offset: 0x2A989, size: 0x8, addend: 0x0, symName: __ZNSt3__122__make_exception_guardB8ue170006INS_6vectorINS_4pairIiiEENS_9allocatorIS3_EEE16__destroy_vectorEEENS_28__exception_guard_exceptionsIT_EES9_, symObjAddr: 0x22B78, symBinAddr: 0x100026AA0, symSize: 0x40 }
  - { offsetInCU: 0x2A9BE, offset: 0x2A9BE, size: 0x8, addend: 0x0, symName: __ZNSt3__119__allocate_at_leastB8ue170006INS_9allocatorINS_4pairIiiEEEEEENS_19__allocation_resultINS_16allocator_traitsIT_E7pointerEEERS7_m, symObjAddr: 0x22E70, symBinAddr: 0x100026D98, symSize: 0x40 }
  - { offsetInCU: 0x2AA01, offset: 0x2AA01, size: 0x8, addend: 0x0, symName: __ZNSt3__112__to_addressB8ue170006INS_4pairIiiEEEEPT_S4_, symObjAddr: 0x23194, symBinAddr: 0x1000270BC, symSize: 0x14 }
  - { offsetInCU: 0x2AA36, offset: 0x2AA36, size: 0x8, addend: 0x0, symName: __ZNSt3__130__uninitialized_allocator_copyB8ue170006INS_9allocatorINS_4pairIiiEEEENS_14__map_iteratorINS_15__tree_iteratorINS_12__value_typeIiiEEPNS_11__tree_nodeIS8_PvEElEEEESE_PS3_EET2_RT_T0_T1_SG_, symObjAddr: 0x23244, symBinAddr: 0x10002716C, symSize: 0x90 }
  - { offsetInCU: 0x2AAD3, offset: 0x2AAD3, size: 0x8, addend: 0x0, symName: __ZNSt3__114__unwrap_rangeB8ue170006INS_14__map_iteratorINS_15__tree_iteratorINS_12__value_typeIiiEEPNS_11__tree_nodeIS4_PvEElEEEESA_EENS_4pairIT0_SC_EET_SE_, symObjAddr: 0x23344, symBinAddr: 0x10002726C, symSize: 0x70 }
  - { offsetInCU: 0x2AB1F, offset: 0x2AB1F, size: 0x8, addend: 0x0, symName: __ZNSt3__135__uninitialized_allocator_copy_implB8ue170006INS_9allocatorINS_4pairIiiEEEENS_14__map_iteratorINS_15__tree_iteratorINS_12__value_typeIiiEEPNS_11__tree_nodeIS8_PvEElEEEESE_PS3_EET2_RT_T0_T1_SG_, symObjAddr: 0x233B4, symBinAddr: 0x1000272DC, symSize: 0x110 }
  - { offsetInCU: 0x2ABBD, offset: 0x2ABBD, size: 0x8, addend: 0x0, symName: __ZNSt3__113__unwrap_iterB8ue170006IPNS_4pairIiiEENS_18__unwrap_iter_implIS3_Lb1EEELi0EEEDTclsrT0_8__unwrapclsr3stdE7declvalIT_EEEES7_, symObjAddr: 0x234C4, symBinAddr: 0x1000273EC, symSize: 0x24 }
  - { offsetInCU: 0x2AC01, offset: 0x2AC01, size: 0x8, addend: 0x0, symName: __ZNSt3__113__rewrap_iterB8ue170006IPNS_4pairIiiEES3_NS_18__unwrap_iter_implIS3_Lb1EEEEET_S6_T0_, symObjAddr: 0x234E8, symBinAddr: 0x100027410, symSize: 0x3C }
  - { offsetInCU: 0x2AC56, offset: 0x2AC56, size: 0x8, addend: 0x0, symName: __ZNSt3__19make_pairB8ue170006INS_14__map_iteratorINS_15__tree_iteratorINS_12__value_typeIiiEEPNS_11__tree_nodeIS4_PvEElEEEESA_EENS_4pairINS_18__unwrap_ref_decayIT_E4typeENSC_IT0_E4typeEEEOSD_OSG_, symObjAddr: 0x23524, symBinAddr: 0x10002744C, symSize: 0x38 }
  - { offsetInCU: 0x2ACA5, offset: 0x2ACA5, size: 0x8, addend: 0x0, symName: __ZNSt3__113__unwrap_iterB8ue170006INS_14__map_iteratorINS_15__tree_iteratorINS_12__value_typeIiiEEPNS_11__tree_nodeIS4_PvEElEEEENS_18__unwrap_iter_implISA_Lb0EEELi0EEEDTclsrT0_8__unwrapclsr3stdE7declvalIT_EEEESE_, symObjAddr: 0x2355C, symBinAddr: 0x100027484, symSize: 0x34 }
  - { offsetInCU: 0x2AD31, offset: 0x2AD31, size: 0x8, addend: 0x0, symName: __ZNSt3__122__make_exception_guardB8ue170006INS_29_AllocatorDestroyRangeReverseINS_9allocatorINS_4pairIiiEEEEPS4_EEEENS_28__exception_guard_exceptionsIT_EES9_, symObjAddr: 0x2361C, symBinAddr: 0x100027544, symSize: 0x4C }
  - { offsetInCU: 0x2AD67, offset: 0x2AD67, size: 0x8, addend: 0x0, symName: __ZNSt3__119__allocator_destroyB8ue170006INS_9allocatorINS_4pairIiiEEEENS_16reverse_iteratorIPS3_EES7_EEvRT_T0_T1_, symObjAddr: 0x23938, symBinAddr: 0x100027860, symSize: 0x70 }
  - { offsetInCU: 0x2ADCA, offset: 0x2ADCA, size: 0x8, addend: 0x0, symName: __ZNSt3__1neB8ue170006IPNS_4pairIiiEES3_EEbRKNS_16reverse_iteratorIT_EERKNS4_IT0_EE, symObjAddr: 0x239DC, symBinAddr: 0x100027904, symSize: 0x48 }
  - { offsetInCU: 0x2AE16, offset: 0x2AE16, size: 0x8, addend: 0x0, symName: __ZNSt3__112__to_addressB8ue170006INS_16reverse_iteratorIPNS_4pairIiiEEEEvEEu7__decayIDTclsr19__to_address_helperIT_EE6__callclsr3stdE7declvalIRKS6_EEEEES8_, symObjAddr: 0x23A50, symBinAddr: 0x100027978, symSize: 0x24 }
  - { offsetInCU: 0x2AEC8, offset: 0x2AEC8, size: 0x8, addend: 0x0, symName: '__ZNSt3__111__sort_implB8ue170006INS_17_ClassicAlgPolicyENS_11__wrap_iterIPNS_4pairIiiEEEEZ4mainE3$_0EEvT0_S8_RT1_', symObjAddr: 0x23FAC, symBinAddr: 0x100027ED4, symSize: 0xA8 }
  - { offsetInCU: 0x2AF2B, offset: 0x2AF2B, size: 0x8, addend: 0x0, symName: __ZNSt3__123__debug_randomize_rangeB8ue170006INS_17_ClassicAlgPolicyENS_11__wrap_iterIPNS_4pairIiiEEEES6_EEvT0_T1_, symObjAddr: 0x24054, symBinAddr: 0x100027F7C, symSize: 0x14 }
  - { offsetInCU: 0x2AF7C, offset: 0x2AF7C, size: 0x8, addend: 0x0, symName: '__ZNSt3__115__sort_dispatchB8ue170006INS_17_ClassicAlgPolicyEPNS_4pairIiiEEZ4mainE3$_0EEvT0_S6_RT1_', symObjAddr: 0x24068, symBinAddr: 0x100027F90, symSize: 0x64 }
  - { offsetInCU: 0x2AFFA, offset: 0x2AFFA, size: 0x8, addend: 0x0, symName: __ZNSt3__113__unwrap_iterB8ue170006INS_11__wrap_iterIPNS_4pairIiiEEEENS_18__unwrap_iter_implIS5_Lb1EEELi0EEEDTclsrT0_8__unwrapclsr3stdE7declvalIT_EEEES9_, symObjAddr: 0x240CC, symBinAddr: 0x100027FF4, symSize: 0x2C }
  - { offsetInCU: 0x2B03F, offset: 0x2B03F, size: 0x8, addend: 0x0, symName: '__ZNSt3__135__check_strict_weak_ordering_sortedB8ue170006IPNS_4pairIiiEEZ4mainE3$_0EEvT_S5_RT0_', symObjAddr: 0x240F8, symBinAddr: 0x100028020, symSize: 0x18 }
  - { offsetInCU: 0x2B095, offset: 0x2B095, size: 0x8, addend: 0x0, symName: __ZNSt3__17__log2iB8ue170006IlEET_S1_, symObjAddr: 0x24110, symBinAddr: 0x100028038, symSize: 0x54 }
  - { offsetInCU: 0x2B0CC, offset: 0x2B0CC, size: 0x8, addend: 0x0, symName: __ZNSt3__112__libcpp_clzB8ue170006Em, symObjAddr: 0x245B0, symBinAddr: 0x1000284D8, symSize: 0x1C }
  - { offsetInCU: 0x2B0F8, offset: 0x2B0F8, size: 0x8, addend: 0x0, symName: '__ZNSt3__124__sort3_maybe_branchlessB8ue170006INS_17_ClassicAlgPolicyERZ4mainE3$_0PNS_4pairIiiEEEENS_9enable_ifIXntsr21__use_branchless_sortIT0_T1_EE5valueEvE4typeES9_S9_S9_S8_', symObjAddr: 0x24634, symBinAddr: 0x10002855C, symSize: 0x3C }
  - { offsetInCU: 0x2B169, offset: 0x2B169, size: 0x8, addend: 0x0, symName: '__ZNSt3__124__sort4_maybe_branchlessB8ue170006INS_17_ClassicAlgPolicyERZ4mainE3$_0PNS_4pairIiiEEEENS_9enable_ifIXntsr21__use_branchless_sortIT0_T1_EE5valueEvE4typeES9_S9_S9_S9_S8_', symObjAddr: 0x24670, symBinAddr: 0x100028598, symSize: 0x44 }
  - { offsetInCU: 0x2B1E8, offset: 0x2B1E8, size: 0x8, addend: 0x0, symName: '__ZNSt3__124__sort5_maybe_branchlessB8ue170006INS_17_ClassicAlgPolicyERZ4mainE3$_0PNS_4pairIiiEEEENS_9enable_ifIXntsr21__use_branchless_sortIT0_T1_EE5valueEvE4typeES9_S9_S9_S9_S9_S8_', symObjAddr: 0x246B4, symBinAddr: 0x1000285DC, symSize: 0x4C }
  - { offsetInCU: 0x2B275, offset: 0x2B275, size: 0x8, addend: 0x0, symName: '__ZNSt3__116__insertion_sortB8ue170006INS_17_ClassicAlgPolicyERZ4mainE3$_0PNS_4pairIiiEEEEvT1_S7_T0_', symObjAddr: 0x24700, symBinAddr: 0x100028628, symSize: 0x150 }
  - { offsetInCU: 0x2B338, offset: 0x2B338, size: 0x8, addend: 0x0, symName: '__ZNSt3__114__partial_sortB8ue170006INS_17_ClassicAlgPolicyERZ4mainE3$_0PNS_4pairIiiEES6_EET1_S7_S7_T2_RT0_', symObjAddr: 0x24970, symBinAddr: 0x100028898, symSize: 0x94 }
  - { offsetInCU: 0x2B3C0, offset: 0x2B3C0, size: 0x8, addend: 0x0, symName: '__ZNSt3__17__sort3B8ue170006INS_17_ClassicAlgPolicyERZ4mainE3$_0PNS_4pairIiiEEEEjT1_S7_S7_T0_', symObjAddr: 0x24A04, symBinAddr: 0x10002892C, symSize: 0x144 }
  - { offsetInCU: 0x2B43F, offset: 0x2B43F, size: 0x8, addend: 0x0, symName: __ZNSt3__19iter_swapB8ue170006IPNS_4pairIiiEES3_EEvT_T0_, symObjAddr: 0x255F4, symBinAddr: 0x10002951C, symSize: 0x2C }
  - { offsetInCU: 0x2B487, offset: 0x2B487, size: 0x8, addend: 0x0, symName: __ZNSt3__14swapB8ue170006IiiEENS_9enable_ifIXaasr14__is_swappableIT_EE5valuesr14__is_swappableIT0_EE5valueEvE4typeERNS_4pairIS2_S3_EES8_, symObjAddr: 0x25620, symBinAddr: 0x100029548, symSize: 0x2C }
  - { offsetInCU: 0x2B4D6, offset: 0x2B4D6, size: 0x8, addend: 0x0, symName: __ZNSt3__14swapB8ue170006IiEENS_9enable_ifIXaasr21is_move_constructibleIT_EE5valuesr18is_move_assignableIS2_EE5valueEvE4typeERS2_S5_, symObjAddr: 0x25690, symBinAddr: 0x1000295B8, symSize: 0x3C }
  - { offsetInCU: 0x2B527, offset: 0x2B527, size: 0x8, addend: 0x0, symName: '__ZNSt3__17__sort4B8ue170006INS_17_ClassicAlgPolicyERZ4mainE3$_0PNS_4pairIiiEEEEvT1_S7_S7_S7_T0_', symObjAddr: 0x256CC, symBinAddr: 0x1000295F4, symSize: 0xB8 }
  - { offsetInCU: 0x2B5A2, offset: 0x2B5A2, size: 0x8, addend: 0x0, symName: '__ZNSt3__17__sort5B8ue170006INS_17_ClassicAlgPolicyERZ4mainE3$_0PNS_4pairIiiEEEEvT1_S7_S7_S7_S7_T0_', symObjAddr: 0x25784, symBinAddr: 0x1000296AC, symSize: 0xE8 }
  - { offsetInCU: 0x2B64F, offset: 0x2B64F, size: 0x8, addend: 0x0, symName: __ZNSt3__123__debug_randomize_rangeB8ue170006INS_17_ClassicAlgPolicyEPNS_4pairIiiEES4_EEvT0_T1_, symObjAddr: 0x258E0, symBinAddr: 0x100029808, symSize: 0x14 }
  - { offsetInCU: 0x2B6A0, offset: 0x2B6A0, size: 0x8, addend: 0x0, symName: '__ZNSt3__119__partial_sort_implB8ue170006INS_17_ClassicAlgPolicyERZ4mainE3$_0PNS_4pairIiiEES6_EET1_S7_S7_T2_OT0_', symObjAddr: 0x258F4, symBinAddr: 0x10002981C, symSize: 0x110 }
  - { offsetInCU: 0x2B736, offset: 0x2B736, size: 0x8, addend: 0x0, symName: '__ZNSt3__111__make_heapB8ue170006INS_17_ClassicAlgPolicyERZ4mainE3$_0PNS_4pairIiiEEEEvT1_S7_OT0_', symObjAddr: 0x25A04, symBinAddr: 0x10002992C, symSize: 0xB8 }
  - { offsetInCU: 0x2B7D8, offset: 0x2B7D8, size: 0x8, addend: 0x0, symName: '__ZNSt3__111__sort_heapB8ue170006INS_17_ClassicAlgPolicyERZ4mainE3$_0PNS_4pairIiiEEEEvT1_S7_OT0_', symObjAddr: 0x25CC8, symBinAddr: 0x100029BF0, symSize: 0xA8 }
  - { offsetInCU: 0x2B87A, offset: 0x2B87A, size: 0x8, addend: 0x0, symName: '__ZNSt3__110__pop_heapB8ue170006INS_17_ClassicAlgPolicyEZ4mainE3$_0PNS_4pairIiiEEEEvT1_S6_RT0_NS_15iterator_traitsIS6_E15difference_typeE', symObjAddr: 0x25D70, symBinAddr: 0x100029C98, symSize: 0xF4 }
  - { offsetInCU: 0x2B92A, offset: 0x2B92A, size: 0x8, addend: 0x0, symName: '__ZNSt3__19__sift_upB8ue170006INS_17_ClassicAlgPolicyERZ4mainE3$_0PNS_4pairIiiEEEEvT1_S7_OT0_NS_15iterator_traitsIS7_E15difference_typeE', symObjAddr: 0x25F64, symBinAddr: 0x100029E8C, symSize: 0x11C }
  - { offsetInCU: 0x2B9DA, offset: 0x2B9DA, size: 0x8, addend: 0x0, symName: '__ZNSt3__122__populate_left_bitsetB8ue170006IRZ4mainE3$_0PNS_4pairIiiEES4_EEvT0_T_RT1_Ry', symObjAddr: 0x26080, symBinAddr: 0x100029FA8, symSize: 0xA8 }
  - { offsetInCU: 0x2BA95, offset: 0x2BA95, size: 0x8, addend: 0x0, symName: '__ZNSt3__123__populate_right_bitsetB8ue170006IRZ4mainE3$_0PNS_4pairIiiEES4_EEvT0_T_RT1_Ry', symObjAddr: 0x26128, symBinAddr: 0x10002A050, symSize: 0xA0 }
  - { offsetInCU: 0x2BB50, offset: 0x2BB50, size: 0x8, addend: 0x0, symName: __ZNSt3__117__swap_bitmap_posB8ue170006INS_17_ClassicAlgPolicyEPNS_4pairIiiEEEEvT0_S5_RyS6_, symObjAddr: 0x261C8, symBinAddr: 0x10002A0F0, symSize: 0x100 }
  - { offsetInCU: 0x2BBF1, offset: 0x2BBF1, size: 0x8, addend: 0x0, symName: '__ZNSt3__133__bitset_partition_partial_blocksB8ue170006INS_17_ClassicAlgPolicyERZ4mainE3$_0PNS_4pairIiiEES5_EEvRT1_S8_T0_RT2_RySC_', symObjAddr: 0x262C8, symBinAddr: 0x10002A1F0, symSize: 0x2E8 }
  - { offsetInCU: 0x2BD72, offset: 0x2BD72, size: 0x8, addend: 0x0, symName: __ZNSt3__19make_pairB8ue170006IRPNS_4pairIiiEERbEENS1_INS_18__unwrap_ref_decayIT_E4typeENS6_IT0_E4typeEEEOS7_OSA_, symObjAddr: 0x26790, symBinAddr: 0x10002A6B8, symSize: 0x38 }
  - { offsetInCU: 0x2BDC1, offset: 0x2BDC1, size: 0x8, addend: 0x0, symName: __ZNSt3__112__libcpp_ctzB8ue170006Ey, symObjAddr: 0x267C8, symBinAddr: 0x10002A6F0, symSize: 0x20 }
  - { offsetInCU: 0x2BDED, offset: 0x2BDED, size: 0x8, addend: 0x0, symName: __ZNSt3__113__libcpp_blsrB8ue170006Ey, symObjAddr: 0x267E8, symBinAddr: 0x10002A710, symSize: 0x2C }
  - { offsetInCU: 0x2BE19, offset: 0x2BE19, size: 0x8, addend: 0x0, symName: __ZNSt3__112__libcpp_clzB8ue170006Ey, symObjAddr: 0x26848, symBinAddr: 0x10002A770, symSize: 0x1C }
  - { offsetInCU: 0x2BF6C, offset: 0x2BF6C, size: 0x8, addend: 0x0, symName: __ZNSt3__112__to_addressB8ue170006INS_11__wrap_iterIPNS_4pairIiiEEEEvEEu7__decayIDTclsr19__to_address_helperIT_EE6__callclsr3stdE7declvalIRKS6_EEEEES8_, symObjAddr: 0x26900, symBinAddr: 0x10002A828, symSize: 0x24 }
  - { offsetInCU: 0x2C89C, offset: 0x2C89C, size: 0x8, addend: 0x0, symName: __ZSt28__throw_bad_array_new_lengthB8ue170006v, symObjAddr: 0xA7A8, symBinAddr: 0x10000E6D0, symSize: 0x34 }
  - { offsetInCU: 0x2D4E2, offset: 0x2D4E2, size: 0x8, addend: 0x0, symName: _g_init, symObjAddr: 0x172298, symBinAddr: 0x100040038, symSize: 0x0 }
  - { offsetInCU: 0x2DB32, offset: 0x2DB32, size: 0x8, addend: 0x0, symName: __ZN4Cell3rngE, symObjAddr: 0x1722E8, symBinAddr: 0x100040088, symSize: 0x0 }
  - { offsetInCU: 0x2E64A, offset: 0x2E64A, size: 0x8, addend: 0x0, symName: __ZN4Cell4distE, symObjAddr: 0x172CB0, symBinAddr: 0x100040A50, symSize: 0x0 }
  - { offsetInCU: 0x2E65E, offset: 0x2E65E, size: 0x8, addend: 0x0, symName: __ZN4Cell6nextIdE, symObjAddr: 0x172CC0, symBinAddr: 0x100040A60, symSize: 0x0 }
  - { offsetInCU: 0x2E672, offset: 0x2E672, size: 0x8, addend: 0x0, symName: __ZN4Cell19cell_cycle_durationE, symObjAddr: 0x27918, symBinAddr: 0x100040000, symSize: 0x0 }
  - { offsetInCU: 0x2E68B, offset: 0x2E68B, size: 0x8, addend: 0x0, symName: _mrna_half_life, symObjAddr: 0x27920, symBinAddr: 0x100040008, symSize: 0x0 }
  - { offsetInCU: 0x2E6A0, offset: 0x2E6A0, size: 0x8, addend: 0x0, symName: _mrna_amplification, symObjAddr: 0x27928, symBinAddr: 0x100040010, symSize: 0x0 }
  - { offsetInCU: 0x2E6B5, offset: 0x2E6B5, size: 0x8, addend: 0x0, symName: _mrna_degradation, symObjAddr: 0x27930, symBinAddr: 0x100040018, symSize: 0x0 }
  - { offsetInCU: 0x2EB80, offset: 0x2EB80, size: 0x8, addend: 0x0, symName: __ZNSt3__16vectorINS_12basic_stringIcNS_11char_traitsIcEENS_9allocatorIcEEEENS4_IS6_EEE26__swap_out_circular_bufferERNS_14__split_bufferIS6_RS7_EE, symObjAddr: 0x106AC, symBinAddr: 0x1000145D4, symSize: 0x110 }
  - { offsetInCU: 0x2F43F, offset: 0x2F43F, size: 0x8, addend: 0x0, symName: __ZNSt3__16vectorIP4CellNS_9allocatorIS2_EEE26__swap_out_circular_bufferERNS_14__split_bufferIS2_RS4_EE, symObjAddr: 0x183A4, symBinAddr: 0x10001C2CC, symSize: 0x110 }
  - { offsetInCU: 0x2FCF1, offset: 0x2FCF1, size: 0x8, addend: 0x0, symName: __ZNSt3__16vectorINS_6threadENS_9allocatorIS1_EEE26__swap_out_circular_bufferERNS_14__split_bufferIS1_RS3_EE, symObjAddr: 0x1DF48, symBinAddr: 0x100021E70, symSize: 0x110 }
  - { offsetInCU: 0x30BF7, offset: 0x30BF7, size: 0x8, addend: 0x0, symName: __Z7isdigiti, symObjAddr: 0x75D4, symBinAddr: 0x10000B4FC, symSize: 0x28 }
  - { offsetInCU: 0x3277A, offset: 0x3277A, size: 0x8, addend: 0x0, symName: __ZNSt3__13mapINS_12basic_stringIcNS_11char_traitsIcEENS_9allocatorIcEEEENS0_IS6_fNS_4lessIS6_EENS4_INS_4pairIKS6_fEEEEEES8_NS4_INS9_ISA_SD_EEEEEC1B8ue170006Ev, symObjAddr: 0x0, symBinAddr: 0x100003F28, symSize: 0x2C }
  - { offsetInCU: 0x327A4, offset: 0x327A4, size: 0x8, addend: 0x0, symName: __ZNSt3__13mapINS_12basic_stringIcNS_11char_traitsIcEENS_9allocatorIcEEEENS0_IS6_fNS_4lessIS6_EENS4_INS_4pairIKS6_fEEEEEES8_NS4_INS9_ISA_SD_EEEEED1B8ue170006Ev, symObjAddr: 0x2C, symBinAddr: 0x100003F54, symSize: 0x2C }
  - { offsetInCU: 0x327CE, offset: 0x327CE, size: 0x8, addend: 0x0, symName: __ZN4InitC1Ev, symObjAddr: 0x58, symBinAddr: 0x100003F80, symSize: 0x2C }
  - { offsetInCU: 0x327FA, offset: 0x327FA, size: 0x8, addend: 0x0, symName: __ZN4InitD1Ev, symObjAddr: 0x84, symBinAddr: 0x100003FAC, symSize: 0x2C }
  - { offsetInCU: 0x32844, offset: 0x32844, size: 0x8, addend: 0x0, symName: __ZNSt3__113random_deviceC1B8ue170006Ev, symObjAddr: 0xB0, symBinAddr: 0x100003FD8, symSize: 0x74 }
  - { offsetInCU: 0x3286E, offset: 0x3286E, size: 0x8, addend: 0x0, symName: __ZNSt3__123mersenne_twister_engineIjLm32ELm624ELm397ELm31ELj2567483615ELm11ELj4294967295ELm7ELj2636928640ELm15ELj4022730752ELm18ELj1812433253EEC1B8ue170006Ej, symObjAddr: 0x124, symBinAddr: 0x10000404C, symSize: 0x34 }
  - { offsetInCU: 0x328A6, offset: 0x328A6, size: 0x8, addend: 0x0, symName: __ZNSt3__125uniform_real_distributionIdEC1B8ue170006Edd, symObjAddr: 0x158, symBinAddr: 0x100004080, symSize: 0x3C }
  - { offsetInCU: 0x328EB, offset: 0x328EB, size: 0x8, addend: 0x0, symName: __Z22outputCellTypesAndMRNARKNSt3__16vectorINS0_IP4CellNS_9allocatorIS2_EEEENS3_IS5_EEEERK4InitRKNS_12basic_stringIcNS_11char_traitsIcEENS3_IcEEEE, symObjAddr: 0x194, symBinAddr: 0x1000040BC, symSize: 0x864 }
  - { offsetInCU: 0x32BB0, offset: 0x32BB0, size: 0x8, addend: 0x0, symName: __ZNSt3__113basic_ostreamIcNS_11char_traitsIcEEElsB8ue170006EPFRS3_S4_E, symObjAddr: 0xA8C, symBinAddr: 0x1000049B4, symSize: 0x2C }
  - { offsetInCU: 0x32C9A, offset: 0x32C9A, size: 0x8, addend: 0x0, symName: __ZNSt3__114basic_ofstreamIcNS_11char_traitsIcEEEC1ERKNS_12basic_stringIcS2_NS_9allocatorIcEEEEj, symObjAddr: 0xB10, symBinAddr: 0x100004A38, symSize: 0x16C }
  - { offsetInCU: 0x32CE4, offset: 0x32CE4, size: 0x8, addend: 0x0, symName: __ZNKSt3__114basic_ofstreamIcNS_11char_traitsIcEEE7is_openEv, symObjAddr: 0xC7C, symBinAddr: 0x100004BA4, symSize: 0x2C }
  - { offsetInCU: 0x32D0C, offset: 0x32D0C, size: 0x8, addend: 0x0, symName: __ZNSt3__16vectorINS_12basic_stringIcNS_11char_traitsIcEENS_9allocatorIcEEEENS4_IS6_EEEC1B8ue170006Ev, symObjAddr: 0xCA8, symBinAddr: 0x100004BD0, symSize: 0x2C }
  - { offsetInCU: 0x32D36, offset: 0x32D36, size: 0x8, addend: 0x0, symName: __ZNSt3__13mapINS_12basic_stringIcNS_11char_traitsIcEENS_9allocatorIcEEEENS0_IS6_fNS_4lessIS6_EENS4_INS_4pairIKS6_fEEEEEES8_NS4_INS9_ISA_SD_EEEEE5beginB8ue170006Ev, symObjAddr: 0xCD4, symBinAddr: 0x100004BFC, symSize: 0x38 }
  - { offsetInCU: 0x32D5C, offset: 0x32D5C, size: 0x8, addend: 0x0, symName: __ZNKSt3__114__map_iteratorINS_15__tree_iteratorINS_12__value_typeINS_12basic_stringIcNS_11char_traitsIcEENS_9allocatorIcEEEENS_3mapIS8_fNS_4lessIS8_EENS6_INS_4pairIKS8_fEEEEEEEEPNS_11__tree_nodeISH_PvEElEEEptB8ue170006Ev, symObjAddr: 0xD0C, symBinAddr: 0x100004C34, symSize: 0x2C }
  - { offsetInCU: 0x32D82, offset: 0x32D82, size: 0x8, addend: 0x0, symName: __ZNSt3__13mapINS_12basic_stringIcNS_11char_traitsIcEENS_9allocatorIcEEEEfNS_4lessIS6_EENS4_INS_4pairIKS6_fEEEEEC1B8ue170006ERKSD_, symObjAddr: 0xD38, symBinAddr: 0x100004C60, symSize: 0x34 }
  - { offsetInCU: 0x32DBB, offset: 0x32DBB, size: 0x8, addend: 0x0, symName: __ZNSt3__13mapINS_12basic_stringIcNS_11char_traitsIcEENS_9allocatorIcEEEEfNS_4lessIS6_EENS4_INS_4pairIKS6_fEEEEE5beginB8ue170006Ev, symObjAddr: 0xD6C, symBinAddr: 0x100004C94, symSize: 0x38 }
  - { offsetInCU: 0x32DE1, offset: 0x32DE1, size: 0x8, addend: 0x0, symName: __ZNSt3__13mapINS_12basic_stringIcNS_11char_traitsIcEENS_9allocatorIcEEEEfNS_4lessIS6_EENS4_INS_4pairIKS6_fEEEEE3endB8ue170006Ev, symObjAddr: 0xDA4, symBinAddr: 0x100004CCC, symSize: 0x38 }
  - { offsetInCU: 0x32E07, offset: 0x32E07, size: 0x8, addend: 0x0, symName: __ZNKSt3__114__map_iteratorINS_15__tree_iteratorINS_12__value_typeINS_12basic_stringIcNS_11char_traitsIcEENS_9allocatorIcEEEEfEEPNS_11__tree_nodeIS9_PvEElEEEdeB8ue170006Ev, symObjAddr: 0xE0C, symBinAddr: 0x100004D34, symSize: 0x28 }
  - { offsetInCU: 0x32E2D, offset: 0x32E2D, size: 0x8, addend: 0x0, symName: __ZNSt3__16vectorINS_12basic_stringIcNS_11char_traitsIcEENS_9allocatorIcEEEENS4_IS6_EEE9push_backB8ue170006ERKS6_, symObjAddr: 0xE34, symBinAddr: 0x100004D5C, symSize: 0x6C }
  - { offsetInCU: 0x32E64, offset: 0x32E64, size: 0x8, addend: 0x0, symName: __ZNSt3__114__map_iteratorINS_15__tree_iteratorINS_12__value_typeINS_12basic_stringIcNS_11char_traitsIcEENS_9allocatorIcEEEEfEEPNS_11__tree_nodeIS9_PvEElEEEppB8ue170006Ev, symObjAddr: 0xEA0, symBinAddr: 0x100004DC8, symSize: 0x2C }
  - { offsetInCU: 0x32E8A, offset: 0x32E8A, size: 0x8, addend: 0x0, symName: __ZNSt3__13mapINS_12basic_stringIcNS_11char_traitsIcEENS_9allocatorIcEEEENS0_IS6_fNS_4lessIS6_EENS4_INS_4pairIKS6_fEEEEEES8_NS4_INS9_ISA_SD_EEEEEixEOS6_, symObjAddr: 0xECC, symBinAddr: 0x100004DF4, symSize: 0x80 }
  - { offsetInCU: 0x32EC7, offset: 0x32EC7, size: 0x8, addend: 0x0, symName: __ZNSt3__112basic_stringIcNS_11char_traitsIcEENS_9allocatorIcEEEC1B8ue170006ILi0EEEPKc, symObjAddr: 0xF4C, symBinAddr: 0x100004E74, symSize: 0x34 }
  - { offsetInCU: 0x32F06, offset: 0x32F06, size: 0x8, addend: 0x0, symName: __ZNSt3__13mapINS_12basic_stringIcNS_11char_traitsIcEENS_9allocatorIcEEEEfNS_4lessIS6_EENS4_INS_4pairIKS6_fEEEEEaSB8ue170006ERKSD_, symObjAddr: 0xF80, symBinAddr: 0x100004EA8, symSize: 0x34 }
  - { offsetInCU: 0x32F3B, offset: 0x32F3B, size: 0x8, addend: 0x0, symName: __ZNKSt3__16vectorINS0_IP4CellNS_9allocatorIS2_EEEENS3_IS5_EEE5beginB8ue170006Ev, symObjAddr: 0xFB4, symBinAddr: 0x100004EDC, symSize: 0x30 }
  - { offsetInCU: 0x32F63, offset: 0x32F63, size: 0x8, addend: 0x0, symName: __ZNKSt3__16vectorINS0_IP4CellNS_9allocatorIS2_EEEENS3_IS5_EEE3endB8ue170006Ev, symObjAddr: 0xFE4, symBinAddr: 0x100004F0C, symSize: 0x30 }
  - { offsetInCU: 0x32F8B, offset: 0x32F8B, size: 0x8, addend: 0x0, symName: __ZNKSt3__111__wrap_iterIPKNS_6vectorIP4CellNS_9allocatorIS3_EEEEEdeB8ue170006Ev, symObjAddr: 0x1048, symBinAddr: 0x100004F70, symSize: 0x18 }
  - { offsetInCU: 0x32FB1, offset: 0x32FB1, size: 0x8, addend: 0x0, symName: __ZNKSt3__16vectorIP4CellNS_9allocatorIS2_EEE5beginB8ue170006Ev, symObjAddr: 0x1060, symBinAddr: 0x100004F88, symSize: 0x30 }
  - { offsetInCU: 0x32FD9, offset: 0x32FD9, size: 0x8, addend: 0x0, symName: __ZNKSt3__16vectorIP4CellNS_9allocatorIS2_EEE3endB8ue170006Ev, symObjAddr: 0x1090, symBinAddr: 0x100004FB8, symSize: 0x30 }
  - { offsetInCU: 0x33001, offset: 0x33001, size: 0x8, addend: 0x0, symName: __ZNKSt3__111__wrap_iterIPKP4CellEdeB8ue170006Ev, symObjAddr: 0x10F4, symBinAddr: 0x10000501C, symSize: 0x18 }
  - { offsetInCU: 0x33027, offset: 0x33027, size: 0x8, addend: 0x0, symName: __ZNK4Cell15getSimulateMRNAEv, symObjAddr: 0x110C, symBinAddr: 0x100005034, symSize: 0x1C }
  - { offsetInCU: 0x3304D, offset: 0x3304D, size: 0x8, addend: 0x0, symName: __ZNK4Cell8getStateEv, symObjAddr: 0x1128, symBinAddr: 0x100005050, symSize: 0x3C }
  - { offsetInCU: 0x33073, offset: 0x33073, size: 0x8, addend: 0x0, symName: __ZNK4Cell5getIdEv, symObjAddr: 0x1164, symBinAddr: 0x10000508C, symSize: 0x18 }
  - { offsetInCU: 0x33099, offset: 0x33099, size: 0x8, addend: 0x0, symName: __ZNK4Cell10getCloneIdEv, symObjAddr: 0x117C, symBinAddr: 0x1000050A4, symSize: 0x18 }
  - { offsetInCU: 0x330BF, offset: 0x330BF, size: 0x8, addend: 0x0, symName: __ZNK4Cell13getCycleStateEv, symObjAddr: 0x1194, symBinAddr: 0x1000050BC, symSize: 0x18 }
  - { offsetInCU: 0x330E5, offset: 0x330E5, size: 0x8, addend: 0x0, symName: __ZNSt3__13mapINS_12basic_stringIcNS_11char_traitsIcEENS_9allocatorIcEEEEiNS_4lessIS6_EENS4_INS_4pairIKS6_iEEEEEC1B8ue170006Ev, symObjAddr: 0x11AC, symBinAddr: 0x1000050D4, symSize: 0x2C }
  - { offsetInCU: 0x3310F, offset: 0x3310F, size: 0x8, addend: 0x0, symName: __ZNK4Cell11getMRNAListEv, symObjAddr: 0x11D8, symBinAddr: 0x100005100, symSize: 0x18 }
  - { offsetInCU: 0x33135, offset: 0x33135, size: 0x8, addend: 0x0, symName: __ZNKSt3__16vectorI4MRNANS_9allocatorIS1_EEE5beginB8ue170006Ev, symObjAddr: 0x11F0, symBinAddr: 0x100005118, symSize: 0x30 }
  - { offsetInCU: 0x3315D, offset: 0x3315D, size: 0x8, addend: 0x0, symName: __ZNKSt3__16vectorI4MRNANS_9allocatorIS1_EEE3endB8ue170006Ev, symObjAddr: 0x1220, symBinAddr: 0x100005148, symSize: 0x30 }
  - { offsetInCU: 0x33185, offset: 0x33185, size: 0x8, addend: 0x0, symName: __ZNKSt3__111__wrap_iterIPK4MRNAEdeB8ue170006Ev, symObjAddr: 0x1284, symBinAddr: 0x1000051AC, symSize: 0x18 }
  - { offsetInCU: 0x331AB, offset: 0x331AB, size: 0x8, addend: 0x0, symName: __ZNSt3__13mapINS_12basic_stringIcNS_11char_traitsIcEENS_9allocatorIcEEEEiNS_4lessIS6_EENS4_INS_4pairIKS6_iEEEEEixEOS6_, symObjAddr: 0x129C, symBinAddr: 0x1000051C4, symSize: 0x80 }
  - { offsetInCU: 0x331E2, offset: 0x331E2, size: 0x8, addend: 0x0, symName: __ZNK4MRNA7getNameEv, symObjAddr: 0x131C, symBinAddr: 0x100005244, symSize: 0x38 }
  - { offsetInCU: 0x33208, offset: 0x33208, size: 0x8, addend: 0x0, symName: __ZNSt3__111__wrap_iterIPK4MRNAEppB8ue170006Ev, symObjAddr: 0x1354, symBinAddr: 0x10000527C, symSize: 0x20 }
  - { offsetInCU: 0x3322E, offset: 0x3322E, size: 0x8, addend: 0x0, symName: __ZNSt3__16vectorINS_12basic_stringIcNS_11char_traitsIcEENS_9allocatorIcEEEENS4_IS6_EEE5beginB8ue170006Ev, symObjAddr: 0x1374, symBinAddr: 0x10000529C, symSize: 0x30 }
  - { offsetInCU: 0x33256, offset: 0x33256, size: 0x8, addend: 0x0, symName: __ZNSt3__16vectorINS_12basic_stringIcNS_11char_traitsIcEENS_9allocatorIcEEEENS4_IS6_EEE3endB8ue170006Ev, symObjAddr: 0x13A4, symBinAddr: 0x1000052CC, symSize: 0x30 }
  - { offsetInCU: 0x3327E, offset: 0x3327E, size: 0x8, addend: 0x0, symName: __ZNKSt3__111__wrap_iterIPNS_12basic_stringIcNS_11char_traitsIcEENS_9allocatorIcEEEEEdeB8ue170006Ev, symObjAddr: 0x1408, symBinAddr: 0x100005330, symSize: 0x18 }
  - { offsetInCU: 0x332A4, offset: 0x332A4, size: 0x8, addend: 0x0, symName: __ZNSt3__13mapINS_12basic_stringIcNS_11char_traitsIcEENS_9allocatorIcEEEEiNS_4lessIS6_EENS4_INS_4pairIKS6_iEEEEE4findB8ue170006ERSA_, symObjAddr: 0x1450, symBinAddr: 0x100005378, symSize: 0x40 }
  - { offsetInCU: 0x332D9, offset: 0x332D9, size: 0x8, addend: 0x0, symName: __ZNSt3__13mapINS_12basic_stringIcNS_11char_traitsIcEENS_9allocatorIcEEEEiNS_4lessIS6_EENS4_INS_4pairIKS6_iEEEEE3endB8ue170006Ev, symObjAddr: 0x1490, symBinAddr: 0x1000053B8, symSize: 0x38 }
  - { offsetInCU: 0x332FF, offset: 0x332FF, size: 0x8, addend: 0x0, symName: __ZNSt3__13mapINS_12basic_stringIcNS_11char_traitsIcEENS_9allocatorIcEEEEiNS_4lessIS6_EENS4_INS_4pairIKS6_iEEEEEixERSA_, symObjAddr: 0x14C8, symBinAddr: 0x1000053F0, symSize: 0x80 }
  - { offsetInCU: 0x33336, offset: 0x33336, size: 0x8, addend: 0x0, symName: __ZNSt3__111__wrap_iterIPNS_12basic_stringIcNS_11char_traitsIcEENS_9allocatorIcEEEEEppB8ue170006Ev, symObjAddr: 0x1548, symBinAddr: 0x100005470, symSize: 0x20 }
  - { offsetInCU: 0x3335C, offset: 0x3335C, size: 0x8, addend: 0x0, symName: __ZNSt3__13mapINS_12basic_stringIcNS_11char_traitsIcEENS_9allocatorIcEEEEiNS_4lessIS6_EENS4_INS_4pairIKS6_iEEEEED1B8ue170006Ev, symObjAddr: 0x1568, symBinAddr: 0x100005490, symSize: 0x2C }
  - { offsetInCU: 0x33386, offset: 0x33386, size: 0x8, addend: 0x0, symName: __ZNSt3__111__wrap_iterIPKP4CellEppB8ue170006Ev, symObjAddr: 0x1594, symBinAddr: 0x1000054BC, symSize: 0x20 }
  - { offsetInCU: 0x333AC, offset: 0x333AC, size: 0x8, addend: 0x0, symName: __ZNSt3__111__wrap_iterIPKNS_6vectorIP4CellNS_9allocatorIS3_EEEEEppB8ue170006Ev, symObjAddr: 0x15B4, symBinAddr: 0x1000054DC, symSize: 0x20 }
  - { offsetInCU: 0x333D2, offset: 0x333D2, size: 0x8, addend: 0x0, symName: __ZNSt3__114basic_ofstreamIcNS_11char_traitsIcEEE5closeEv, symObjAddr: 0x15D4, symBinAddr: 0x1000054FC, symSize: 0x58 }
  - { offsetInCU: 0x333FA, offset: 0x333FA, size: 0x8, addend: 0x0, symName: __ZNSt3__13mapINS_12basic_stringIcNS_11char_traitsIcEENS_9allocatorIcEEEEfNS_4lessIS6_EENS4_INS_4pairIKS6_fEEEEED1B8ue170006Ev, symObjAddr: 0x162C, symBinAddr: 0x100005554, symSize: 0x2C }
  - { offsetInCU: 0x33424, offset: 0x33424, size: 0x8, addend: 0x0, symName: __ZNSt3__16vectorINS_12basic_stringIcNS_11char_traitsIcEENS_9allocatorIcEEEENS4_IS6_EEED1B8ue170006Ev, symObjAddr: 0x1658, symBinAddr: 0x100005580, symSize: 0x2C }
  - { offsetInCU: 0x33454, offset: 0x33454, size: 0x8, addend: 0x0, symName: __ZNSt3__114basic_ofstreamIcNS_11char_traitsIcEEED1Ev, symObjAddr: 0x1684, symBinAddr: 0x1000055AC, symSize: 0x40 }
  - { offsetInCU: 0x33480, offset: 0x33480, size: 0x8, addend: 0x0, symName: __Z14simulate_rangeRNSt3__16vectorIP4CellNS_9allocatorIS2_EEEERNS_3mapINS_12basic_stringIcNS_11char_traitsIcEENS3_IcEEEEiNS_4lessISC_EENS3_INS_4pairIKSC_iEEEEEEii, symObjAddr: 0x16C4, symBinAddr: 0x1000055EC, symSize: 0x648 }
  - { offsetInCU: 0x33682, offset: 0x33682, size: 0x8, addend: 0x0, symName: __ZNSt3__13mapINS_12basic_stringIcNS_11char_traitsIcEENS_9allocatorIcEEEE8CellTypeNS_4lessIS6_EENS4_INS_4pairIKS6_S7_EEEEE5beginB8ue170006Ev, symObjAddr: 0x1D0C, symBinAddr: 0x100005C34, symSize: 0x38 }
  - { offsetInCU: 0x336A8, offset: 0x336A8, size: 0x8, addend: 0x0, symName: __ZNSt3__13mapINS_12basic_stringIcNS_11char_traitsIcEENS_9allocatorIcEEEE8CellTypeNS_4lessIS6_EENS4_INS_4pairIKS6_S7_EEEEE3endB8ue170006Ev, symObjAddr: 0x1D44, symBinAddr: 0x100005C6C, symSize: 0x38 }
  - { offsetInCU: 0x336CE, offset: 0x336CE, size: 0x8, addend: 0x0, symName: __ZNKSt3__114__map_iteratorINS_15__tree_iteratorINS_12__value_typeINS_12basic_stringIcNS_11char_traitsIcEENS_9allocatorIcEEEE8CellTypeEEPNS_11__tree_nodeISA_PvEElEEEdeB8ue170006Ev, symObjAddr: 0x1DAC, symBinAddr: 0x100005CD4, symSize: 0x28 }
  - { offsetInCU: 0x336F4, offset: 0x336F4, size: 0x8, addend: 0x0, symName: __ZNSt3__114__map_iteratorINS_15__tree_iteratorINS_12__value_typeINS_12basic_stringIcNS_11char_traitsIcEENS_9allocatorIcEEEE8CellTypeEEPNS_11__tree_nodeISA_PvEElEEEppB8ue170006Ev, symObjAddr: 0x1DD4, symBinAddr: 0x100005CFC, symSize: 0x2C }
  - { offsetInCU: 0x3371A, offset: 0x3371A, size: 0x8, addend: 0x0, symName: __ZNSt3__16vectorI4CellNS_9allocatorIS1_EEEC1B8ue170006Ev, symObjAddr: 0x1E00, symBinAddr: 0x100005D28, symSize: 0x2C }
  - { offsetInCU: 0x33744, offset: 0x33744, size: 0x8, addend: 0x0, symName: __ZNSt3__16vectorIP4CellNS_9allocatorIS2_EEE5beginB8ue170006Ev, symObjAddr: 0x1E2C, symBinAddr: 0x100005D54, symSize: 0x30 }
  - { offsetInCU: 0x3376C, offset: 0x3376C, size: 0x8, addend: 0x0, symName: __ZNSt3__16vectorIP4CellNS_9allocatorIS2_EEE3endB8ue170006Ev, symObjAddr: 0x1E5C, symBinAddr: 0x100005D84, symSize: 0x30 }
  - { offsetInCU: 0x33794, offset: 0x33794, size: 0x8, addend: 0x0, symName: __ZNKSt3__111__wrap_iterIPP4CellEdeB8ue170006Ev, symObjAddr: 0x1EC0, symBinAddr: 0x100005DE8, symSize: 0x18 }
  - { offsetInCU: 0x337BA, offset: 0x337BA, size: 0x8, addend: 0x0, symName: __ZNSt3__111__wrap_iterIPP4CellEppB8ue170006Ev, symObjAddr: 0x1ED8, symBinAddr: 0x100005E00, symSize: 0x20 }
  - { offsetInCU: 0x337E0, offset: 0x337E0, size: 0x8, addend: 0x0, symName: __ZNSt3__13mapINS_12basic_stringIcNS_11char_traitsIcEENS_9allocatorIcEEEEP4CellNS_4lessIS6_EENS4_INS_4pairIKS6_S8_EEEEEC1B8ue170006Ev, symObjAddr: 0x1EF8, symBinAddr: 0x100005E20, symSize: 0x2C }
  - { offsetInCU: 0x3380A, offset: 0x3380A, size: 0x8, addend: 0x0, symName: __ZNSt3__16vectorI4CellNS_9allocatorIS1_EEE5beginB8ue170006Ev, symObjAddr: 0x1F24, symBinAddr: 0x100005E4C, symSize: 0x30 }
  - { offsetInCU: 0x33832, offset: 0x33832, size: 0x8, addend: 0x0, symName: __ZNSt3__16vectorI4CellNS_9allocatorIS1_EEE3endB8ue170006Ev, symObjAddr: 0x1F88, symBinAddr: 0x100005EB0, symSize: 0x30 }
  - { offsetInCU: 0x3385A, offset: 0x3385A, size: 0x8, addend: 0x0, symName: __ZNKSt3__111__wrap_iterIP4CellEptB8ue170006Ev, symObjAddr: 0x1FB8, symBinAddr: 0x100005EE0, symSize: 0x28 }
  - { offsetInCU: 0x33880, offset: 0x33880, size: 0x8, addend: 0x0, symName: __ZNKSt3__112basic_stringIcNS_11char_traitsIcEENS_9allocatorIcEEE4findB8ue170006EPKcm, symObjAddr: 0x1FE0, symBinAddr: 0x100005F08, symSize: 0x74 }
  - { offsetInCU: 0x338C6, offset: 0x338C6, size: 0x8, addend: 0x0, symName: __ZNSt3__13mapINS_12basic_stringIcNS_11char_traitsIcEENS_9allocatorIcEEEE8CellTypeNS_4lessIS6_EENS4_INS_4pairIKS6_S7_EEEEEixERSB_, symObjAddr: 0x2054, symBinAddr: 0x100005F7C, symSize: 0x80 }
  - { offsetInCU: 0x338FD, offset: 0x338FD, size: 0x8, addend: 0x0, symName: __ZNK4Cell17getDuplicateCountEv, symObjAddr: 0x20D4, symBinAddr: 0x100005FFC, symSize: 0x18 }
  - { offsetInCU: 0x33923, offset: 0x33923, size: 0x8, addend: 0x0, symName: __ZNSt3__13mapINS_12basic_stringIcNS_11char_traitsIcEENS_9allocatorIcEEEEP4CellNS_4lessIS6_EENS4_INS_4pairIKS6_S8_EEEEE4findB8ue170006ERSC_, symObjAddr: 0x2248, symBinAddr: 0x100006170, symSize: 0x40 }
  - { offsetInCU: 0x33958, offset: 0x33958, size: 0x8, addend: 0x0, symName: __ZNSt3__13mapINS_12basic_stringIcNS_11char_traitsIcEENS_9allocatorIcEEEEP4CellNS_4lessIS6_EENS4_INS_4pairIKS6_S8_EEEEE3endB8ue170006Ev, symObjAddr: 0x22B8, symBinAddr: 0x1000061E0, symSize: 0x38 }
  - { offsetInCU: 0x3397E, offset: 0x3397E, size: 0x8, addend: 0x0, symName: __ZNK4Cell5cloneER4Init, symObjAddr: 0x22F0, symBinAddr: 0x100006218, symSize: 0x150 }
  - { offsetInCU: 0x339C0, offset: 0x339C0, size: 0x8, addend: 0x0, symName: __ZNSt3__16vectorIP4CellNS_9allocatorIS2_EEE12emplace_backIJRS2_EEEvDpOT_, symObjAddr: 0x2440, symBinAddr: 0x100006368, symSize: 0x6C }
  - { offsetInCU: 0x33A02, offset: 0x33A02, size: 0x8, addend: 0x0, symName: __ZNSt3__13mapINS_12basic_stringIcNS_11char_traitsIcEENS_9allocatorIcEEEEP4CellNS_4lessIS6_EENS4_INS_4pairIKS6_S8_EEEEEixERSC_, symObjAddr: 0x24AC, symBinAddr: 0x1000063D4, symSize: 0x80 }
  - { offsetInCU: 0x33A39, offset: 0x33A39, size: 0x8, addend: 0x0, symName: __ZNKSt3__114__map_iteratorINS_15__tree_iteratorINS_12__value_typeINS_12basic_stringIcNS_11char_traitsIcEENS_9allocatorIcEEEEP4CellEEPNS_11__tree_nodeISB_PvEElEEEptB8ue170006Ev, symObjAddr: 0x252C, symBinAddr: 0x100006454, symSize: 0x2C }
  - { offsetInCU: 0x33A5F, offset: 0x33A5F, size: 0x8, addend: 0x0, symName: __ZN4Cell19addToDuplicateCountEi, symObjAddr: 0x2558, symBinAddr: 0x100006480, symSize: 0x28 }
  - { offsetInCU: 0x33A93, offset: 0x33A93, size: 0x8, addend: 0x0, symName: __ZNSt3__13mapINS_12basic_stringIcNS_11char_traitsIcEENS_9allocatorIcEEEEP4CellNS_4lessIS6_EENS4_INS_4pairIKS6_S8_EEEEE5eraseB8ue170006ERSC_, symObjAddr: 0x2580, symBinAddr: 0x1000064A8, symSize: 0x2C }
  - { offsetInCU: 0x33ACE, offset: 0x33ACE, size: 0x8, addend: 0x0, symName: __ZNSt3__16vectorIP4CellNS_9allocatorIS2_EEE12emplace_backIJS2_EEEvDpOT_, symObjAddr: 0x25AC, symBinAddr: 0x1000064D4, symSize: 0x6C }
  - { offsetInCU: 0x33B10, offset: 0x33B10, size: 0x8, addend: 0x0, symName: __ZNSt3__111__wrap_iterIP4CellEppB8ue170006Ev, symObjAddr: 0x2618, symBinAddr: 0x100006540, symSize: 0x20 }
  - { offsetInCU: 0x33B36, offset: 0x33B36, size: 0x8, addend: 0x0, symName: __ZNSt3__16vectorI4CellNS_9allocatorIS1_EEE5clearB8ue170006Ev, symObjAddr: 0x2638, symBinAddr: 0x100006560, symSize: 0x44 }
  - { offsetInCU: 0x33B6B, offset: 0x33B6B, size: 0x8, addend: 0x0, symName: __ZN4CellD1Ev, symObjAddr: 0x267C, symBinAddr: 0x1000065A4, symSize: 0x2C }
  - { offsetInCU: 0x33B97, offset: 0x33B97, size: 0x8, addend: 0x0, symName: __ZNSt3__16vectorIP4CellNS_9allocatorIS2_EEE5eraseB8ue170006ENS_11__wrap_iterIPKS2_EE, symObjAddr: 0x26A8, symBinAddr: 0x1000065D0, symSize: 0x94 }
  - { offsetInCU: 0x33BF8, offset: 0x33BF8, size: 0x8, addend: 0x0, symName: __ZNSt3__111__wrap_iterIPKP4CellEC1B8ue170006IPS2_EERKNS0_IT_EEPNS_9enable_ifIXsr14is_convertibleIS8_S4_EE5valueEvE4typeE, symObjAddr: 0x273C, symBinAddr: 0x100006664, symSize: 0x3C }
  - { offsetInCU: 0x33C43, offset: 0x33C43, size: 0x8, addend: 0x0, symName: __ZNSt3__13mapINS_12basic_stringIcNS_11char_traitsIcEENS_9allocatorIcEEEEP4CellNS_4lessIS6_EENS4_INS_4pairIKS6_S8_EEEEED1B8ue170006Ev, symObjAddr: 0x2778, symBinAddr: 0x1000066A0, symSize: 0x2C }
  - { offsetInCU: 0x33C6D, offset: 0x33C6D, size: 0x8, addend: 0x0, symName: __ZNSt3__16vectorI4CellNS_9allocatorIS1_EEED1B8ue170006Ev, symObjAddr: 0x27A4, symBinAddr: 0x1000066CC, symSize: 0x2C }
  - { offsetInCU: 0x33C96, offset: 0x33C96, size: 0x8, addend: 0x0, symName: __Z13simulateCellsRNSt3__16vectorINS0_IP4CellNS_9allocatorIS2_EEEENS3_IS5_EEEEiii, symObjAddr: 0x27D0, symBinAddr: 0x1000066F8, symSize: 0x498 }
  - { offsetInCU: 0x33EDC, offset: 0x33EDC, size: 0x8, addend: 0x0, symName: __ZNSt3__16vectorINS_6threadENS_9allocatorIS1_EEEC1B8ue170006Ev, symObjAddr: 0x2C68, symBinAddr: 0x100006B90, symSize: 0x2C }
  - { offsetInCU: 0x33F06, offset: 0x33F06, size: 0x8, addend: 0x0, symName: __ZNSt3__16vectorINS_3mapINS_12basic_stringIcNS_11char_traitsIcEENS_9allocatorIcEEEEiNS_4lessIS7_EENS5_INS_4pairIKS7_iEEEEEENS5_ISE_EEEC1Em, symObjAddr: 0x2C94, symBinAddr: 0x100006BBC, symSize: 0x34 }
  - { offsetInCU: 0x33F41, offset: 0x33F41, size: 0x8, addend: 0x0, symName: __ZNKSt3__16vectorINS0_IP4CellNS_9allocatorIS2_EEEENS3_IS5_EEE4sizeB8ue170006Ev, symObjAddr: 0x2CC8, symBinAddr: 0x100006BF0, symSize: 0x28 }
  - { offsetInCU: 0x33F79, offset: 0x33F79, size: 0x8, addend: 0x0, symName: __ZNSt3__16vectorINS_6threadENS_9allocatorIS1_EEE12emplace_backIJRFvRNS0_IP4CellNS2_IS7_EEEERNS_3mapINS_12basic_stringIcNS_11char_traitsIcEENS2_IcEEEEiNS_4lessISG_EENS2_INS_4pairIKSG_iEEEEEEiiENS_17reference_wrapperIS9_EENSR_ISN_EERiSU_EEEvDpOT_, symObjAddr: 0x2CF0, symBinAddr: 0x100006C18, symSize: 0x9C }
  - { offsetInCU: 0x3400B, offset: 0x3400B, size: 0x8, addend: 0x0, symName: __ZNSt3__16vectorINS0_IP4CellNS_9allocatorIS2_EEEENS3_IS5_EEEixB8ue170006Em, symObjAddr: 0x2DB8, symBinAddr: 0x100006CE0, symSize: 0x2C }
  - { offsetInCU: 0x34042, offset: 0x34042, size: 0x8, addend: 0x0, symName: __ZNSt3__16vectorINS_3mapINS_12basic_stringIcNS_11char_traitsIcEENS_9allocatorIcEEEEiNS_4lessIS7_EENS5_INS_4pairIKS7_iEEEEEENS5_ISE_EEEixB8ue170006Em, symObjAddr: 0x2E10, symBinAddr: 0x100006D38, symSize: 0x2C }
  - { offsetInCU: 0x34079, offset: 0x34079, size: 0x8, addend: 0x0, symName: __ZNSt3__16vectorINS_6threadENS_9allocatorIS1_EEE5beginB8ue170006Ev, symObjAddr: 0x2E3C, symBinAddr: 0x100006D64, symSize: 0x30 }
  - { offsetInCU: 0x340A1, offset: 0x340A1, size: 0x8, addend: 0x0, symName: __ZNSt3__16vectorINS_6threadENS_9allocatorIS1_EEE3endB8ue170006Ev, symObjAddr: 0x2E6C, symBinAddr: 0x100006D94, symSize: 0x30 }
  - { offsetInCU: 0x340C9, offset: 0x340C9, size: 0x8, addend: 0x0, symName: __ZNKSt3__111__wrap_iterIPNS_6threadEEdeB8ue170006Ev, symObjAddr: 0x2ED0, symBinAddr: 0x100006DF8, symSize: 0x18 }
  - { offsetInCU: 0x340EF, offset: 0x340EF, size: 0x8, addend: 0x0, symName: __ZNSt3__111__wrap_iterIPNS_6threadEEppB8ue170006Ev, symObjAddr: 0x2EE8, symBinAddr: 0x100006E10, symSize: 0x20 }
  - { offsetInCU: 0x34115, offset: 0x34115, size: 0x8, addend: 0x0, symName: __ZNSt3__16vectorINS_3mapINS_12basic_stringIcNS_11char_traitsIcEENS_9allocatorIcEEEEiNS_4lessIS7_EENS5_INS_4pairIKS7_iEEEEEENS5_ISE_EEE5beginB8ue170006Ev, symObjAddr: 0x2F08, symBinAddr: 0x100006E30, symSize: 0x30 }
  - { offsetInCU: 0x3413D, offset: 0x3413D, size: 0x8, addend: 0x0, symName: __ZNSt3__16vectorINS_3mapINS_12basic_stringIcNS_11char_traitsIcEENS_9allocatorIcEEEEiNS_4lessIS7_EENS5_INS_4pairIKS7_iEEEEEENS5_ISE_EEE3endB8ue170006Ev, symObjAddr: 0x2F38, symBinAddr: 0x100006E60, symSize: 0x30 }
  - { offsetInCU: 0x34165, offset: 0x34165, size: 0x8, addend: 0x0, symName: __ZNKSt3__111__wrap_iterIPNS_3mapINS_12basic_stringIcNS_11char_traitsIcEENS_9allocatorIcEEEEiNS_4lessIS7_EENS5_INS_4pairIKS7_iEEEEEEEdeB8ue170006Ev, symObjAddr: 0x2F9C, symBinAddr: 0x100006EC4, symSize: 0x18 }
  - { offsetInCU: 0x3418B, offset: 0x3418B, size: 0x8, addend: 0x0, symName: __ZNKSt3__13mapINS_12basic_stringIcNS_11char_traitsIcEENS_9allocatorIcEEEEiNS_4lessIS6_EENS4_INS_4pairIKS6_iEEEEE5beginB8ue170006Ev, symObjAddr: 0x2FB4, symBinAddr: 0x100006EDC, symSize: 0x38 }
  - { offsetInCU: 0x341B1, offset: 0x341B1, size: 0x8, addend: 0x0, symName: __ZNKSt3__13mapINS_12basic_stringIcNS_11char_traitsIcEENS_9allocatorIcEEEEiNS_4lessIS6_EENS4_INS_4pairIKS6_iEEEEE3endB8ue170006Ev, symObjAddr: 0x2FEC, symBinAddr: 0x100006F14, symSize: 0x38 }
  - { offsetInCU: 0x341D7, offset: 0x341D7, size: 0x8, addend: 0x0, symName: __ZNKSt3__120__map_const_iteratorINS_21__tree_const_iteratorINS_12__value_typeINS_12basic_stringIcNS_11char_traitsIcEENS_9allocatorIcEEEEiEEPNS_11__tree_nodeIS9_PvEElEEEdeB8ue170006Ev, symObjAddr: 0x3054, symBinAddr: 0x100006F7C, symSize: 0x28 }
  - { offsetInCU: 0x341FD, offset: 0x341FD, size: 0x8, addend: 0x0, symName: __ZNSt3__120__map_const_iteratorINS_21__tree_const_iteratorINS_12__value_typeINS_12basic_stringIcNS_11char_traitsIcEENS_9allocatorIcEEEEiEEPNS_11__tree_nodeIS9_PvEElEEEppB8ue170006Ev, symObjAddr: 0x307C, symBinAddr: 0x100006FA4, symSize: 0x2C }
  - { offsetInCU: 0x34223, offset: 0x34223, size: 0x8, addend: 0x0, symName: __ZNSt3__111__wrap_iterIPNS_3mapINS_12basic_stringIcNS_11char_traitsIcEENS_9allocatorIcEEEEiNS_4lessIS7_EENS5_INS_4pairIKS7_iEEEEEEEppB8ue170006Ev, symObjAddr: 0x30A8, symBinAddr: 0x100006FD0, symSize: 0x20 }
  - { offsetInCU: 0x34249, offset: 0x34249, size: 0x8, addend: 0x0, symName: __ZNSt3__13mapINS_12basic_stringIcNS_11char_traitsIcEENS_9allocatorIcEEEEiNS_4lessIS6_EENS4_INS_4pairIKS6_iEEEEE5beginB8ue170006Ev, symObjAddr: 0x30C8, symBinAddr: 0x100006FF0, symSize: 0x38 }
  - { offsetInCU: 0x3426F, offset: 0x3426F, size: 0x8, addend: 0x0, symName: __ZNKSt3__114__map_iteratorINS_15__tree_iteratorINS_12__value_typeINS_12basic_stringIcNS_11char_traitsIcEENS_9allocatorIcEEEEiEEPNS_11__tree_nodeIS9_PvEElEEEdeB8ue170006Ev, symObjAddr: 0x3100, symBinAddr: 0x100007028, symSize: 0x28 }
  - { offsetInCU: 0x34295, offset: 0x34295, size: 0x8, addend: 0x0, symName: __ZNSt3__114__map_iteratorINS_15__tree_iteratorINS_12__value_typeINS_12basic_stringIcNS_11char_traitsIcEENS_9allocatorIcEEEEiEEPNS_11__tree_nodeIS9_PvEElEEEppB8ue170006Ev, symObjAddr: 0x3128, symBinAddr: 0x100007050, symSize: 0x2C }
  - { offsetInCU: 0x342BB, offset: 0x342BB, size: 0x8, addend: 0x0, symName: __ZNSt3__16vectorINS0_IP4CellNS_9allocatorIS2_EEEENS3_IS5_EEE5beginB8ue170006Ev, symObjAddr: 0x3154, symBinAddr: 0x10000707C, symSize: 0x30 }
  - { offsetInCU: 0x342E3, offset: 0x342E3, size: 0x8, addend: 0x0, symName: __ZNSt3__16vectorINS0_IP4CellNS_9allocatorIS2_EEEENS3_IS5_EEE3endB8ue170006Ev, symObjAddr: 0x3184, symBinAddr: 0x1000070AC, symSize: 0x30 }
  - { offsetInCU: 0x3430B, offset: 0x3430B, size: 0x8, addend: 0x0, symName: __ZNKSt3__111__wrap_iterIPNS_6vectorIP4CellNS_9allocatorIS3_EEEEEdeB8ue170006Ev, symObjAddr: 0x31E8, symBinAddr: 0x100007110, symSize: 0x18 }
  - { offsetInCU: 0x34331, offset: 0x34331, size: 0x8, addend: 0x0, symName: __ZNKSt3__16vectorIP4CellNS_9allocatorIS2_EEE4sizeB8ue170006Ev, symObjAddr: 0x3200, symBinAddr: 0x100007128, symSize: 0x28 }
  - { offsetInCU: 0x34357, offset: 0x34357, size: 0x8, addend: 0x0, symName: __ZNSt3__111__wrap_iterIPNS_6vectorIP4CellNS_9allocatorIS3_EEEEEppB8ue170006Ev, symObjAddr: 0x3228, symBinAddr: 0x100007150, symSize: 0x20 }
  - { offsetInCU: 0x3437D, offset: 0x3437D, size: 0x8, addend: 0x0, symName: __ZNSt3__16vectorINS_3mapINS_12basic_stringIcNS_11char_traitsIcEENS_9allocatorIcEEEEiNS_4lessIS7_EENS5_INS_4pairIKS7_iEEEEEENS5_ISE_EEED1B8ue170006Ev, symObjAddr: 0x3248, symBinAddr: 0x100007170, symSize: 0x2C }
  - { offsetInCU: 0x343A7, offset: 0x343A7, size: 0x8, addend: 0x0, symName: __ZNSt3__16vectorINS_6threadENS_9allocatorIS1_EEED1B8ue170006Ev, symObjAddr: 0x3274, symBinAddr: 0x10000719C, symSize: 0x2C }
  - { offsetInCU: 0x343D1, offset: 0x343D1, size: 0x8, addend: 0x0, symName: __Z12handleResizei, symObjAddr: 0x32A0, symBinAddr: 0x1000071C8, symSize: 0x10 }
  - { offsetInCU: 0x343F9, offset: 0x343F9, size: 0x8, addend: 0x0, symName: _main, symObjAddr: 0x32B0, symBinAddr: 0x1000071D8, symSize: 0x35C8 }
  - { offsetInCU: 0x34FAF, offset: 0x34FAF, size: 0x8, addend: 0x0, symName: __ZNSt3__112basic_stringIcNS_11char_traitsIcEENS_9allocatorIcEEEaSB8ue170006EPKc, symObjAddr: 0x6878, symBinAddr: 0x10000A7A0, symSize: 0x2C }
  - { offsetInCU: 0x34FE4, offset: 0x34FE4, size: 0x8, addend: 0x0, symName: __ZN4Init19initializeCellTypesENSt3__112basic_stringIcNS0_11char_traitsIcEENS0_9allocatorIcEEEE, symObjAddr: 0x6950, symBinAddr: 0x10000A878, symSize: 0x2C }
  - { offsetInCU: 0x35019, offset: 0x35019, size: 0x8, addend: 0x0, symName: __ZNKSt3__13mapINS_12basic_stringIcNS_11char_traitsIcEENS_9allocatorIcEEEE8CellTypeNS_4lessIS6_EENS4_INS_4pairIKS6_S7_EEEEE4sizeB8ue170006Ev, symObjAddr: 0x697C, symBinAddr: 0x10000A8A4, symSize: 0x28 }
  - { offsetInCU: 0x3503F, offset: 0x3503F, size: 0x8, addend: 0x0, symName: __ZNSt3__13mapINS_12basic_stringIcNS_11char_traitsIcEENS_9allocatorIcEEEENS0_IS6_fNS_4lessIS6_EENS4_INS_4pairIKS6_fEEEEEES8_NS4_INS9_ISA_SD_EEEEEaSB8ue170006EOSG_, symObjAddr: 0x69A4, symBinAddr: 0x10000A8CC, symSize: 0x34 }
  - { offsetInCU: 0x35074, offset: 0x35074, size: 0x8, addend: 0x0, symName: __ZNKSt3__13mapINS_12basic_stringIcNS_11char_traitsIcEENS_9allocatorIcEEEENS0_IS6_fNS_4lessIS6_EENS4_INS_4pairIKS6_fEEEEEES8_NS4_INS9_ISA_SD_EEEEE4sizeB8ue170006Ev, symObjAddr: 0x69D8, symBinAddr: 0x10000A900, symSize: 0x28 }
  - { offsetInCU: 0x3509A, offset: 0x3509A, size: 0x8, addend: 0x0, symName: __ZNSt3__16vectorINS0_IP4CellNS_9allocatorIS2_EEEENS3_IS5_EEEC1Em, symObjAddr: 0x6A00, symBinAddr: 0x10000A928, symSize: 0x34 }
  - { offsetInCU: 0x350D5, offset: 0x350D5, size: 0x8, addend: 0x0, symName: __ZNKSt3__13mapINS_12basic_stringIcNS_11char_traitsIcEENS_9allocatorIcEEEE8CellTypeNS_4lessIS6_EENS4_INS_4pairIKS6_S7_EEEEE5emptyB8ue170006Ev, symObjAddr: 0x6A34, symBinAddr: 0x10000A95C, symSize: 0x34 }
  - { offsetInCU: 0x350FB, offset: 0x350FB, size: 0x8, addend: 0x0, symName: __ZN4CellC1EiNSt3__112basic_stringIcNS0_11char_traitsIcEENS0_9allocatorIcEEEER4Init, symObjAddr: 0x6A68, symBinAddr: 0x10000A990, symSize: 0x44 }
  - { offsetInCU: 0x35150, offset: 0x35150, size: 0x8, addend: 0x0, symName: __ZNSt3__112basic_stringIcNS_11char_traitsIcEENS_9allocatorIcEEEC1B8ue170006Ev, symObjAddr: 0x6AAC, symBinAddr: 0x10000A9D4, symSize: 0x2C }
  - { offsetInCU: 0x35210, offset: 0x35210, size: 0x8, addend: 0x0, symName: __ZNSt3__114basic_ifstreamIcNS_11char_traitsIcEEEC1Ev, symObjAddr: 0x6AD8, symBinAddr: 0x10000AA00, symSize: 0xE8 }
  - { offsetInCU: 0x3523C, offset: 0x3523C, size: 0x8, addend: 0x0, symName: __ZNKSt3__112basic_stringIcNS_11char_traitsIcEENS_9allocatorIcEEE5emptyB8ue170006Ev, symObjAddr: 0x6BC0, symBinAddr: 0x10000AAE8, symSize: 0x30 }
  - { offsetInCU: 0x35262, offset: 0x35262, size: 0x8, addend: 0x0, symName: __ZNKSt3__19basic_iosIcNS_11char_traitsIcEEEcvbB8ue170006Ev, symObjAddr: 0x6BF0, symBinAddr: 0x10000AB18, symSize: 0x2C }
  - { offsetInCU: 0x35288, offset: 0x35288, size: 0x8, addend: 0x0, symName: __ZNKSt3__19basic_iosIcNS_11char_traitsIcEEEntB8ue170006Ev, symObjAddr: 0x6C78, symBinAddr: 0x10000ABA0, symSize: 0x28 }
  - { offsetInCU: 0x352AE, offset: 0x352AE, size: 0x8, addend: 0x0, symName: __ZNKSt3__112basic_stringIcNS_11char_traitsIcEENS_9allocatorIcEEE6lengthB8ue170006Ev, symObjAddr: 0x6CA0, symBinAddr: 0x10000ABC8, symSize: 0x24 }
  - { offsetInCU: 0x35334, offset: 0x35334, size: 0x8, addend: 0x0, symName: __ZNSt3__119basic_istringstreamIcNS_11char_traitsIcEENS_9allocatorIcEEEC1B8ue170006ERKNS_12basic_stringIcS2_S4_EEj, symObjAddr: 0x6CC4, symBinAddr: 0x10000ABEC, symSize: 0xFC }
  - { offsetInCU: 0x353B8, offset: 0x353B8, size: 0x8, addend: 0x0, symName: __ZNSt3__118basic_stringstreamIcNS_11char_traitsIcEENS_9allocatorIcEEEC1B8ue170006Ev, symObjAddr: 0x70C8, symBinAddr: 0x10000AFF0, symSize: 0x104 }
  - { offsetInCU: 0x353E2, offset: 0x353E2, size: 0x8, addend: 0x0, symName: __ZNKSt3__118basic_stringstreamIcNS_11char_traitsIcEENS_9allocatorIcEEE3strB8ue170006Ev, symObjAddr: 0x71CC, symBinAddr: 0x10000B0F4, symSize: 0x30 }
  - { offsetInCU: 0x3540E, offset: 0x3540E, size: 0x8, addend: 0x0, symName: __ZNSt3__118basic_stringstreamIcNS_11char_traitsIcEENS_9allocatorIcEEED1Ev, symObjAddr: 0x71FC, symBinAddr: 0x10000B124, symSize: 0x40 }
  - { offsetInCU: 0x3543B, offset: 0x3543B, size: 0x8, addend: 0x0, symName: __ZN4Cell15setSimulateMRNAEb, symObjAddr: 0x723C, symBinAddr: 0x10000B164, symSize: 0x6C }
  - { offsetInCU: 0x3546F, offset: 0x3546F, size: 0x8, addend: 0x0, symName: __ZNK4Cell15getMRNAListSizeEv, symObjAddr: 0x73F0, symBinAddr: 0x10000B318, symSize: 0x28 }
  - { offsetInCU: 0x35495, offset: 0x35495, size: 0x8, addend: 0x0, symName: __ZNK4Cell15getCycleCounterEv, symObjAddr: 0x7418, symBinAddr: 0x10000B340, symSize: 0x18 }
  - { offsetInCU: 0x354BB, offset: 0x354BB, size: 0x8, addend: 0x0, symName: __ZNK4Cell20getRNAEnabledForTypeEv, symObjAddr: 0x7430, symBinAddr: 0x10000B358, symSize: 0x1C }
  - { offsetInCU: 0x354E1, offset: 0x354E1, size: 0x8, addend: 0x0, symName: __ZNSt3__13mapINS_12basic_stringIcNS_11char_traitsIcEENS_9allocatorIcEEEE8CellTypeNS_4lessIS6_EENS4_INS_4pairIKS6_S7_EEEEE4findB8ue170006ERSB_, symObjAddr: 0x744C, symBinAddr: 0x10000B374, symSize: 0x40 }
  - { offsetInCU: 0x35516, offset: 0x35516, size: 0x8, addend: 0x0, symName: __ZNSt3__112basic_stringIcNS_11char_traitsIcEENS_9allocatorIcEEE5beginB8ue170006Ev, symObjAddr: 0x7534, symBinAddr: 0x10000B45C, symSize: 0x4C }
  - { offsetInCU: 0x3553C, offset: 0x3553C, size: 0x8, addend: 0x0, symName: __ZNSt3__112basic_stringIcNS_11char_traitsIcEENS_9allocatorIcEEE3endB8ue170006Ev, symObjAddr: 0x7580, symBinAddr: 0x10000B4A8, symSize: 0x54 }
  - { offsetInCU: 0x35562, offset: 0x35562, size: 0x8, addend: 0x0, symName: __ZNKSt3__16vectorI4MRNANS_9allocatorIS1_EEE5emptyB8ue170006Ev, symObjAddr: 0x7608, symBinAddr: 0x10000B530, symSize: 0x28 }
  - { offsetInCU: 0x35588, offset: 0x35588, size: 0x8, addend: 0x0, symName: __ZNK4MRNA7getTimeEv, symObjAddr: 0x7630, symBinAddr: 0x10000B558, symSize: 0x18 }
  - { offsetInCU: 0x355AE, offset: 0x355AE, size: 0x8, addend: 0x0, symName: __ZNSt3__16vectorIP4CellNS_9allocatorIS2_EEEC1B8ue170006Ev, symObjAddr: 0x7648, symBinAddr: 0x10000B570, symSize: 0x2C }
  - { offsetInCU: 0x355D8, offset: 0x355D8, size: 0x8, addend: 0x0, symName: __ZNSt3__16vectorIP4CellNS_9allocatorIS2_EEE9push_backB8ue170006ERKS2_, symObjAddr: 0x7674, symBinAddr: 0x10000B59C, symSize: 0x6C }
  - { offsetInCU: 0x3560F, offset: 0x3560F, size: 0x8, addend: 0x0, symName: __ZNSt3__16vectorIP4CellNS_9allocatorIS2_EEE5clearB8ue170006Ev, symObjAddr: 0x76E0, symBinAddr: 0x10000B608, symSize: 0x44 }
  - { offsetInCU: 0x35644, offset: 0x35644, size: 0x8, addend: 0x0, symName: __ZNSt3__16vectorIP4CellNS_9allocatorIS2_EEEixB8ue170006Em, symObjAddr: 0x7724, symBinAddr: 0x10000B64C, symSize: 0x24 }
  - { offsetInCU: 0x3567B, offset: 0x3567B, size: 0x8, addend: 0x0, symName: __ZNSt3__16vectorIP4CellNS_9allocatorIS2_EEED1B8ue170006Ev, symObjAddr: 0x7748, symBinAddr: 0x10000B670, symSize: 0x2C }
  - { offsetInCU: 0x356A5, offset: 0x356A5, size: 0x8, addend: 0x0, symName: __ZNSt3__13mapIiiNS_4lessIiEENS_9allocatorINS_4pairIKiiEEEEEC1B8ue170006Ev, symObjAddr: 0x7774, symBinAddr: 0x10000B69C, symSize: 0x2C }
  - { offsetInCU: 0x356CF, offset: 0x356CF, size: 0x8, addend: 0x0, symName: __ZNSt3__13mapIiiNS_4lessIiEENS_9allocatorINS_4pairIKiiEEEEEixEOi, symObjAddr: 0x77A0, symBinAddr: 0x10000B6C8, symSize: 0x80 }
  - { offsetInCU: 0x35706, offset: 0x35706, size: 0x8, addend: 0x0, symName: __ZNSt3__13mapIiiNS_4lessIiEENS_9allocatorINS_4pairIKiiEEEEE5beginB8ue170006Ev, symObjAddr: 0x7820, symBinAddr: 0x10000B748, symSize: 0x38 }
  - { offsetInCU: 0x3572C, offset: 0x3572C, size: 0x8, addend: 0x0, symName: __ZNSt3__13mapIiiNS_4lessIiEENS_9allocatorINS_4pairIKiiEEEEE3endB8ue170006Ev, symObjAddr: 0x7858, symBinAddr: 0x10000B780, symSize: 0x38 }
  - { offsetInCU: 0x35752, offset: 0x35752, size: 0x8, addend: 0x0, symName: __ZNSt3__16vectorINS_4pairIiiEENS_9allocatorIS2_EEEC1INS_14__map_iteratorINS_15__tree_iteratorINS_12__value_typeIiiEEPNS_11__tree_nodeISA_PvEElEEEELi0EEET_SH_, symObjAddr: 0x7890, symBinAddr: 0x10000B7B8, symSize: 0x3C }
  - { offsetInCU: 0x357AB, offset: 0x357AB, size: 0x8, addend: 0x0, symName: __ZNSt3__16vectorINS_4pairIiiEENS_9allocatorIS2_EEE5beginB8ue170006Ev, symObjAddr: 0x790C, symBinAddr: 0x10000B834, symSize: 0x30 }
  - { offsetInCU: 0x357D3, offset: 0x357D3, size: 0x8, addend: 0x0, symName: __ZNSt3__16vectorINS_4pairIiiEENS_9allocatorIS2_EEE3endB8ue170006Ev, symObjAddr: 0x793C, symBinAddr: 0x10000B864, symSize: 0x30 }
  - { offsetInCU: 0x357FB, offset: 0x357FB, size: 0x8, addend: 0x0, symName: __ZNKSt3__111__wrap_iterIPNS_4pairIiiEEEdeB8ue170006Ev, symObjAddr: 0x79A0, symBinAddr: 0x10000B8C8, symSize: 0x18 }
  - { offsetInCU: 0x35821, offset: 0x35821, size: 0x8, addend: 0x0, symName: __ZNSt3__111__wrap_iterIPNS_4pairIiiEEEppB8ue170006Ev, symObjAddr: 0x79B8, symBinAddr: 0x10000B8E0, symSize: 0x20 }
  - { offsetInCU: 0x35847, offset: 0x35847, size: 0x8, addend: 0x0, symName: __ZNKSt3__13mapIiiNS_4lessIiEENS_9allocatorINS_4pairIKiiEEEEE4sizeB8ue170006Ev, symObjAddr: 0x79D8, symBinAddr: 0x10000B900, symSize: 0x28 }
  - { offsetInCU: 0x3586D, offset: 0x3586D, size: 0x8, addend: 0x0, symName: __ZNSt3__16vectorINS_4pairIiiEENS_9allocatorIS2_EEED1B8ue170006Ev, symObjAddr: 0x7A00, symBinAddr: 0x10000B928, symSize: 0x2C }
  - { offsetInCU: 0x35897, offset: 0x35897, size: 0x8, addend: 0x0, symName: __ZNSt3__13mapIiiNS_4lessIiEENS_9allocatorINS_4pairIKiiEEEEED1B8ue170006Ev, symObjAddr: 0x7A2C, symBinAddr: 0x10000B954, symSize: 0x2C }
  - { offsetInCU: 0x358C1, offset: 0x358C1, size: 0x8, addend: 0x0, symName: __ZNSt3__112basic_stringIcNS_11char_traitsIcEENS_9allocatorIcEEE5clearB8ue170006Ev, symObjAddr: 0x7A58, symBinAddr: 0x10000B980, symSize: 0x78 }
  - { offsetInCU: 0x358EF, offset: 0x358EF, size: 0x8, addend: 0x0, symName: __ZNSt3__119basic_istringstreamIcNS_11char_traitsIcEENS_9allocatorIcEEED1Ev, symObjAddr: 0x7AD0, symBinAddr: 0x10000B9F8, symSize: 0x40 }
  - { offsetInCU: 0x35922, offset: 0x35922, size: 0x8, addend: 0x0, symName: __ZNSt3__114basic_ifstreamIcNS_11char_traitsIcEEED1Ev, symObjAddr: 0x7B10, symBinAddr: 0x10000BA38, symSize: 0x40 }
  - { offsetInCU: 0x3594F, offset: 0x3594F, size: 0x8, addend: 0x0, symName: __ZNSt3__16vectorINS0_IP4CellNS_9allocatorIS2_EEEENS3_IS5_EEED1B8ue170006Ev, symObjAddr: 0x7B50, symBinAddr: 0x10000BA78, symSize: 0x2C }
  - { offsetInCU: 0x35979, offset: 0x35979, size: 0x8, addend: 0x0, symName: __ZN4InitC2Ev, symObjAddr: 0x7B7C, symBinAddr: 0x10000BAA4, symSize: 0x48 }
  - { offsetInCU: 0x359A5, offset: 0x359A5, size: 0x8, addend: 0x0, symName: __ZNSt3__13mapINS_12basic_stringIcNS_11char_traitsIcEENS_9allocatorIcEEEE8CellTypeNS_4lessIS6_EENS4_INS_4pairIKS6_S7_EEEEEC1B8ue170006Ev, symObjAddr: 0x7BC4, symBinAddr: 0x10000BAEC, symSize: 0x2C }
  - { offsetInCU: 0x359CF, offset: 0x359CF, size: 0x8, addend: 0x0, symName: __ZNSt3__13mapINS_12basic_stringIcNS_11char_traitsIcEENS_9allocatorIcEEEE8CellTypeNS_4lessIS6_EENS4_INS_4pairIKS6_S7_EEEEEC2B8ue170006Ev, symObjAddr: 0x7BF0, symBinAddr: 0x10000BB18, symSize: 0x40 }
  - { offsetInCU: 0x359F9, offset: 0x359F9, size: 0x8, addend: 0x0, symName: __ZNSt3__119__map_value_compareINS_12basic_stringIcNS_11char_traitsIcEENS_9allocatorIcEEEENS_12__value_typeIS6_8CellTypeEENS_4lessIS6_EELb1EEC1B8ue170006ESB_, symObjAddr: 0x7C30, symBinAddr: 0x10000BB58, symSize: 0x2C }
  - { offsetInCU: 0x35A32, offset: 0x35A32, size: 0x8, addend: 0x0, symName: __ZNSt3__16__treeINS_12__value_typeINS_12basic_stringIcNS_11char_traitsIcEENS_9allocatorIcEEEE8CellTypeEENS_19__map_value_compareIS7_S9_NS_4lessIS7_EELb1EEENS5_IS9_EEEC1ERKSD_, symObjAddr: 0x7C5C, symBinAddr: 0x10000BB84, symSize: 0x34 }
  - { offsetInCU: 0x35A6D, offset: 0x35A6D, size: 0x8, addend: 0x0, symName: __ZNSt3__119__map_value_compareINS_12basic_stringIcNS_11char_traitsIcEENS_9allocatorIcEEEENS_12__value_typeIS6_8CellTypeEENS_4lessIS6_EELb1EEC2B8ue170006ESB_, symObjAddr: 0x7C90, symBinAddr: 0x10000BBB8, symSize: 0x14 }
  - { offsetInCU: 0x35AA6, offset: 0x35AA6, size: 0x8, addend: 0x0, symName: __ZNSt3__16__treeINS_12__value_typeINS_12basic_stringIcNS_11char_traitsIcEENS_9allocatorIcEEEE8CellTypeEENS_19__map_value_compareIS7_S9_NS_4lessIS7_EELb1EEENS5_IS9_EEEC2ERKSD_, symObjAddr: 0x7CA4, symBinAddr: 0x10000BBCC, symSize: 0x7C }
  - { offsetInCU: 0x35AE1, offset: 0x35AE1, size: 0x8, addend: 0x0, symName: __ZNSt3__117__compressed_pairINS_15__tree_end_nodeIPNS_16__tree_node_baseIPvEEEENS_9allocatorINS_11__tree_nodeINS_12__value_typeINS_12basic_stringIcNS_11char_traitsIcEENS7_IcEEEE8CellTypeEES3_EEEEEC1B8ue170006ILb1EvEEv, symObjAddr: 0x7D20, symBinAddr: 0x10000BC48, symSize: 0x2C }
  - { offsetInCU: 0x35B16, offset: 0x35B16, size: 0x8, addend: 0x0, symName: __ZNSt3__117__compressed_pairImNS_19__map_value_compareINS_12basic_stringIcNS_11char_traitsIcEENS_9allocatorIcEEEENS_12__value_typeIS7_8CellTypeEENS_4lessIS7_EELb1EEEEC1B8ue170006IiRKSD_EEOT_OT0_, symObjAddr: 0x7D4C, symBinAddr: 0x10000BC74, symSize: 0x3C }
  - { offsetInCU: 0x35B6E, offset: 0x35B6E, size: 0x8, addend: 0x0, symName: __ZNSt3__16__treeINS_12__value_typeINS_12basic_stringIcNS_11char_traitsIcEENS_9allocatorIcEEEE8CellTypeEENS_19__map_value_compareIS7_S9_NS_4lessIS7_EELb1EEENS5_IS9_EEE10__end_nodeB8ue170006Ev, symObjAddr: 0x7D88, symBinAddr: 0x10000BCB0, symSize: 0x2C }
  - { offsetInCU: 0x35B94, offset: 0x35B94, size: 0x8, addend: 0x0, symName: __ZNSt3__16__treeINS_12__value_typeINS_12basic_stringIcNS_11char_traitsIcEENS_9allocatorIcEEEE8CellTypeEENS_19__map_value_compareIS7_S9_NS_4lessIS7_EELb1EEENS5_IS9_EEE12__begin_nodeB8ue170006Ev, symObjAddr: 0x7DB4, symBinAddr: 0x10000BCDC, symSize: 0x14 }
  - { offsetInCU: 0x35BBA, offset: 0x35BBA, size: 0x8, addend: 0x0, symName: __ZNSt3__117__compressed_pairINS_15__tree_end_nodeIPNS_16__tree_node_baseIPvEEEENS_9allocatorINS_11__tree_nodeINS_12__value_typeINS_12basic_stringIcNS_11char_traitsIcEENS7_IcEEEE8CellTypeEES3_EEEEEC2B8ue170006ILb1EvEEv, symObjAddr: 0x7DC8, symBinAddr: 0x10000BCF0, symSize: 0x34 }
  - { offsetInCU: 0x35BEF, offset: 0x35BEF, size: 0x8, addend: 0x0, symName: __ZNSt3__122__compressed_pair_elemINS_15__tree_end_nodeIPNS_16__tree_node_baseIPvEEEELi0ELb0EEC2B8ue170006ENS_16__value_init_tagE, symObjAddr: 0x7DFC, symBinAddr: 0x10000BD24, symSize: 0x2C }
  - { offsetInCU: 0x35C23, offset: 0x35C23, size: 0x8, addend: 0x0, symName: __ZNSt3__122__compressed_pair_elemINS_9allocatorINS_11__tree_nodeINS_12__value_typeINS_12basic_stringIcNS_11char_traitsIcEENS1_IcEEEE8CellTypeEEPvEEEELi1ELb1EEC2B8ue170006ENS_16__value_init_tagE, symObjAddr: 0x7E28, symBinAddr: 0x10000BD50, symSize: 0x2C }
  - { offsetInCU: 0x35C57, offset: 0x35C57, size: 0x8, addend: 0x0, symName: __ZNSt3__115__tree_end_nodeIPNS_16__tree_node_baseIPvEEEC1B8ue170006Ev, symObjAddr: 0x7E54, symBinAddr: 0x10000BD7C, symSize: 0x2C }
  - { offsetInCU: 0x35C81, offset: 0x35C81, size: 0x8, addend: 0x0, symName: __ZNSt3__115__tree_end_nodeIPNS_16__tree_node_baseIPvEEEC2B8ue170006Ev, symObjAddr: 0x7E80, symBinAddr: 0x10000BDA8, symSize: 0x18 }
  - { offsetInCU: 0x35CAB, offset: 0x35CAB, size: 0x8, addend: 0x0, symName: __ZNSt3__19allocatorINS_11__tree_nodeINS_12__value_typeINS_12basic_stringIcNS_11char_traitsIcEENS0_IcEEEE8CellTypeEEPvEEEC2B8ue170006Ev, symObjAddr: 0x7E98, symBinAddr: 0x10000BDC0, symSize: 0x2C }
  - { offsetInCU: 0x35CD5, offset: 0x35CD5, size: 0x8, addend: 0x0, symName: __ZNSt3__116__non_trivial_ifILb1ENS_9allocatorINS_11__tree_nodeINS_12__value_typeINS_12basic_stringIcNS_11char_traitsIcEENS1_IcEEEE8CellTypeEEPvEEEEEC2B8ue170006Ev, symObjAddr: 0x7EC4, symBinAddr: 0x10000BDEC, symSize: 0x14 }
  - { offsetInCU: 0x35CFF, offset: 0x35CFF, size: 0x8, addend: 0x0, symName: __ZNSt3__117__compressed_pairImNS_19__map_value_compareINS_12basic_stringIcNS_11char_traitsIcEENS_9allocatorIcEEEENS_12__value_typeIS7_8CellTypeEENS_4lessIS7_EELb1EEEEC2B8ue170006IiRKSD_EEOT_OT0_, symObjAddr: 0x7ED8, symBinAddr: 0x10000BE00, symSize: 0x44 }
  - { offsetInCU: 0x35D57, offset: 0x35D57, size: 0x8, addend: 0x0, symName: __ZNSt3__122__compressed_pair_elemImLi0ELb0EEC2B8ue170006IivEEOT_, symObjAddr: 0x7F1C, symBinAddr: 0x10000BE44, symSize: 0x24 }
  - { offsetInCU: 0x35D99, offset: 0x35D99, size: 0x8, addend: 0x0, symName: __ZNSt3__122__compressed_pair_elemINS_19__map_value_compareINS_12basic_stringIcNS_11char_traitsIcEENS_9allocatorIcEEEENS_12__value_typeIS7_8CellTypeEENS_4lessIS7_EELb1EEELi1ELb1EEC2B8ue170006IRKSD_vEEOT_, symObjAddr: 0x7F40, symBinAddr: 0x10000BE68, symSize: 0x18 }
  - { offsetInCU: 0x35DDB, offset: 0x35DDB, size: 0x8, addend: 0x0, symName: __ZNSt3__114pointer_traitsIPNS_15__tree_end_nodeIPNS_16__tree_node_baseIPvEEEEE10pointer_toB8ue170006ERS6_, symObjAddr: 0x7F58, symBinAddr: 0x10000BE80, symSize: 0x14 }
  - { offsetInCU: 0x35DFE, offset: 0x35DFE, size: 0x8, addend: 0x0, symName: __ZNSt3__117__compressed_pairINS_15__tree_end_nodeIPNS_16__tree_node_baseIPvEEEENS_9allocatorINS_11__tree_nodeINS_12__value_typeINS_12basic_stringIcNS_11char_traitsIcEENS7_IcEEEE8CellTypeEES3_EEEEE5firstB8ue170006Ev, symObjAddr: 0x7F6C, symBinAddr: 0x10000BE94, symSize: 0x24 }
  - { offsetInCU: 0x35E24, offset: 0x35E24, size: 0x8, addend: 0x0, symName: __ZNSt3__122__compressed_pair_elemINS_15__tree_end_nodeIPNS_16__tree_node_baseIPvEEEELi0ELb0EE5__getB8ue170006Ev, symObjAddr: 0x7F90, symBinAddr: 0x10000BEB8, symSize: 0x14 }
  - { offsetInCU: 0x35E4A, offset: 0x35E4A, size: 0x8, addend: 0x0, symName: __ZN4InitD2Ev, symObjAddr: 0x7FA4, symBinAddr: 0x10000BECC, symSize: 0x44 }
  - { offsetInCU: 0x35E76, offset: 0x35E76, size: 0x8, addend: 0x0, symName: __ZNSt3__13mapINS_12basic_stringIcNS_11char_traitsIcEENS_9allocatorIcEEEE8CellTypeNS_4lessIS6_EENS4_INS_4pairIKS6_S7_EEEEED1B8ue170006Ev, symObjAddr: 0x7FE8, symBinAddr: 0x10000BF10, symSize: 0x2C }
  - { offsetInCU: 0x35EA0, offset: 0x35EA0, size: 0x8, addend: 0x0, symName: __ZNSt3__13mapINS_12basic_stringIcNS_11char_traitsIcEENS_9allocatorIcEEEE8CellTypeNS_4lessIS6_EENS4_INS_4pairIKS6_S7_EEEEED2B8ue170006Ev, symObjAddr: 0x8014, symBinAddr: 0x10000BF3C, symSize: 0x2C }
  - { offsetInCU: 0x35ECA, offset: 0x35ECA, size: 0x8, addend: 0x0, symName: __ZNSt3__16__treeINS_12__value_typeINS_12basic_stringIcNS_11char_traitsIcEENS_9allocatorIcEEEE8CellTypeEENS_19__map_value_compareIS7_S9_NS_4lessIS7_EELb1EEENS5_IS9_EEED1Ev, symObjAddr: 0x8040, symBinAddr: 0x10000BF68, symSize: 0x2C }
  - { offsetInCU: 0x35EF6, offset: 0x35EF6, size: 0x8, addend: 0x0, symName: __ZNSt3__16__treeINS_12__value_typeINS_12basic_stringIcNS_11char_traitsIcEENS_9allocatorIcEEEE8CellTypeEENS_19__map_value_compareIS7_S9_NS_4lessIS7_EELb1EEENS5_IS9_EEED2Ev, symObjAddr: 0x806C, symBinAddr: 0x10000BF94, symSize: 0x38 }
  - { offsetInCU: 0x35F22, offset: 0x35F22, size: 0x8, addend: 0x0, symName: __ZNSt3__16__treeINS_12__value_typeINS_12basic_stringIcNS_11char_traitsIcEENS_9allocatorIcEEEE8CellTypeEENS_19__map_value_compareIS7_S9_NS_4lessIS7_EELb1EEENS5_IS9_EEE7destroyEPNS_11__tree_nodeIS9_PvEE, symObjAddr: 0x80A4, symBinAddr: 0x10000BFCC, symSize: 0xAC }
  - { offsetInCU: 0x35F6E, offset: 0x35F6E, size: 0x8, addend: 0x0, symName: __ZNKSt3__16__treeINS_12__value_typeINS_12basic_stringIcNS_11char_traitsIcEENS_9allocatorIcEEEE8CellTypeEENS_19__map_value_compareIS7_S9_NS_4lessIS7_EELb1EEENS5_IS9_EEE6__rootB8ue170006Ev, symObjAddr: 0x8150, symBinAddr: 0x10000C078, symSize: 0x28 }
  - { offsetInCU: 0x35F94, offset: 0x35F94, size: 0x8, addend: 0x0, symName: __ZNSt3__16__treeINS_12__value_typeINS_12basic_stringIcNS_11char_traitsIcEENS_9allocatorIcEEEE8CellTypeEENS_19__map_value_compareIS7_S9_NS_4lessIS7_EELb1EEENS5_IS9_EEE12__node_allocB8ue170006Ev, symObjAddr: 0x8178, symBinAddr: 0x10000C0A0, symSize: 0x28 }
  - { offsetInCU: 0x35FBA, offset: 0x35FBA, size: 0x8, addend: 0x0, symName: __ZNSt3__116allocator_traitsINS_9allocatorINS_11__tree_nodeINS_12__value_typeINS_12basic_stringIcNS_11char_traitsIcEENS1_IcEEEE8CellTypeEEPvEEEEE7destroyB8ue170006INS_4pairIKS8_S9_EEvvEEvRSD_PT_, symObjAddr: 0x81A0, symBinAddr: 0x10000C0C8, symSize: 0x28 }
  - { offsetInCU: 0x35FF5, offset: 0x35FF5, size: 0x8, addend: 0x0, symName: __ZNSt3__122__tree_key_value_typesINS_12__value_typeINS_12basic_stringIcNS_11char_traitsIcEENS_9allocatorIcEEEE8CellTypeEEE9__get_ptrB8ue170006ERS9_, symObjAddr: 0x81C8, symBinAddr: 0x10000C0F0, symSize: 0x24 }
  - { offsetInCU: 0x36019, offset: 0x36019, size: 0x8, addend: 0x0, symName: __ZNSt3__116allocator_traitsINS_9allocatorINS_11__tree_nodeINS_12__value_typeINS_12basic_stringIcNS_11char_traitsIcEENS1_IcEEEE8CellTypeEEPvEEEEE10deallocateB8ue170006ERSD_PSC_m, symObjAddr: 0x81EC, symBinAddr: 0x10000C114, symSize: 0x34 }
  - { offsetInCU: 0x3605B, offset: 0x3605B, size: 0x8, addend: 0x0, symName: __ZNSt3__117__compressed_pairINS_15__tree_end_nodeIPNS_16__tree_node_baseIPvEEEENS_9allocatorINS_11__tree_nodeINS_12__value_typeINS_12basic_stringIcNS_11char_traitsIcEENS7_IcEEEE8CellTypeEES3_EEEEE6secondB8ue170006Ev, symObjAddr: 0x8220, symBinAddr: 0x10000C148, symSize: 0x24 }
  - { offsetInCU: 0x36081, offset: 0x36081, size: 0x8, addend: 0x0, symName: __ZNSt3__122__compressed_pair_elemINS_9allocatorINS_11__tree_nodeINS_12__value_typeINS_12basic_stringIcNS_11char_traitsIcEENS1_IcEEEE8CellTypeEEPvEEEELi1ELb1EE5__getB8ue170006Ev, symObjAddr: 0x8244, symBinAddr: 0x10000C16C, symSize: 0x14 }
  - { offsetInCU: 0x360A7, offset: 0x360A7, size: 0x8, addend: 0x0, symName: __ZNSt3__14pairIKNS_12basic_stringIcNS_11char_traitsIcEENS_9allocatorIcEEEE8CellTypeED1Ev, symObjAddr: 0x8258, symBinAddr: 0x10000C180, symSize: 0x2C }
  - { offsetInCU: 0x360D3, offset: 0x360D3, size: 0x8, addend: 0x0, symName: __ZNSt3__14pairIKNS_12basic_stringIcNS_11char_traitsIcEENS_9allocatorIcEEEE8CellTypeED2Ev, symObjAddr: 0x8284, symBinAddr: 0x10000C1AC, symSize: 0x38 }
  - { offsetInCU: 0x36105, offset: 0x36105, size: 0x8, addend: 0x0, symName: __ZN8CellTypeD1Ev, symObjAddr: 0x82BC, symBinAddr: 0x10000C1E4, symSize: 0x2C }
  - { offsetInCU: 0x36131, offset: 0x36131, size: 0x8, addend: 0x0, symName: __ZN8CellTypeD2Ev, symObjAddr: 0x82E8, symBinAddr: 0x10000C210, symSize: 0x38 }
  - { offsetInCU: 0x3615D, offset: 0x3615D, size: 0x8, addend: 0x0, symName: __ZNSt3__16vectorINS_4pairINS_12basic_stringIcNS_11char_traitsIcEENS_9allocatorIcEEEEdEENS5_IS8_EEED1B8ue170006Ev, symObjAddr: 0x8320, symBinAddr: 0x10000C248, symSize: 0x2C }
  - { offsetInCU: 0x36187, offset: 0x36187, size: 0x8, addend: 0x0, symName: __ZNSt3__16vectorINS_4pairINS_12basic_stringIcNS_11char_traitsIcEENS_9allocatorIcEEEEdEENS5_IS8_EEED2B8ue170006Ev, symObjAddr: 0x834C, symBinAddr: 0x10000C274, symSize: 0x44 }
  - { offsetInCU: 0x361B1, offset: 0x361B1, size: 0x8, addend: 0x0, symName: __ZNSt3__16vectorINS_4pairINS_12basic_stringIcNS_11char_traitsIcEENS_9allocatorIcEEEEdEENS5_IS8_EEE16__destroy_vectorC1B8ue170006ERSA_, symObjAddr: 0x8390, symBinAddr: 0x10000C2B8, symSize: 0x34 }
  - { offsetInCU: 0x361EA, offset: 0x361EA, size: 0x8, addend: 0x0, symName: __ZNSt3__16vectorINS_4pairINS_12basic_stringIcNS_11char_traitsIcEENS_9allocatorIcEEEEdEENS5_IS8_EEE16__destroy_vectorclB8ue170006Ev, symObjAddr: 0x83C4, symBinAddr: 0x10000C2EC, symSize: 0x90 }
  - { offsetInCU: 0x36210, offset: 0x36210, size: 0x8, addend: 0x0, symName: __ZNSt3__16vectorINS_4pairINS_12basic_stringIcNS_11char_traitsIcEENS_9allocatorIcEEEEdEENS5_IS8_EEE16__destroy_vectorC2B8ue170006ERSA_, symObjAddr: 0x8454, symBinAddr: 0x10000C37C, symSize: 0x20 }
  - { offsetInCU: 0x36249, offset: 0x36249, size: 0x8, addend: 0x0, symName: __ZNSt3__16vectorINS_4pairINS_12basic_stringIcNS_11char_traitsIcEENS_9allocatorIcEEEEdEENS5_IS8_EEE7__clearB8ue170006Ev, symObjAddr: 0x8474, symBinAddr: 0x10000C39C, symSize: 0x28 }
  - { offsetInCU: 0x3626F, offset: 0x3626F, size: 0x8, addend: 0x0, symName: __ZNKSt3__16vectorINS_4pairINS_12basic_stringIcNS_11char_traitsIcEENS_9allocatorIcEEEEdEENS5_IS8_EEE17__annotate_deleteB8ue170006Ev, symObjAddr: 0x849C, symBinAddr: 0x10000C3C4, symSize: 0xB8 }
  - { offsetInCU: 0x36295, offset: 0x36295, size: 0x8, addend: 0x0, symName: __ZNSt3__116allocator_traitsINS_9allocatorINS_4pairINS_12basic_stringIcNS_11char_traitsIcEENS1_IcEEEEdEEEEE10deallocateB8ue170006ERS9_PS8_m, symObjAddr: 0x8554, symBinAddr: 0x10000C47C, symSize: 0x34 }
  - { offsetInCU: 0x362D7, offset: 0x362D7, size: 0x8, addend: 0x0, symName: __ZNSt3__16vectorINS_4pairINS_12basic_stringIcNS_11char_traitsIcEENS_9allocatorIcEEEEdEENS5_IS8_EEE7__allocB8ue170006Ev, symObjAddr: 0x8588, symBinAddr: 0x10000C4B0, symSize: 0x28 }
  - { offsetInCU: 0x362FD, offset: 0x362FD, size: 0x8, addend: 0x0, symName: __ZNKSt3__16vectorINS_4pairINS_12basic_stringIcNS_11char_traitsIcEENS_9allocatorIcEEEEdEENS5_IS8_EEE8capacityB8ue170006Ev, symObjAddr: 0x85B0, symBinAddr: 0x10000C4D8, symSize: 0x40 }
  - { offsetInCU: 0x36323, offset: 0x36323, size: 0x8, addend: 0x0, symName: __ZNSt3__16vectorINS_4pairINS_12basic_stringIcNS_11char_traitsIcEENS_9allocatorIcEEEEdEENS5_IS8_EEE22__base_destruct_at_endB8ue170006EPS8_, symObjAddr: 0x85F0, symBinAddr: 0x10000C518, symSize: 0x8C }
  - { offsetInCU: 0x36367, offset: 0x36367, size: 0x8, addend: 0x0, symName: __ZNSt3__116allocator_traitsINS_9allocatorINS_4pairINS_12basic_stringIcNS_11char_traitsIcEENS1_IcEEEEdEEEEE7destroyB8ue170006IS8_vEEvRS9_PT_, symObjAddr: 0x867C, symBinAddr: 0x10000C5A4, symSize: 0x2C }
  - { offsetInCU: 0x363A4, offset: 0x363A4, size: 0x8, addend: 0x0, symName: __ZNSt3__19allocatorINS_4pairINS_12basic_stringIcNS_11char_traitsIcEENS0_IcEEEEdEEE7destroyB8ue170006EPS7_, symObjAddr: 0x86BC, symBinAddr: 0x10000C5E4, symSize: 0x28 }
  - { offsetInCU: 0x363D8, offset: 0x363D8, size: 0x8, addend: 0x0, symName: __ZNSt3__14pairINS_12basic_stringIcNS_11char_traitsIcEENS_9allocatorIcEEEEdED1Ev, symObjAddr: 0x86E4, symBinAddr: 0x10000C60C, symSize: 0x2C }
  - { offsetInCU: 0x36404, offset: 0x36404, size: 0x8, addend: 0x0, symName: __ZNSt3__14pairINS_12basic_stringIcNS_11char_traitsIcEENS_9allocatorIcEEEEdED2Ev, symObjAddr: 0x8710, symBinAddr: 0x10000C638, symSize: 0x2C }
  - { offsetInCU: 0x36430, offset: 0x36430, size: 0x8, addend: 0x0, symName: __ZNKSt3__16vectorINS_4pairINS_12basic_stringIcNS_11char_traitsIcEENS_9allocatorIcEEEEdEENS5_IS8_EEE31__annotate_contiguous_containerB8ue170006EPKvSC_SC_SC_, symObjAddr: 0x873C, symBinAddr: 0x10000C664, symSize: 0x20 }
  - { offsetInCU: 0x36486, offset: 0x36486, size: 0x8, addend: 0x0, symName: __ZNKSt3__16vectorINS_4pairINS_12basic_stringIcNS_11char_traitsIcEENS_9allocatorIcEEEEdEENS5_IS8_EEE4dataB8ue170006Ev, symObjAddr: 0x875C, symBinAddr: 0x10000C684, symSize: 0x28 }
  - { offsetInCU: 0x364AC, offset: 0x364AC, size: 0x8, addend: 0x0, symName: __ZNKSt3__16vectorINS_4pairINS_12basic_stringIcNS_11char_traitsIcEENS_9allocatorIcEEEEdEENS5_IS8_EEE4sizeB8ue170006Ev, symObjAddr: 0x8784, symBinAddr: 0x10000C6AC, symSize: 0x28 }
  - { offsetInCU: 0x364D2, offset: 0x364D2, size: 0x8, addend: 0x0, symName: __ZNSt3__19allocatorINS_4pairINS_12basic_stringIcNS_11char_traitsIcEENS0_IcEEEEdEEE10deallocateB8ue170006EPS7_m, symObjAddr: 0x87AC, symBinAddr: 0x10000C6D4, symSize: 0x40 }
  - { offsetInCU: 0x36514, offset: 0x36514, size: 0x8, addend: 0x0, symName: __ZNSt3__117__compressed_pairIPNS_4pairINS_12basic_stringIcNS_11char_traitsIcEENS_9allocatorIcEEEEdEENS5_IS8_EEE6secondB8ue170006Ev, symObjAddr: 0x8868, symBinAddr: 0x10000C790, symSize: 0x24 }
  - { offsetInCU: 0x3653A, offset: 0x3653A, size: 0x8, addend: 0x0, symName: __ZNSt3__122__compressed_pair_elemINS_9allocatorINS_4pairINS_12basic_stringIcNS_11char_traitsIcEENS1_IcEEEEdEEEELi1ELb1EE5__getB8ue170006Ev, symObjAddr: 0x888C, symBinAddr: 0x10000C7B4, symSize: 0x14 }
  - { offsetInCU: 0x36560, offset: 0x36560, size: 0x8, addend: 0x0, symName: __ZNKSt3__16vectorINS_4pairINS_12basic_stringIcNS_11char_traitsIcEENS_9allocatorIcEEEEdEENS5_IS8_EEE9__end_capB8ue170006Ev, symObjAddr: 0x88A0, symBinAddr: 0x10000C7C8, symSize: 0x28 }
  - { offsetInCU: 0x36586, offset: 0x36586, size: 0x8, addend: 0x0, symName: __ZNKSt3__117__compressed_pairIPNS_4pairINS_12basic_stringIcNS_11char_traitsIcEENS_9allocatorIcEEEEdEENS5_IS8_EEE5firstB8ue170006Ev, symObjAddr: 0x88C8, symBinAddr: 0x10000C7F0, symSize: 0x24 }
  - { offsetInCU: 0x365AC, offset: 0x365AC, size: 0x8, addend: 0x0, symName: __ZNKSt3__122__compressed_pair_elemIPNS_4pairINS_12basic_stringIcNS_11char_traitsIcEENS_9allocatorIcEEEEdEELi0ELb0EE5__getB8ue170006Ev, symObjAddr: 0x88EC, symBinAddr: 0x10000C814, symSize: 0x14 }
  - { offsetInCU: 0x365D2, offset: 0x365D2, size: 0x8, addend: 0x0, symName: __ZNSt3__112__value_typeINS_12basic_stringIcNS_11char_traitsIcEENS_9allocatorIcEEEE8CellTypeE11__get_valueB8ue170006Ev, symObjAddr: 0x8900, symBinAddr: 0x10000C828, symSize: 0x14 }
  - { offsetInCU: 0x365F8, offset: 0x365F8, size: 0x8, addend: 0x0, symName: __ZNSt3__19allocatorINS_11__tree_nodeINS_12__value_typeINS_12basic_stringIcNS_11char_traitsIcEENS0_IcEEEE8CellTypeEEPvEEE10deallocateB8ue170006EPSB_m, symObjAddr: 0x8914, symBinAddr: 0x10000C83C, symSize: 0x40 }
  - { offsetInCU: 0x3663A, offset: 0x3663A, size: 0x8, addend: 0x0, symName: __ZNKSt3__16__treeINS_12__value_typeINS_12basic_stringIcNS_11char_traitsIcEENS_9allocatorIcEEEE8CellTypeEENS_19__map_value_compareIS7_S9_NS_4lessIS7_EELb1EEENS5_IS9_EEE10__end_nodeB8ue170006Ev, symObjAddr: 0x8954, symBinAddr: 0x10000C87C, symSize: 0x2C }
  - { offsetInCU: 0x36660, offset: 0x36660, size: 0x8, addend: 0x0, symName: __ZNKSt3__117__compressed_pairINS_15__tree_end_nodeIPNS_16__tree_node_baseIPvEEEENS_9allocatorINS_11__tree_nodeINS_12__value_typeINS_12basic_stringIcNS_11char_traitsIcEENS7_IcEEEE8CellTypeEES3_EEEEE5firstB8ue170006Ev, symObjAddr: 0x8980, symBinAddr: 0x10000C8A8, symSize: 0x24 }
  - { offsetInCU: 0x36686, offset: 0x36686, size: 0x8, addend: 0x0, symName: __ZNKSt3__122__compressed_pair_elemINS_15__tree_end_nodeIPNS_16__tree_node_baseIPvEEEELi0ELb0EE5__getB8ue170006Ev, symObjAddr: 0x89A4, symBinAddr: 0x10000C8CC, symSize: 0x14 }
  - { offsetInCU: 0x366AC, offset: 0x366AC, size: 0x8, addend: 0x0, symName: __ZNKSt3__111__wrap_iterIPKNS_6vectorIP4CellNS_9allocatorIS3_EEEEE4baseB8ue170006Ev, symObjAddr: 0x8A00, symBinAddr: 0x10000C928, symSize: 0x18 }
  - { offsetInCU: 0x366D2, offset: 0x366D2, size: 0x8, addend: 0x0, symName: __ZNKSt3__111__wrap_iterIPKP4CellE4baseB8ue170006Ev, symObjAddr: 0x8A60, symBinAddr: 0x10000C988, symSize: 0x18 }
  - { offsetInCU: 0x366F8, offset: 0x366F8, size: 0x8, addend: 0x0, symName: __ZNKSt3__111__wrap_iterIPK4MRNAE4baseB8ue170006Ev, symObjAddr: 0x8AC0, symBinAddr: 0x10000C9E8, symSize: 0x18 }
  - { offsetInCU: 0x3671E, offset: 0x3671E, size: 0x8, addend: 0x0, symName: __ZNKSt3__111__wrap_iterIPNS_12basic_stringIcNS_11char_traitsIcEENS_9allocatorIcEEEEE4baseB8ue170006Ev, symObjAddr: 0x8B20, symBinAddr: 0x10000CA48, symSize: 0x18 }
  - { offsetInCU: 0x36744, offset: 0x36744, size: 0x8, addend: 0x0, symName: __ZNSt3__114basic_ofstreamIcNS_11char_traitsIcEEED2Ev, symObjAddr: 0x8B38, symBinAddr: 0x10000CA60, symSize: 0x64 }
  - { offsetInCU: 0x3677E, offset: 0x3677E, size: 0x8, addend: 0x0, symName: __ZTv0_n24_NSt3__114basic_ofstreamIcNS_11char_traitsIcEEED1Ev, symObjAddr: 0x8B9C, symBinAddr: 0x10000CAC4, symSize: 0x28 }
  - { offsetInCU: 0x36795, offset: 0x36795, size: 0x8, addend: 0x0, symName: __ZNKSt3__111__wrap_iterIPP4CellE4baseB8ue170006Ev, symObjAddr: 0x8C0C, symBinAddr: 0x10000CB34, symSize: 0x18 }
  - { offsetInCU: 0x367BB, offset: 0x367BB, size: 0x8, addend: 0x0, symName: __ZNKSt3__111__wrap_iterIP4CellE4baseB8ue170006Ev, symObjAddr: 0x8C6C, symBinAddr: 0x10000CB94, symSize: 0x18 }
  - { offsetInCU: 0x367E1, offset: 0x367E1, size: 0x8, addend: 0x0, symName: __ZNSt3__16vectorI4MRNANS_9allocatorIS1_EEEaSB8ue170006ERKS4_, symObjAddr: 0x8C98, symBinAddr: 0x10000CBC0, symSize: 0x68 }
  - { offsetInCU: 0x36818, offset: 0x36818, size: 0x8, addend: 0x0, symName: __ZNSt3__16vectorI4MRNANS_9allocatorIS1_EEE19__copy_assign_allocB8ue170006ERKS4_, symObjAddr: 0x8D00, symBinAddr: 0x10000CC28, symSize: 0x2C }
  - { offsetInCU: 0x3684D, offset: 0x3684D, size: 0x8, addend: 0x0, symName: __ZNSt3__16vectorI4MRNANS_9allocatorIS1_EEE6assignIPS1_Li0EEEvT_S7_, symObjAddr: 0x8D2C, symBinAddr: 0x10000CC54, symSize: 0x5C }
  - { offsetInCU: 0x368A2, offset: 0x368A2, size: 0x8, addend: 0x0, symName: __ZNSt3__16vectorI4MRNANS_9allocatorIS1_EEE19__copy_assign_allocB8ue170006ERKS4_NS_17integral_constantIbLb0EEE, symObjAddr: 0x8D88, symBinAddr: 0x10000CCB0, symSize: 0x14 }
  - { offsetInCU: 0x368E0, offset: 0x368E0, size: 0x8, addend: 0x0, symName: __ZNSt3__16vectorI4MRNANS_9allocatorIS1_EEE18__assign_with_sizeB8ue170006IPS1_S6_EEvT_T0_l, symObjAddr: 0x8D9C, symBinAddr: 0x10000CCC4, symSize: 0x164 }
  - { offsetInCU: 0x36990, offset: 0x36990, size: 0x8, addend: 0x0, symName: __ZNKSt3__16vectorI4MRNANS_9allocatorIS1_EEE8capacityB8ue170006Ev, symObjAddr: 0x8F2C, symBinAddr: 0x10000CE54, symSize: 0x40 }
  - { offsetInCU: 0x369B6, offset: 0x369B6, size: 0x8, addend: 0x0, symName: __ZNKSt3__16vectorI4MRNANS_9allocatorIS1_EEE4sizeB8ue170006Ev, symObjAddr: 0x8F6C, symBinAddr: 0x10000CE94, symSize: 0x28 }
  - { offsetInCU: 0x369DC, offset: 0x369DC, size: 0x8, addend: 0x0, symName: __ZNSt3__16vectorI4MRNANS_9allocatorIS1_EEE18__construct_at_endIPS1_S6_EEvT_T0_m, symObjAddr: 0x9008, symBinAddr: 0x10000CF30, symSize: 0x8C }
  - { offsetInCU: 0x36A52, offset: 0x36A52, size: 0x8, addend: 0x0, symName: __ZNSt3__16vectorI4MRNANS_9allocatorIS1_EEE17__destruct_at_endB8ue170006EPS1_, symObjAddr: 0x90D8, symBinAddr: 0x10000D000, symSize: 0x4C }
  - { offsetInCU: 0x36A96, offset: 0x36A96, size: 0x8, addend: 0x0, symName: __ZNSt3__16vectorI4MRNANS_9allocatorIS1_EEE13__vdeallocateEv, symObjAddr: 0x9124, symBinAddr: 0x10000D04C, symSize: 0x94 }
  - { offsetInCU: 0x36ABE, offset: 0x36ABE, size: 0x8, addend: 0x0, symName: __ZNSt3__16vectorI4MRNANS_9allocatorIS1_EEE11__vallocateB8ue170006Em, symObjAddr: 0x91B8, symBinAddr: 0x10000D0E0, symSize: 0xAC }
  - { offsetInCU: 0x36B02, offset: 0x36B02, size: 0x8, addend: 0x0, symName: __ZNKSt3__16vectorI4MRNANS_9allocatorIS1_EEE11__recommendB8ue170006Em, symObjAddr: 0x9264, symBinAddr: 0x10000D18C, symSize: 0xB4 }
  - { offsetInCU: 0x36B57, offset: 0x36B57, size: 0x8, addend: 0x0, symName: __ZNKSt3__16vectorI4MRNANS_9allocatorIS1_EEE9__end_capB8ue170006Ev, symObjAddr: 0x9318, symBinAddr: 0x10000D240, symSize: 0x28 }
  - { offsetInCU: 0x36B7D, offset: 0x36B7D, size: 0x8, addend: 0x0, symName: __ZNKSt3__117__compressed_pairIP4MRNANS_9allocatorIS1_EEE5firstB8ue170006Ev, symObjAddr: 0x9340, symBinAddr: 0x10000D268, symSize: 0x24 }
  - { offsetInCU: 0x36BA3, offset: 0x36BA3, size: 0x8, addend: 0x0, symName: __ZNKSt3__122__compressed_pair_elemIP4MRNALi0ELb0EE5__getB8ue170006Ev, symObjAddr: 0x9364, symBinAddr: 0x10000D28C, symSize: 0x14 }
  - { offsetInCU: 0x36BE7, offset: 0x36BE7, size: 0x8, addend: 0x0, symName: __ZNSt3__16vectorI4MRNANS_9allocatorIS1_EEE21_ConstructTransactionC1B8ue170006ERS4_m, symObjAddr: 0x93EC, symBinAddr: 0x10000D314, symSize: 0x3C }
  - { offsetInCU: 0x36C2F, offset: 0x36C2F, size: 0x8, addend: 0x0, symName: __ZNSt3__16vectorI4MRNANS_9allocatorIS1_EEE7__allocB8ue170006Ev, symObjAddr: 0x94A8, symBinAddr: 0x10000D3D0, symSize: 0x28 }
  - { offsetInCU: 0x36C55, offset: 0x36C55, size: 0x8, addend: 0x0, symName: __ZNSt3__16vectorI4MRNANS_9allocatorIS1_EEE21_ConstructTransactionD1B8ue170006Ev, symObjAddr: 0x94D0, symBinAddr: 0x10000D3F8, symSize: 0x2C }
  - { offsetInCU: 0x36C7F, offset: 0x36C7F, size: 0x8, addend: 0x0, symName: __ZNSt3__16vectorI4MRNANS_9allocatorIS1_EEE21_ConstructTransactionC2B8ue170006ERS4_m, symObjAddr: 0x94FC, symBinAddr: 0x10000D424, symSize: 0x44 }
  - { offsetInCU: 0x36CEB, offset: 0x36CEB, size: 0x8, addend: 0x0, symName: __ZNSt3__14pairIP4MRNAS2_EC1B8ue170006IS2_S2_LPv0EEEOT_OT0_, symObjAddr: 0x972C, symBinAddr: 0x10000D654, symSize: 0x3C }
  - { offsetInCU: 0x36D49, offset: 0x36D49, size: 0x8, addend: 0x0, symName: __ZNSt3__14pairIP4MRNAS2_EC2B8ue170006IS2_S2_LPv0EEEOT_OT0_, symObjAddr: 0x9768, symBinAddr: 0x10000D690, symSize: 0x34 }
  - { offsetInCU: 0x36DA7, offset: 0x36DA7, size: 0x8, addend: 0x0, symName: __ZNSt3__129_AllocatorDestroyRangeReverseINS_9allocatorI4MRNAEEPS2_EC1B8ue170006ERS3_RS4_S7_, symObjAddr: 0x97E8, symBinAddr: 0x10000D710, symSize: 0x44 }
  - { offsetInCU: 0x36DFE, offset: 0x36DFE, size: 0x8, addend: 0x0, symName: __ZNSt3__116allocator_traitsINS_9allocatorI4MRNAEEE9constructB8ue170006IS2_JRS2_EvEEvRS3_PT_DpOT0_, symObjAddr: 0x982C, symBinAddr: 0x10000D754, symSize: 0x34 }
  - { offsetInCU: 0x36E55, offset: 0x36E55, size: 0x8, addend: 0x0, symName: __ZNSt3__128__exception_guard_exceptionsINS_29_AllocatorDestroyRangeReverseINS_9allocatorI4MRNAEEPS3_EEE10__completeB8ue170006Ev, symObjAddr: 0x9874, symBinAddr: 0x10000D79C, symSize: 0x1C }
  - { offsetInCU: 0x36E7B, offset: 0x36E7B, size: 0x8, addend: 0x0, symName: __ZNSt3__128__exception_guard_exceptionsINS_29_AllocatorDestroyRangeReverseINS_9allocatorI4MRNAEEPS3_EEED1B8ue170006Ev, symObjAddr: 0x9890, symBinAddr: 0x10000D7B8, symSize: 0x2C }
  - { offsetInCU: 0x36EA5, offset: 0x36EA5, size: 0x8, addend: 0x0, symName: __ZNSt3__128__exception_guard_exceptionsINS_29_AllocatorDestroyRangeReverseINS_9allocatorI4MRNAEEPS3_EEEC1B8ue170006ES6_, symObjAddr: 0x98BC, symBinAddr: 0x10000D7E4, symSize: 0x34 }
  - { offsetInCU: 0x36EDE, offset: 0x36EDE, size: 0x8, addend: 0x0, symName: __ZNSt3__128__exception_guard_exceptionsINS_29_AllocatorDestroyRangeReverseINS_9allocatorI4MRNAEEPS3_EEEC2B8ue170006ES6_, symObjAddr: 0x98F0, symBinAddr: 0x10000D818, symSize: 0x30 }
  - { offsetInCU: 0x36F17, offset: 0x36F17, size: 0x8, addend: 0x0, symName: __ZNSt3__129_AllocatorDestroyRangeReverseINS_9allocatorI4MRNAEEPS2_EC2B8ue170006ERS3_RS4_S7_, symObjAddr: 0x9920, symBinAddr: 0x10000D848, symSize: 0x38 }
  - { offsetInCU: 0x36F6E, offset: 0x36F6E, size: 0x8, addend: 0x0, symName: __ZNSt3__19allocatorI4MRNAE9constructB8ue170006IS1_JRS1_EEEvPT_DpOT0_, symObjAddr: 0x9958, symBinAddr: 0x10000D880, symSize: 0x30 }
  - { offsetInCU: 0x36FC4, offset: 0x36FC4, size: 0x8, addend: 0x0, symName: __ZN4MRNAC1ERKS_, symObjAddr: 0x9988, symBinAddr: 0x10000D8B0, symSize: 0x34 }
  - { offsetInCU: 0x36FF9, offset: 0x36FF9, size: 0x8, addend: 0x0, symName: __ZN4MRNAC2ERKS_, symObjAddr: 0x99BC, symBinAddr: 0x10000D8E4, symSize: 0x48 }
  - { offsetInCU: 0x3702E, offset: 0x3702E, size: 0x8, addend: 0x0, symName: __ZNSt3__128__exception_guard_exceptionsINS_29_AllocatorDestroyRangeReverseINS_9allocatorI4MRNAEEPS3_EEED2B8ue170006Ev, symObjAddr: 0x9A04, symBinAddr: 0x10000D92C, symSize: 0x50 }
  - { offsetInCU: 0x37058, offset: 0x37058, size: 0x8, addend: 0x0, symName: __ZNKSt3__129_AllocatorDestroyRangeReverseINS_9allocatorI4MRNAEEPS2_EclB8ue170006Ev, symObjAddr: 0x9A54, symBinAddr: 0x10000D97C, symSize: 0x68 }
  - { offsetInCU: 0x3707E, offset: 0x3707E, size: 0x8, addend: 0x0, symName: __ZNSt3__116reverse_iteratorIP4MRNAEC1B8ue170006ES2_, symObjAddr: 0x9B2C, symBinAddr: 0x10000DA54, symSize: 0x34 }
  - { offsetInCU: 0x370B6, offset: 0x370B6, size: 0x8, addend: 0x0, symName: __ZNSt3__116allocator_traitsINS_9allocatorI4MRNAEEE7destroyB8ue170006IS2_vEEvRS3_PT_, symObjAddr: 0x9BA8, symBinAddr: 0x10000DAD0, symSize: 0x2C }
  - { offsetInCU: 0x370F3, offset: 0x370F3, size: 0x8, addend: 0x0, symName: __ZNSt3__116reverse_iteratorIP4MRNAEppB8ue170006Ev, symObjAddr: 0x9BF8, symBinAddr: 0x10000DB20, symSize: 0x20 }
  - { offsetInCU: 0x37119, offset: 0x37119, size: 0x8, addend: 0x0, symName: __ZNKSt3__116reverse_iteratorIP4MRNAE4baseB8ue170006Ev, symObjAddr: 0x9C18, symBinAddr: 0x10000DB40, symSize: 0x18 }
  - { offsetInCU: 0x3713F, offset: 0x3713F, size: 0x8, addend: 0x0, symName: __ZNSt3__19allocatorI4MRNAE7destroyB8ue170006EPS1_, symObjAddr: 0x9C30, symBinAddr: 0x10000DB58, symSize: 0x28 }
  - { offsetInCU: 0x37173, offset: 0x37173, size: 0x8, addend: 0x0, symName: __ZN4MRNAD1Ev, symObjAddr: 0x9C58, symBinAddr: 0x10000DB80, symSize: 0x2C }
  - { offsetInCU: 0x3719F, offset: 0x3719F, size: 0x8, addend: 0x0, symName: __ZN4MRNAD2Ev, symObjAddr: 0x9C84, symBinAddr: 0x10000DBAC, symSize: 0x2C }
  - { offsetInCU: 0x371D1, offset: 0x371D1, size: 0x8, addend: 0x0, symName: __ZNSt3__119__to_address_helperINS_16reverse_iteratorIP4MRNAEEvE6__callB8ue170006ERKS4_, symObjAddr: 0x9CB0, symBinAddr: 0x10000DBD8, symSize: 0x38 }
  - { offsetInCU: 0x371F4, offset: 0x371F4, size: 0x8, addend: 0x0, symName: __ZNKSt3__116reverse_iteratorIP4MRNAEptB8ue170006Ev, symObjAddr: 0x9CE8, symBinAddr: 0x10000DC10, symSize: 0x24 }
  - { offsetInCU: 0x3721A, offset: 0x3721A, size: 0x8, addend: 0x0, symName: __ZNKSt3__116reverse_iteratorIP4MRNAEdeB8ue170006Ev, symObjAddr: 0x9D0C, symBinAddr: 0x10000DC34, symSize: 0x28 }
  - { offsetInCU: 0x3724E, offset: 0x3724E, size: 0x8, addend: 0x0, symName: __ZNSt3__116reverse_iteratorIP4MRNAEC2B8ue170006ES2_, symObjAddr: 0x9D34, symBinAddr: 0x10000DC5C, symSize: 0x28 }
  - { offsetInCU: 0x37286, offset: 0x37286, size: 0x8, addend: 0x0, symName: __ZNSt3__118__unwrap_iter_implIP4MRNALb1EE8__unwrapB8ue170006ES2_, symObjAddr: 0x9D5C, symBinAddr: 0x10000DC84, symSize: 0x24 }
  - { offsetInCU: 0x372A9, offset: 0x372A9, size: 0x8, addend: 0x0, symName: __ZNSt3__118__unwrap_iter_implIP4MRNALb1EE8__rewrapB8ue170006ES2_S2_, symObjAddr: 0x9D80, symBinAddr: 0x10000DCA8, symSize: 0x50 }
  - { offsetInCU: 0x372DA, offset: 0x372DA, size: 0x8, addend: 0x0, symName: __ZNSt3__117__compressed_pairIP4MRNANS_9allocatorIS1_EEE6secondB8ue170006Ev, symObjAddr: 0x9DD0, symBinAddr: 0x10000DCF8, symSize: 0x24 }
  - { offsetInCU: 0x37300, offset: 0x37300, size: 0x8, addend: 0x0, symName: __ZNSt3__122__compressed_pair_elemINS_9allocatorI4MRNAEELi1ELb1EE5__getB8ue170006Ev, symObjAddr: 0x9DF4, symBinAddr: 0x10000DD1C, symSize: 0x14 }
  - { offsetInCU: 0x37326, offset: 0x37326, size: 0x8, addend: 0x0, symName: __ZNSt3__16vectorI4MRNANS_9allocatorIS1_EEE21_ConstructTransactionD2B8ue170006Ev, symObjAddr: 0x9E08, symBinAddr: 0x10000DD30, symSize: 0x20 }
  - { offsetInCU: 0x3735C, offset: 0x3735C, size: 0x8, addend: 0x0, symName: __ZNKSt3__111__copy_loopINS_17_ClassicAlgPolicyEEclB8ue170006IP4MRNAS5_S5_EENS_4pairIT_T1_EES7_T0_S8_, symObjAddr: 0x9F20, symBinAddr: 0x10000DE48, symSize: 0x88 }
  - { offsetInCU: 0x373C7, offset: 0x373C7, size: 0x8, addend: 0x0, symName: __ZN4MRNAaSERKS_, symObjAddr: 0x9FD4, symBinAddr: 0x10000DEFC, symSize: 0x48 }
  - { offsetInCU: 0x373F8, offset: 0x373F8, size: 0x8, addend: 0x0, symName: __ZNSt3__16vectorI4MRNANS_9allocatorIS1_EEE22__base_destruct_at_endB8ue170006EPS1_, symObjAddr: 0xA01C, symBinAddr: 0x10000DF44, symSize: 0x8C }
  - { offsetInCU: 0x3743C, offset: 0x3743C, size: 0x8, addend: 0x0, symName: __ZNKSt3__16vectorI4MRNANS_9allocatorIS1_EEE17__annotate_shrinkB8ue170006Em, symObjAddr: 0xA0A8, symBinAddr: 0x10000DFD0, symSize: 0xB4 }
  - { offsetInCU: 0x37471, offset: 0x37471, size: 0x8, addend: 0x0, symName: __ZNKSt3__16vectorI4MRNANS_9allocatorIS1_EEE31__annotate_contiguous_containerB8ue170006EPKvS6_S6_S6_, symObjAddr: 0xA15C, symBinAddr: 0x10000E084, symSize: 0x20 }
  - { offsetInCU: 0x374C7, offset: 0x374C7, size: 0x8, addend: 0x0, symName: __ZNKSt3__16vectorI4MRNANS_9allocatorIS1_EEE4dataB8ue170006Ev, symObjAddr: 0xA17C, symBinAddr: 0x10000E0A4, symSize: 0x28 }
  - { offsetInCU: 0x374ED, offset: 0x374ED, size: 0x8, addend: 0x0, symName: __ZNSt3__16vectorI4MRNANS_9allocatorIS1_EEE5clearB8ue170006Ev, symObjAddr: 0xA1A4, symBinAddr: 0x10000E0CC, symSize: 0x44 }
  - { offsetInCU: 0x37522, offset: 0x37522, size: 0x8, addend: 0x0, symName: __ZNKSt3__16vectorI4MRNANS_9allocatorIS1_EEE17__annotate_deleteB8ue170006Ev, symObjAddr: 0xA1E8, symBinAddr: 0x10000E110, symSize: 0xB8 }
  - { offsetInCU: 0x37548, offset: 0x37548, size: 0x8, addend: 0x0, symName: __ZNSt3__116allocator_traitsINS_9allocatorI4MRNAEEE10deallocateB8ue170006ERS3_PS2_m, symObjAddr: 0xA2A0, symBinAddr: 0x10000E1C8, symSize: 0x34 }
  - { offsetInCU: 0x3758A, offset: 0x3758A, size: 0x8, addend: 0x0, symName: __ZNSt3__16vectorI4MRNANS_9allocatorIS1_EEE9__end_capB8ue170006Ev, symObjAddr: 0xA2D4, symBinAddr: 0x10000E1FC, symSize: 0x28 }
  - { offsetInCU: 0x375B0, offset: 0x375B0, size: 0x8, addend: 0x0, symName: __ZNSt3__16vectorI4MRNANS_9allocatorIS1_EEE7__clearB8ue170006Ev, symObjAddr: 0xA2FC, symBinAddr: 0x10000E224, symSize: 0x28 }
  - { offsetInCU: 0x375D6, offset: 0x375D6, size: 0x8, addend: 0x0, symName: __ZNSt3__19allocatorI4MRNAE10deallocateB8ue170006EPS1_m, symObjAddr: 0xA324, symBinAddr: 0x10000E24C, symSize: 0x40 }
  - { offsetInCU: 0x37618, offset: 0x37618, size: 0x8, addend: 0x0, symName: __ZNSt3__117__compressed_pairIP4MRNANS_9allocatorIS1_EEE5firstB8ue170006Ev, symObjAddr: 0xA364, symBinAddr: 0x10000E28C, symSize: 0x24 }
  - { offsetInCU: 0x3763E, offset: 0x3763E, size: 0x8, addend: 0x0, symName: __ZNSt3__122__compressed_pair_elemIP4MRNALi0ELb0EE5__getB8ue170006Ev, symObjAddr: 0xA388, symBinAddr: 0x10000E2B0, symSize: 0x14 }
  - { offsetInCU: 0x37664, offset: 0x37664, size: 0x8, addend: 0x0, symName: __ZNKSt3__16vectorI4MRNANS_9allocatorIS1_EEE8max_sizeEv, symObjAddr: 0xA39C, symBinAddr: 0x10000E2C4, symSize: 0x60 }
  - { offsetInCU: 0x3768C, offset: 0x3768C, size: 0x8, addend: 0x0, symName: __ZNKSt3__16vectorI4MRNANS_9allocatorIS1_EEE20__throw_length_errorB8ue170006Ev, symObjAddr: 0xA3FC, symBinAddr: 0x10000E324, symSize: 0x1C }
  - { offsetInCU: 0x376B2, offset: 0x376B2, size: 0x8, addend: 0x0, symName: __ZNKSt3__16vectorI4MRNANS_9allocatorIS1_EEE14__annotate_newB8ue170006Em, symObjAddr: 0xA458, symBinAddr: 0x10000E380, symSize: 0xAC }
  - { offsetInCU: 0x376F3, offset: 0x376F3, size: 0x8, addend: 0x0, symName: __ZNSt3__116allocator_traitsINS_9allocatorI4MRNAEEE8max_sizeB8ue170006IS3_vEEmRKS3_, symObjAddr: 0xA530, symBinAddr: 0x10000E458, symSize: 0x24 }
  - { offsetInCU: 0x37721, offset: 0x37721, size: 0x8, addend: 0x0, symName: __ZNKSt3__16vectorI4MRNANS_9allocatorIS1_EEE7__allocB8ue170006Ev, symObjAddr: 0xA554, symBinAddr: 0x10000E47C, symSize: 0x28 }
  - { offsetInCU: 0x37747, offset: 0x37747, size: 0x8, addend: 0x0, symName: __ZNSt3__114numeric_limitsIlE3maxB8ue170006Ev, symObjAddr: 0xA57C, symBinAddr: 0x10000E4A4, symSize: 0x14 }
  - { offsetInCU: 0x37767, offset: 0x37767, size: 0x8, addend: 0x0, symName: __ZNKSt3__16__lessIvvEclB8ue170006ImmEEbRKT_RKT0_, symObjAddr: 0xA5E4, symBinAddr: 0x10000E50C, symSize: 0x34 }
  - { offsetInCU: 0x377BB, offset: 0x377BB, size: 0x8, addend: 0x0, symName: __ZNKSt3__19allocatorI4MRNAE8max_sizeB8ue170006Ev, symObjAddr: 0xA618, symBinAddr: 0x10000E540, symSize: 0x14 }
  - { offsetInCU: 0x377E1, offset: 0x377E1, size: 0x8, addend: 0x0, symName: __ZNKSt3__117__compressed_pairIP4MRNANS_9allocatorIS1_EEE6secondB8ue170006Ev, symObjAddr: 0xA62C, symBinAddr: 0x10000E554, symSize: 0x24 }
  - { offsetInCU: 0x37807, offset: 0x37807, size: 0x8, addend: 0x0, symName: __ZNKSt3__122__compressed_pair_elemINS_9allocatorI4MRNAEELi1ELb1EE5__getB8ue170006Ev, symObjAddr: 0xA650, symBinAddr: 0x10000E578, symSize: 0x14 }
  - { offsetInCU: 0x3782D, offset: 0x3782D, size: 0x8, addend: 0x0, symName: __ZNSt3__123__libcpp_numeric_limitsIlLb1EE3maxB8ue170006Ev, symObjAddr: 0xA664, symBinAddr: 0x10000E58C, symSize: 0x8 }
  - { offsetInCU: 0x37841, offset: 0x37841, size: 0x8, addend: 0x0, symName: __ZNSt12length_errorC1B8ue170006EPKc, symObjAddr: 0xA6D0, symBinAddr: 0x10000E5F8, symSize: 0x34 }
  - { offsetInCU: 0x37879, offset: 0x37879, size: 0x8, addend: 0x0, symName: __ZNSt12length_errorC2B8ue170006EPKc, symObjAddr: 0xA704, symBinAddr: 0x10000E62C, symSize: 0x4C }
  - { offsetInCU: 0x378B1, offset: 0x378B1, size: 0x8, addend: 0x0, symName: __ZNSt3__19allocatorI4MRNAE8allocateB8ue170006Em, symObjAddr: 0xA750, symBinAddr: 0x10000E678, symSize: 0x58 }
  - { offsetInCU: 0x378E5, offset: 0x378E5, size: 0x8, addend: 0x0, symName: __ZN4CellD2Ev, symObjAddr: 0xA8D0, symBinAddr: 0x10000E7F8, symSize: 0x3C }
  - { offsetInCU: 0x37911, offset: 0x37911, size: 0x8, addend: 0x0, symName: __ZNSt3__16vectorI4MRNANS_9allocatorIS1_EEED1B8ue170006Ev, symObjAddr: 0xA90C, symBinAddr: 0x10000E834, symSize: 0x2C }
  - { offsetInCU: 0x3793B, offset: 0x3793B, size: 0x8, addend: 0x0, symName: __ZNSt3__16vectorI4MRNANS_9allocatorIS1_EEED2B8ue170006Ev, symObjAddr: 0xA938, symBinAddr: 0x10000E860, symSize: 0x44 }
  - { offsetInCU: 0x37965, offset: 0x37965, size: 0x8, addend: 0x0, symName: __ZNSt3__16vectorI4MRNANS_9allocatorIS1_EEE16__destroy_vectorC1B8ue170006ERS4_, symObjAddr: 0xA97C, symBinAddr: 0x10000E8A4, symSize: 0x34 }
  - { offsetInCU: 0x3799E, offset: 0x3799E, size: 0x8, addend: 0x0, symName: __ZNSt3__16vectorI4MRNANS_9allocatorIS1_EEE16__destroy_vectorclB8ue170006Ev, symObjAddr: 0xA9B0, symBinAddr: 0x10000E8D8, symSize: 0x90 }
  - { offsetInCU: 0x379C4, offset: 0x379C4, size: 0x8, addend: 0x0, symName: __ZNSt3__16vectorI4MRNANS_9allocatorIS1_EEE16__destroy_vectorC2B8ue170006ERS4_, symObjAddr: 0xAA40, symBinAddr: 0x10000E968, symSize: 0x20 }
  - { offsetInCU: 0x379FD, offset: 0x379FD, size: 0x8, addend: 0x0, symName: __ZNSt3__111__wrap_iterIPKP4CellEC2B8ue170006IPS2_EERKNS0_IT_EEPNS_9enable_ifIXsr14is_convertibleIS8_S4_EE5valueEvE4typeE, symObjAddr: 0xAA60, symBinAddr: 0x10000E988, symSize: 0x40 }
  - { offsetInCU: 0x37A48, offset: 0x37A48, size: 0x8, addend: 0x0, symName: __ZNKSt3__111__wrap_iterIPNS_6threadEE4baseB8ue170006Ev, symObjAddr: 0xAAE8, symBinAddr: 0x10000EA10, symSize: 0x18 }
  - { offsetInCU: 0x37A6E, offset: 0x37A6E, size: 0x8, addend: 0x0, symName: __ZNKSt3__111__wrap_iterIPNS_3mapINS_12basic_stringIcNS_11char_traitsIcEENS_9allocatorIcEEEEiNS_4lessIS7_EENS5_INS_4pairIKS7_iEEEEEEE4baseB8ue170006Ev, symObjAddr: 0xAB48, symBinAddr: 0x10000EA70, symSize: 0x18 }
  - { offsetInCU: 0x37A94, offset: 0x37A94, size: 0x8, addend: 0x0, symName: __ZNKSt3__111__wrap_iterIPNS_6vectorIP4CellNS_9allocatorIS3_EEEEE4baseB8ue170006Ev, symObjAddr: 0xABA8, symBinAddr: 0x10000EAD0, symSize: 0x18 }
  - { offsetInCU: 0x37ABA, offset: 0x37ABA, size: 0x8, addend: 0x0, symName: __ZN4CellC2EiNSt3__112basic_stringIcNS0_11char_traitsIcEENS0_9allocatorIcEEEER4Init, symObjAddr: 0xABC0, symBinAddr: 0x10000EAE8, symSize: 0x190 }
  - { offsetInCU: 0x37B0F, offset: 0x37B0F, size: 0x8, addend: 0x0, symName: __ZNSt3__16vectorI4MRNANS_9allocatorIS1_EEEC1B8ue170006Ev, symObjAddr: 0xAD50, symBinAddr: 0x10000EC78, symSize: 0x2C }
  - { offsetInCU: 0x37B39, offset: 0x37B39, size: 0x8, addend: 0x0, symName: __ZN4Init17rnaEnabledForTypeENSt3__112basic_stringIcNS0_11char_traitsIcEENS0_9allocatorIcEEEE, symObjAddr: 0xAD7C, symBinAddr: 0x10000ECA4, symSize: 0xD8 }
  - { offsetInCU: 0x37B7C, offset: 0x37B7C, size: 0x8, addend: 0x0, symName: __ZN4Init21duplicateCountForTypeENSt3__112basic_stringIcNS0_11char_traitsIcEENS0_9allocatorIcEEEE, symObjAddr: 0xAE54, symBinAddr: 0x10000ED7C, symSize: 0xC0 }
  - { offsetInCU: 0x37BBF, offset: 0x37BBF, size: 0x8, addend: 0x0, symName: __ZNSt3__16vectorI4MRNANS_9allocatorIS1_EEEC2B8ue170006Ev, symObjAddr: 0xAF14, symBinAddr: 0x10000EE3C, symSize: 0x4C }
  - { offsetInCU: 0x37BF5, offset: 0x37BF5, size: 0x8, addend: 0x0, symName: __ZNSt3__117__compressed_pairIP4MRNANS_9allocatorIS1_EEEC1B8ue170006IDnNS_18__default_init_tagEEEOT_OT0_, symObjAddr: 0xAF60, symBinAddr: 0x10000EE88, symSize: 0x3C }
  - { offsetInCU: 0x37C4D, offset: 0x37C4D, size: 0x8, addend: 0x0, symName: __ZNSt3__117__compressed_pairIP4MRNANS_9allocatorIS1_EEEC2B8ue170006IDnNS_18__default_init_tagEEEOT_OT0_, symObjAddr: 0xAF9C, symBinAddr: 0x10000EEC4, symSize: 0x40 }
  - { offsetInCU: 0x37CA5, offset: 0x37CA5, size: 0x8, addend: 0x0, symName: __ZNSt3__122__compressed_pair_elemIP4MRNALi0ELb0EEC2B8ue170006IDnvEEOT_, symObjAddr: 0xAFDC, symBinAddr: 0x10000EF04, symSize: 0x1C }
  - { offsetInCU: 0x37CE7, offset: 0x37CE7, size: 0x8, addend: 0x0, symName: __ZNSt3__122__compressed_pair_elemINS_9allocatorI4MRNAEELi1ELb1EEC2B8ue170006ENS_18__default_init_tagE, symObjAddr: 0xAFF8, symBinAddr: 0x10000EF20, symSize: 0x2C }
  - { offsetInCU: 0x37D1B, offset: 0x37D1B, size: 0x8, addend: 0x0, symName: __ZNSt3__19allocatorI4MRNAEC2B8ue170006Ev, symObjAddr: 0xB024, symBinAddr: 0x10000EF4C, symSize: 0x2C }
  - { offsetInCU: 0x37D45, offset: 0x37D45, size: 0x8, addend: 0x0, symName: __ZNSt3__116__non_trivial_ifILb1ENS_9allocatorI4MRNAEEEC2B8ue170006Ev, symObjAddr: 0xB050, symBinAddr: 0x10000EF78, symSize: 0x14 }
  - { offsetInCU: 0x37D6F, offset: 0x37D6F, size: 0x8, addend: 0x0, symName: __ZNKSt3__114__map_iteratorINS_15__tree_iteratorINS_12__value_typeINS_12basic_stringIcNS_11char_traitsIcEENS_9allocatorIcEEEE8CellTypeEEPNS_11__tree_nodeISA_PvEElEEEptB8ue170006Ev, symObjAddr: 0xB064, symBinAddr: 0x10000EF8C, symSize: 0x2C }
  - { offsetInCU: 0x37D95, offset: 0x37D95, size: 0x8, addend: 0x0, symName: __ZNSt3__114pointer_traitsIPNS_4pairIKNS_12basic_stringIcNS_11char_traitsIcEENS_9allocatorIcEEEE8CellTypeEEE10pointer_toB8ue170006ERSA_, symObjAddr: 0xB090, symBinAddr: 0x10000EFB8, symSize: 0x14 }
  - { offsetInCU: 0x37DB8, offset: 0x37DB8, size: 0x8, addend: 0x0, symName: __ZNKSt3__115__tree_iteratorINS_12__value_typeINS_12basic_stringIcNS_11char_traitsIcEENS_9allocatorIcEEEE8CellTypeEEPNS_11__tree_nodeIS9_PvEElEptB8ue170006Ev, symObjAddr: 0xB0A4, symBinAddr: 0x10000EFCC, symSize: 0x2C }
  - { offsetInCU: 0x37DDE, offset: 0x37DDE, size: 0x8, addend: 0x0, symName: __ZNSt3__114pointer_traitsIPNS_12__value_typeINS_12basic_stringIcNS_11char_traitsIcEENS_9allocatorIcEEEE8CellTypeEEE10pointer_toB8ue170006ERS9_, symObjAddr: 0xB0D0, symBinAddr: 0x10000EFF8, symSize: 0x14 }
  - { offsetInCU: 0x37E01, offset: 0x37E01, size: 0x8, addend: 0x0, symName: __ZNKSt3__115__tree_iteratorINS_12__value_typeINS_12basic_stringIcNS_11char_traitsIcEENS_9allocatorIcEEEE8CellTypeEEPNS_11__tree_nodeIS9_PvEElE8__get_npB8ue170006Ev, symObjAddr: 0xB0E4, symBinAddr: 0x10000F00C, symSize: 0x18 }
  - { offsetInCU: 0x37E27, offset: 0x37E27, size: 0x8, addend: 0x0, symName: __ZNSt3__118basic_stringstreamIcNS_11char_traitsIcEENS_9allocatorIcEEED2Ev, symObjAddr: 0xB0FC, symBinAddr: 0x10000F024, symSize: 0x6C }
  - { offsetInCU: 0x37E61, offset: 0x37E61, size: 0x8, addend: 0x0, symName: __ZThn16_NSt3__118basic_stringstreamIcNS_11char_traitsIcEENS_9allocatorIcEEED1Ev, symObjAddr: 0xB168, symBinAddr: 0x10000F090, symSize: 0x1C }
  - { offsetInCU: 0x37E78, offset: 0x37E78, size: 0x8, addend: 0x0, symName: __ZTv0_n24_NSt3__118basic_stringstreamIcNS_11char_traitsIcEENS_9allocatorIcEEED1Ev, symObjAddr: 0xB184, symBinAddr: 0x10000F0AC, symSize: 0x28 }
  - { offsetInCU: 0x37E95, offset: 0x37E95, size: 0x8, addend: 0x0, symName: __ZNSt3__115basic_stringbufIcNS_11char_traitsIcEENS_9allocatorIcEEED1Ev, symObjAddr: 0xB1AC, symBinAddr: 0x10000F0D4, symSize: 0x2C }
  - { offsetInCU: 0x37EC2, offset: 0x37EC2, size: 0x8, addend: 0x0, symName: __ZNSt3__115basic_stringbufIcNS_11char_traitsIcEENS_9allocatorIcEEED2Ev, symObjAddr: 0xB1D8, symBinAddr: 0x10000F100, symSize: 0x48 }
  - { offsetInCU: 0x37EEE, offset: 0x37EEE, size: 0x8, addend: 0x0, symName: __Z9__isctypeim, symObjAddr: 0xB220, symBinAddr: 0x10000F148, symSize: 0x80 }
  - { offsetInCU: 0x37F29, offset: 0x37F29, size: 0x8, addend: 0x0, symName: __ZNKSt3__111__wrap_iterIPNS_4pairIiiEEE4baseB8ue170006Ev, symObjAddr: 0xB2E8, symBinAddr: 0x10000F210, symSize: 0x18 }
  - { offsetInCU: 0x37F4F, offset: 0x37F4F, size: 0x8, addend: 0x0, symName: __ZNSt3__119basic_istringstreamIcNS_11char_traitsIcEENS_9allocatorIcEEED2Ev, symObjAddr: 0xB300, symBinAddr: 0x10000F228, symSize: 0x64 }
  - { offsetInCU: 0x37F89, offset: 0x37F89, size: 0x8, addend: 0x0, symName: __ZTv0_n24_NSt3__119basic_istringstreamIcNS_11char_traitsIcEENS_9allocatorIcEEED1Ev, symObjAddr: 0xB364, symBinAddr: 0x10000F28C, symSize: 0x28 }
  - { offsetInCU: 0x37FA0, offset: 0x37FA0, size: 0x8, addend: 0x0, symName: __ZNSt3__114basic_ifstreamIcNS_11char_traitsIcEEED2Ev, symObjAddr: 0xB38C, symBinAddr: 0x10000F2B4, symSize: 0x64 }
  - { offsetInCU: 0x37FDA, offset: 0x37FDA, size: 0x8, addend: 0x0, symName: __ZTv0_n24_NSt3__114basic_ifstreamIcNS_11char_traitsIcEEED1Ev, symObjAddr: 0xB3F0, symBinAddr: 0x10000F318, symSize: 0x28 }
  - { offsetInCU: 0x37FF1, offset: 0x37FF1, size: 0x8, addend: 0x0, symName: __ZNSt3__112basic_stringIcNS_11char_traitsIcEENS_9allocatorIcEEEC2B8ue170006ILi0EEEPKc, symObjAddr: 0xB418, symBinAddr: 0x10000F340, symSize: 0x58 }
  - { offsetInCU: 0x38030, offset: 0x38030, size: 0x8, addend: 0x0, symName: __ZNSt3__117__compressed_pairINS_12basic_stringIcNS_11char_traitsIcEENS_9allocatorIcEEE5__repES5_EC1B8ue170006INS_18__default_init_tagESA_EEOT_OT0_, symObjAddr: 0xB470, symBinAddr: 0x10000F398, symSize: 0x3C }
  - { offsetInCU: 0x38088, offset: 0x38088, size: 0x8, addend: 0x0, symName: __ZNSt3__111char_traitsIcE6lengthB8ue170006EPKc, symObjAddr: 0xB4AC, symBinAddr: 0x10000F3D4, symSize: 0x34 }
  - { offsetInCU: 0x380AB, offset: 0x380AB, size: 0x8, addend: 0x0, symName: __ZNSt3__117__compressed_pairINS_12basic_stringIcNS_11char_traitsIcEENS_9allocatorIcEEE5__repES5_EC2B8ue170006INS_18__default_init_tagESA_EEOT_OT0_, symObjAddr: 0xB4E0, symBinAddr: 0x10000F408, symSize: 0x3C }
  - { offsetInCU: 0x38103, offset: 0x38103, size: 0x8, addend: 0x0, symName: __ZNSt3__122__compressed_pair_elemINS_12basic_stringIcNS_11char_traitsIcEENS_9allocatorIcEEE5__repELi0ELb0EEC2B8ue170006ENS_18__default_init_tagE, symObjAddr: 0xB51C, symBinAddr: 0x10000F444, symSize: 0x14 }
  - { offsetInCU: 0x38137, offset: 0x38137, size: 0x8, addend: 0x0, symName: __ZNSt3__122__compressed_pair_elemINS_9allocatorIcEELi1ELb1EEC2B8ue170006ENS_18__default_init_tagE, symObjAddr: 0xB530, symBinAddr: 0x10000F458, symSize: 0x2C }
  - { offsetInCU: 0x3816B, offset: 0x3816B, size: 0x8, addend: 0x0, symName: __ZNSt3__19allocatorIcEC2B8ue170006Ev, symObjAddr: 0xB55C, symBinAddr: 0x10000F484, symSize: 0x2C }
  - { offsetInCU: 0x38195, offset: 0x38195, size: 0x8, addend: 0x0, symName: __ZNSt3__116__non_trivial_ifILb1ENS_9allocatorIcEEEC2B8ue170006Ev, symObjAddr: 0xB588, symBinAddr: 0x10000F4B0, symSize: 0x14 }
  - { offsetInCU: 0x381BF, offset: 0x381BF, size: 0x8, addend: 0x0, symName: __ZNSt3__112basic_stringIcNS_11char_traitsIcEENS_9allocatorIcEEEC2B8ue170006Ev, symObjAddr: 0xB5C0, symBinAddr: 0x10000F4E8, symSize: 0x48 }
  - { offsetInCU: 0x381E9, offset: 0x381E9, size: 0x8, addend: 0x0, symName: __ZNSt3__112basic_stringIcNS_11char_traitsIcEENS_9allocatorIcEEE14__default_initB8ue170006Ev, symObjAddr: 0xB608, symBinAddr: 0x10000F530, symSize: 0x40 }
  - { offsetInCU: 0x3820F, offset: 0x3820F, size: 0x8, addend: 0x0, symName: __ZNSt3__117__compressed_pairINS_12basic_stringIcNS_11char_traitsIcEENS_9allocatorIcEEE5__repES5_E5firstB8ue170006Ev, symObjAddr: 0xB648, symBinAddr: 0x10000F570, symSize: 0x24 }
  - { offsetInCU: 0x38235, offset: 0x38235, size: 0x8, addend: 0x0, symName: __ZNSt3__122__compressed_pair_elemINS_12basic_stringIcNS_11char_traitsIcEENS_9allocatorIcEEE5__repELi0ELb0EE5__getB8ue170006Ev, symObjAddr: 0xB66C, symBinAddr: 0x10000F594, symSize: 0x14 }
  - { offsetInCU: 0x3825B, offset: 0x3825B, size: 0x8, addend: 0x0, symName: __ZNKSt3__112basic_stringIcNS_11char_traitsIcEENS_9allocatorIcEEE9__is_longB8ue170006Ev, symObjAddr: 0xB680, symBinAddr: 0x10000F5A8, symSize: 0x38 }
  - { offsetInCU: 0x38281, offset: 0x38281, size: 0x8, addend: 0x0, symName: __ZNSt3__111char_traitsIcE6assignB8ue170006ERcRKc, symObjAddr: 0xB6B8, symBinAddr: 0x10000F5E0, symSize: 0x24 }
  - { offsetInCU: 0x382B2, offset: 0x382B2, size: 0x8, addend: 0x0, symName: __ZNSt3__112basic_stringIcNS_11char_traitsIcEENS_9allocatorIcEEE18__get_long_pointerB8ue170006Ev, symObjAddr: 0xB6DC, symBinAddr: 0x10000F604, symSize: 0x28 }
  - { offsetInCU: 0x382D8, offset: 0x382D8, size: 0x8, addend: 0x0, symName: __ZNSt3__112basic_stringIcNS_11char_traitsIcEENS_9allocatorIcEEE15__set_long_sizeB8ue170006Em, symObjAddr: 0xB704, symBinAddr: 0x10000F62C, symSize: 0x38 }
  - { offsetInCU: 0x3830D, offset: 0x3830D, size: 0x8, addend: 0x0, symName: __ZNSt3__112basic_stringIcNS_11char_traitsIcEENS_9allocatorIcEEE19__get_short_pointerB8ue170006Ev, symObjAddr: 0xB73C, symBinAddr: 0x10000F664, symSize: 0x28 }
  - { offsetInCU: 0x38333, offset: 0x38333, size: 0x8, addend: 0x0, symName: __ZNSt3__112basic_stringIcNS_11char_traitsIcEENS_9allocatorIcEEE16__set_short_sizeB8ue170006Em, symObjAddr: 0xB764, symBinAddr: 0x10000F68C, symSize: 0x78 }
  - { offsetInCU: 0x38368, offset: 0x38368, size: 0x8, addend: 0x0, symName: __ZNKSt3__117__compressed_pairINS_12basic_stringIcNS_11char_traitsIcEENS_9allocatorIcEEE5__repES5_E5firstB8ue170006Ev, symObjAddr: 0xB7DC, symBinAddr: 0x10000F704, symSize: 0x24 }
  - { offsetInCU: 0x3838E, offset: 0x3838E, size: 0x8, addend: 0x0, symName: __ZNKSt3__122__compressed_pair_elemINS_12basic_stringIcNS_11char_traitsIcEENS_9allocatorIcEEE5__repELi0ELb0EE5__getB8ue170006Ev, symObjAddr: 0xB800, symBinAddr: 0x10000F728, symSize: 0x14 }
  - { offsetInCU: 0x383B4, offset: 0x383B4, size: 0x8, addend: 0x0, symName: __ZNSt3__114pointer_traitsIPcE10pointer_toB8ue170006ERc, symObjAddr: 0xB814, symBinAddr: 0x10000F73C, symSize: 0x14 }
  - { offsetInCU: 0x383D7, offset: 0x383D7, size: 0x8, addend: 0x0, symName: __ZNKSt3__112basic_stringIcNS_11char_traitsIcEENS_9allocatorIcEEE4sizeB8ue170006Ev, symObjAddr: 0xB828, symBinAddr: 0x10000F750, symSize: 0x54 }
  - { offsetInCU: 0x383FD, offset: 0x383FD, size: 0x8, addend: 0x0, symName: __ZNKSt3__112basic_stringIcNS_11char_traitsIcEENS_9allocatorIcEEE15__get_long_sizeB8ue170006Ev, symObjAddr: 0xB87C, symBinAddr: 0x10000F7A4, symSize: 0x28 }
  - { offsetInCU: 0x38423, offset: 0x38423, size: 0x8, addend: 0x0, symName: __ZNKSt3__112basic_stringIcNS_11char_traitsIcEENS_9allocatorIcEEE16__get_short_sizeB8ue170006Ev, symObjAddr: 0xB8A4, symBinAddr: 0x10000F7CC, symSize: 0x34 }
  - { offsetInCU: 0x3846D, offset: 0x3846D, size: 0x8, addend: 0x0, symName: __ZNKSt3__113basic_ostreamIcNS_11char_traitsIcEEE6sentrycvbB8ue170006Ev, symObjAddr: 0xBAC4, symBinAddr: 0x10000F9EC, symSize: 0x1C }
  - { offsetInCU: 0x38493, offset: 0x38493, size: 0x8, addend: 0x0, symName: __ZNSt3__119ostreambuf_iteratorIcNS_11char_traitsIcEEEC1B8ue170006ERNS_13basic_ostreamIcS2_EE, symObjAddr: 0xBD20, symBinAddr: 0x10000FC48, symSize: 0x34 }
  - { offsetInCU: 0x384CB, offset: 0x384CB, size: 0x8, addend: 0x0, symName: __ZNKSt3__18ios_base5flagsB8ue170006Ev, symObjAddr: 0xBD54, symBinAddr: 0x10000FC7C, symSize: 0x18 }
  - { offsetInCU: 0x384F3, offset: 0x384F3, size: 0x8, addend: 0x0, symName: __ZNKSt3__19basic_iosIcNS_11char_traitsIcEEE4fillB8ue170006Ev, symObjAddr: 0xBD6C, symBinAddr: 0x10000FC94, symSize: 0x64 }
  - { offsetInCU: 0x3851B, offset: 0x3851B, size: 0x8, addend: 0x0, symName: __ZNKSt3__119ostreambuf_iteratorIcNS_11char_traitsIcEEE6failedB8ue170006Ev, symObjAddr: 0xBDD0, symBinAddr: 0x10000FCF8, symSize: 0x24 }
  - { offsetInCU: 0x38541, offset: 0x38541, size: 0x8, addend: 0x0, symName: __ZNSt3__19basic_iosIcNS_11char_traitsIcEEE8setstateB8ue170006Ej, symObjAddr: 0xBDF4, symBinAddr: 0x10000FD1C, symSize: 0x2C }
  - { offsetInCU: 0x38576, offset: 0x38576, size: 0x8, addend: 0x0, symName: __ZNKSt3__18ios_base5widthB8ue170006Ev, symObjAddr: 0xBE20, symBinAddr: 0x10000FD48, symSize: 0x18 }
  - { offsetInCU: 0x3859E, offset: 0x3859E, size: 0x8, addend: 0x0, symName: __ZNSt3__115basic_streambufIcNS_11char_traitsIcEEE5sputnB8ue170006EPKcl, symObjAddr: 0xBE38, symBinAddr: 0x10000FD60, symSize: 0x3C }
  - { offsetInCU: 0x385E0, offset: 0x385E0, size: 0x8, addend: 0x0, symName: __ZNSt3__112basic_stringIcNS_11char_traitsIcEENS_9allocatorIcEEEC1B8ue170006Emc, symObjAddr: 0xBE74, symBinAddr: 0x10000FD9C, symSize: 0x3C }
  - { offsetInCU: 0x38628, offset: 0x38628, size: 0x8, addend: 0x0, symName: __ZNKSt3__112basic_stringIcNS_11char_traitsIcEENS_9allocatorIcEEE4dataB8ue170006Ev, symObjAddr: 0xBEB0, symBinAddr: 0x10000FDD8, symSize: 0x28 }
  - { offsetInCU: 0x3864E, offset: 0x3864E, size: 0x8, addend: 0x0, symName: __ZNSt3__18ios_base5widthB8ue170006El, symObjAddr: 0xBED8, symBinAddr: 0x10000FE00, symSize: 0x2C }
  - { offsetInCU: 0x38694, offset: 0x38694, size: 0x8, addend: 0x0, symName: __ZNSt3__112basic_stringIcNS_11char_traitsIcEENS_9allocatorIcEEEC2B8ue170006Emc, symObjAddr: 0xBF04, symBinAddr: 0x10000FE2C, symSize: 0x4C }
  - { offsetInCU: 0x386DC, offset: 0x386DC, size: 0x8, addend: 0x0, symName: __ZNKSt3__112basic_stringIcNS_11char_traitsIcEENS_9allocatorIcEEE13__get_pointerB8ue170006Ev, symObjAddr: 0xBF64, symBinAddr: 0x10000FE8C, symSize: 0x54 }
  - { offsetInCU: 0x38702, offset: 0x38702, size: 0x8, addend: 0x0, symName: __ZNKSt3__112basic_stringIcNS_11char_traitsIcEENS_9allocatorIcEEE18__get_long_pointerB8ue170006Ev, symObjAddr: 0xBFB8, symBinAddr: 0x10000FEE0, symSize: 0x28 }
  - { offsetInCU: 0x38728, offset: 0x38728, size: 0x8, addend: 0x0, symName: __ZNKSt3__112basic_stringIcNS_11char_traitsIcEENS_9allocatorIcEEE19__get_short_pointerB8ue170006Ev, symObjAddr: 0xBFE0, symBinAddr: 0x10000FF08, symSize: 0x28 }
  - { offsetInCU: 0x3874E, offset: 0x3874E, size: 0x8, addend: 0x0, symName: __ZNSt3__114pointer_traitsIPKcE10pointer_toB8ue170006ERS1_, symObjAddr: 0xC008, symBinAddr: 0x10000FF30, symSize: 0x14 }
  - { offsetInCU: 0x38771, offset: 0x38771, size: 0x8, addend: 0x0, symName: __ZNSt3__119ostreambuf_iteratorIcNS_11char_traitsIcEEEC2B8ue170006ERNS_13basic_ostreamIcS2_EE, symObjAddr: 0xC01C, symBinAddr: 0x10000FF44, symSize: 0x54 }
  - { offsetInCU: 0x387A9, offset: 0x387A9, size: 0x8, addend: 0x0, symName: __ZNKSt3__19basic_iosIcNS_11char_traitsIcEEE5rdbufB8ue170006Ev, symObjAddr: 0xC070, symBinAddr: 0x10000FF98, symSize: 0x24 }
  - { offsetInCU: 0x387D1, offset: 0x387D1, size: 0x8, addend: 0x0, symName: __ZNKSt3__18ios_base5rdbufB8ue170006Ev, symObjAddr: 0xC094, symBinAddr: 0x10000FFBC, symSize: 0x18 }
  - { offsetInCU: 0x387F7, offset: 0x387F7, size: 0x8, addend: 0x0, symName: __ZNSt3__111char_traitsIcE11eq_int_typeB8ue170006Eii, symObjAddr: 0xC0AC, symBinAddr: 0x10000FFD4, symSize: 0x28 }
  - { offsetInCU: 0x3882A, offset: 0x3882A, size: 0x8, addend: 0x0, symName: __ZNSt3__111char_traitsIcE3eofB8ue170006Ev, symObjAddr: 0xC0D4, symBinAddr: 0x10000FFFC, symSize: 0x8 }
  - { offsetInCU: 0x3883E, offset: 0x3883E, size: 0x8, addend: 0x0, symName: __ZNKSt3__19basic_iosIcNS_11char_traitsIcEEE5widenB8ue170006Ec, symObjAddr: 0xC0DC, symBinAddr: 0x100010004, symSize: 0x84 }
  - { offsetInCU: 0x388A5, offset: 0x388A5, size: 0x8, addend: 0x0, symName: __ZNKSt3__15ctypeIcE5widenB8ue170006Ec, symObjAddr: 0xC18C, symBinAddr: 0x1000100B4, symSize: 0x38 }
  - { offsetInCU: 0x388DA, offset: 0x388DA, size: 0x8, addend: 0x0, symName: __ZNSt3__18ios_base8setstateB8ue170006Ej, symObjAddr: 0xC1C4, symBinAddr: 0x1000100EC, symSize: 0x34 }
  - { offsetInCU: 0x38911, offset: 0x38911, size: 0x8, addend: 0x0, symName: __ZNSt3__16__treeINS_12__value_typeINS_12basic_stringIcNS_11char_traitsIcEENS_9allocatorIcEEEE8CellTypeEENS_19__map_value_compareIS7_S9_NS_4lessIS7_EELb1EEENS5_IS9_EEE4findIS7_EENS_15__tree_iteratorIS9_PNS_11__tree_nodeIS9_PvEElEERKT_, symObjAddr: 0xC1F8, symBinAddr: 0x100010120, symSize: 0xF8 }
  - { offsetInCU: 0x38960, offset: 0x38960, size: 0x8, addend: 0x0, symName: __ZNSt3__114__map_iteratorINS_15__tree_iteratorINS_12__value_typeINS_12basic_stringIcNS_11char_traitsIcEENS_9allocatorIcEEEE8CellTypeEEPNS_11__tree_nodeISA_PvEElEEEC1B8ue170006ESF_, symObjAddr: 0xC2F0, symBinAddr: 0x100010218, symSize: 0x34 }
  - { offsetInCU: 0x38999, offset: 0x38999, size: 0x8, addend: 0x0, symName: __ZNSt3__16__treeINS_12__value_typeINS_12basic_stringIcNS_11char_traitsIcEENS_9allocatorIcEEEE8CellTypeEENS_19__map_value_compareIS7_S9_NS_4lessIS7_EELb1EEENS5_IS9_EEE13__lower_boundIS7_EENS_15__tree_iteratorIS9_PNS_11__tree_nodeIS9_PvEElEERKT_SL_PNS_15__tree_end_nodeIPNS_16__tree_node_baseISJ_EEEE, symObjAddr: 0xC324, symBinAddr: 0x10001024C, symSize: 0xA4 }
  - { offsetInCU: 0x389F7, offset: 0x389F7, size: 0x8, addend: 0x0, symName: __ZNSt3__16__treeINS_12__value_typeINS_12basic_stringIcNS_11char_traitsIcEENS_9allocatorIcEEEE8CellTypeEENS_19__map_value_compareIS7_S9_NS_4lessIS7_EELb1EEENS5_IS9_EEE3endB8ue170006Ev, symObjAddr: 0xC3FC, symBinAddr: 0x100010324, symSize: 0x34 }
  - { offsetInCU: 0x38A1D, offset: 0x38A1D, size: 0x8, addend: 0x0, symName: __ZNSt3__16__treeINS_12__value_typeINS_12basic_stringIcNS_11char_traitsIcEENS_9allocatorIcEEEE8CellTypeEENS_19__map_value_compareIS7_S9_NS_4lessIS7_EELb1EEENS5_IS9_EEE10value_compB8ue170006Ev, symObjAddr: 0xC430, symBinAddr: 0x100010358, symSize: 0x28 }
  - { offsetInCU: 0x38A43, offset: 0x38A43, size: 0x8, addend: 0x0, symName: __ZNKSt3__119__map_value_compareINS_12basic_stringIcNS_11char_traitsIcEENS_9allocatorIcEEEENS_12__value_typeIS6_8CellTypeEENS_4lessIS6_EELb1EEclB8ue170006ERKS6_RKS9_, symObjAddr: 0xC458, symBinAddr: 0x100010380, symSize: 0x50 }
  - { offsetInCU: 0x38A87, offset: 0x38A87, size: 0x8, addend: 0x0, symName: __ZNKSt3__115__tree_iteratorINS_12__value_typeINS_12basic_stringIcNS_11char_traitsIcEENS_9allocatorIcEEEE8CellTypeEEPNS_11__tree_nodeIS9_PvEElEdeB8ue170006Ev, symObjAddr: 0xC4A8, symBinAddr: 0x1000103D0, symSize: 0x28 }
  - { offsetInCU: 0x38AAD, offset: 0x38AAD, size: 0x8, addend: 0x0, symName: __ZNKSt3__119__map_value_compareINS_12basic_stringIcNS_11char_traitsIcEENS_9allocatorIcEEEENS_12__value_typeIS6_8CellTypeEENS_4lessIS6_EELb1EEclB8ue170006ERKS9_RKS6_, symObjAddr: 0xC4D0, symBinAddr: 0x1000103F8, symSize: 0x48 }
  - { offsetInCU: 0x38AF1, offset: 0x38AF1, size: 0x8, addend: 0x0, symName: __ZNSt3__115__tree_iteratorINS_12__value_typeINS_12basic_stringIcNS_11char_traitsIcEENS_9allocatorIcEEEE8CellTypeEEPNS_11__tree_nodeIS9_PvEElEC1B8ue170006EPNS_15__tree_end_nodeIPNS_16__tree_node_baseISB_EEEE, symObjAddr: 0xC518, symBinAddr: 0x100010440, symSize: 0x34 }
  - { offsetInCU: 0x38B2A, offset: 0x38B2A, size: 0x8, addend: 0x0, symName: __ZNKSt3__14lessINS_12basic_stringIcNS_11char_traitsIcEENS_9allocatorIcEEEEEclB8ue170006ERKS6_S9_, symObjAddr: 0xC54C, symBinAddr: 0x100010474, symSize: 0x34 }
  - { offsetInCU: 0x38B6E, offset: 0x38B6E, size: 0x8, addend: 0x0, symName: __ZNKSt3__112__value_typeINS_12basic_stringIcNS_11char_traitsIcEENS_9allocatorIcEEEE8CellTypeE11__get_valueB8ue170006Ev, symObjAddr: 0xC580, symBinAddr: 0x1000104A8, symSize: 0x14 }
  - { offsetInCU: 0x38B94, offset: 0x38B94, size: 0x8, addend: 0x0, symName: __ZNKSt3__112basic_stringIcNS_11char_traitsIcEENS_9allocatorIcEEE7compareB8ue170006ERKS5_, symObjAddr: 0xC5CC, symBinAddr: 0x1000104F4, symSize: 0x4C }
  - { offsetInCU: 0x38BCB, offset: 0x38BCB, size: 0x8, addend: 0x0, symName: __ZNKSt3__112basic_stringIcNS_11char_traitsIcEENS_9allocatorIcEEE7compareINS_17basic_string_viewIcS2_EELi0EEEiRKT_, symObjAddr: 0xC618, symBinAddr: 0x100010540, symSize: 0x12C }
  - { offsetInCU: 0x38C4E, offset: 0x38C4E, size: 0x8, addend: 0x0, symName: __ZNKSt3__112basic_stringIcNS_11char_traitsIcEENS_9allocatorIcEEEcvNS_17basic_string_viewIcS2_EEB8ue170006Ev, symObjAddr: 0xC744, symBinAddr: 0x10001066C, symSize: 0x50 }
  - { offsetInCU: 0x38C74, offset: 0x38C74, size: 0x8, addend: 0x0, symName: __ZNKSt3__117basic_string_viewIcNS_11char_traitsIcEEE4sizeB8ue170006Ev, symObjAddr: 0xC794, symBinAddr: 0x1000106BC, symSize: 0x18 }
  - { offsetInCU: 0x38C9A, offset: 0x38C9A, size: 0x8, addend: 0x0, symName: __ZNSt3__111char_traitsIcE7compareB8ue170006EPKcS3_m, symObjAddr: 0xC7AC, symBinAddr: 0x1000106D4, symSize: 0x34 }
  - { offsetInCU: 0x38CD9, offset: 0x38CD9, size: 0x8, addend: 0x0, symName: __ZNKSt3__117basic_string_viewIcNS_11char_traitsIcEEE4dataB8ue170006Ev, symObjAddr: 0xC7E0, symBinAddr: 0x100010708, symSize: 0x18 }
  - { offsetInCU: 0x38CFF, offset: 0x38CFF, size: 0x8, addend: 0x0, symName: __ZNSt3__117basic_string_viewIcNS_11char_traitsIcEEEC1B8ue170006EPKcm, symObjAddr: 0xC7F8, symBinAddr: 0x100010720, symSize: 0x3C }
  - { offsetInCU: 0x38D47, offset: 0x38D47, size: 0x8, addend: 0x0, symName: __ZNSt3__117basic_string_viewIcNS_11char_traitsIcEEEC2B8ue170006EPKcm, symObjAddr: 0xC834, symBinAddr: 0x10001075C, symSize: 0x2C }
  - { offsetInCU: 0x38D8F, offset: 0x38D8F, size: 0x8, addend: 0x0, symName: __ZNSt3__115__tree_iteratorINS_12__value_typeINS_12basic_stringIcNS_11char_traitsIcEENS_9allocatorIcEEEE8CellTypeEEPNS_11__tree_nodeIS9_PvEElEC2B8ue170006EPNS_15__tree_end_nodeIPNS_16__tree_node_baseISB_EEEE, symObjAddr: 0xC860, symBinAddr: 0x100010788, symSize: 0x20 }
  - { offsetInCU: 0x38DC8, offset: 0x38DC8, size: 0x8, addend: 0x0, symName: __ZNSt3__117__compressed_pairImNS_19__map_value_compareINS_12basic_stringIcNS_11char_traitsIcEENS_9allocatorIcEEEENS_12__value_typeIS7_8CellTypeEENS_4lessIS7_EELb1EEEE6secondB8ue170006Ev, symObjAddr: 0xC8B0, symBinAddr: 0x1000107D8, symSize: 0x24 }
  - { offsetInCU: 0x38DEE, offset: 0x38DEE, size: 0x8, addend: 0x0, symName: __ZNSt3__122__compressed_pair_elemINS_19__map_value_compareINS_12basic_stringIcNS_11char_traitsIcEENS_9allocatorIcEEEENS_12__value_typeIS7_8CellTypeEENS_4lessIS7_EELb1EEELi1ELb1EE5__getB8ue170006Ev, symObjAddr: 0xC8D4, symBinAddr: 0x1000107FC, symSize: 0x14 }
  - { offsetInCU: 0x38E14, offset: 0x38E14, size: 0x8, addend: 0x0, symName: __ZNSt3__114__map_iteratorINS_15__tree_iteratorINS_12__value_typeINS_12basic_stringIcNS_11char_traitsIcEENS_9allocatorIcEEEE8CellTypeEEPNS_11__tree_nodeISA_PvEElEEEC2B8ue170006ESF_, symObjAddr: 0xC8E8, symBinAddr: 0x100010810, symSize: 0x20 }
  - { offsetInCU: 0x38E4D, offset: 0x38E4D, size: 0x8, addend: 0x0, symName: __ZNSt3__111char_traitsIcE4findB8ue170006EPKcmRS2_, symObjAddr: 0xCB40, symBinAddr: 0x100010A68, symSize: 0x70 }
  - { offsetInCU: 0x38E8C, offset: 0x38E8C, size: 0x8, addend: 0x0, symName: __ZNSt3__13mapINS_12basic_stringIcNS_11char_traitsIcEENS_9allocatorIcEEEENS0_IS6_fNS_4lessIS6_EENS4_INS_4pairIKS6_fEEEEEES8_NS4_INS9_ISA_SD_EEEEEC2B8ue170006Ev, symObjAddr: 0xCBF0, symBinAddr: 0x100010B18, symSize: 0x40 }
  - { offsetInCU: 0x38EB6, offset: 0x38EB6, size: 0x8, addend: 0x0, symName: __ZNSt3__119__map_value_compareINS_12basic_stringIcNS_11char_traitsIcEENS_9allocatorIcEEEENS_12__value_typeIS6_NS_3mapIS6_fNS_4lessIS6_EENS4_INS_4pairIKS6_fEEEEEEEESA_Lb1EEC1B8ue170006ESA_, symObjAddr: 0xCC30, symBinAddr: 0x100010B58, symSize: 0x2C }
  - { offsetInCU: 0x38EEF, offset: 0x38EEF, size: 0x8, addend: 0x0, symName: __ZNSt3__16__treeINS_12__value_typeINS_12basic_stringIcNS_11char_traitsIcEENS_9allocatorIcEEEENS_3mapIS7_fNS_4lessIS7_EENS5_INS_4pairIKS7_fEEEEEEEENS_19__map_value_compareIS7_SG_SA_Lb1EEENS5_ISG_EEEC1ERKSI_, symObjAddr: 0xCC5C, symBinAddr: 0x100010B84, symSize: 0x34 }
  - { offsetInCU: 0x38F2A, offset: 0x38F2A, size: 0x8, addend: 0x0, symName: __ZNSt3__119__map_value_compareINS_12basic_stringIcNS_11char_traitsIcEENS_9allocatorIcEEEENS_12__value_typeIS6_NS_3mapIS6_fNS_4lessIS6_EENS4_INS_4pairIKS6_fEEEEEEEESA_Lb1EEC2B8ue170006ESA_, symObjAddr: 0xCC90, symBinAddr: 0x100010BB8, symSize: 0x14 }
  - { offsetInCU: 0x38F63, offset: 0x38F63, size: 0x8, addend: 0x0, symName: __ZNSt3__16__treeINS_12__value_typeINS_12basic_stringIcNS_11char_traitsIcEENS_9allocatorIcEEEENS_3mapIS7_fNS_4lessIS7_EENS5_INS_4pairIKS7_fEEEEEEEENS_19__map_value_compareIS7_SG_SA_Lb1EEENS5_ISG_EEEC2ERKSI_, symObjAddr: 0xCCA4, symBinAddr: 0x100010BCC, symSize: 0x7C }
  - { offsetInCU: 0x38F9E, offset: 0x38F9E, size: 0x8, addend: 0x0, symName: __ZNSt3__117__compressed_pairINS_15__tree_end_nodeIPNS_16__tree_node_baseIPvEEEENS_9allocatorINS_11__tree_nodeINS_12__value_typeINS_12basic_stringIcNS_11char_traitsIcEENS7_IcEEEENS_3mapISE_fNS_4lessISE_EENS7_INS_4pairIKSE_fEEEEEEEES3_EEEEEC1B8ue170006ILb1EvEEv, symObjAddr: 0xCD20, symBinAddr: 0x100010C48, symSize: 0x2C }
  - { offsetInCU: 0x38FD3, offset: 0x38FD3, size: 0x8, addend: 0x0, symName: __ZNSt3__117__compressed_pairImNS_19__map_value_compareINS_12basic_stringIcNS_11char_traitsIcEENS_9allocatorIcEEEENS_12__value_typeIS7_NS_3mapIS7_fNS_4lessIS7_EENS5_INS_4pairIKS7_fEEEEEEEESB_Lb1EEEEC1B8ue170006IiRKSI_EEOT_OT0_, symObjAddr: 0xCD4C, symBinAddr: 0x100010C74, symSize: 0x3C }
  - { offsetInCU: 0x3902B, offset: 0x3902B, size: 0x8, addend: 0x0, symName: __ZNSt3__16__treeINS_12__value_typeINS_12basic_stringIcNS_11char_traitsIcEENS_9allocatorIcEEEENS_3mapIS7_fNS_4lessIS7_EENS5_INS_4pairIKS7_fEEEEEEEENS_19__map_value_compareIS7_SG_SA_Lb1EEENS5_ISG_EEE10__end_nodeB8ue170006Ev, symObjAddr: 0xCD88, symBinAddr: 0x100010CB0, symSize: 0x2C }
  - { offsetInCU: 0x39051, offset: 0x39051, size: 0x8, addend: 0x0, symName: __ZNSt3__16__treeINS_12__value_typeINS_12basic_stringIcNS_11char_traitsIcEENS_9allocatorIcEEEENS_3mapIS7_fNS_4lessIS7_EENS5_INS_4pairIKS7_fEEEEEEEENS_19__map_value_compareIS7_SG_SA_Lb1EEENS5_ISG_EEE12__begin_nodeB8ue170006Ev, symObjAddr: 0xCDB4, symBinAddr: 0x100010CDC, symSize: 0x14 }
  - { offsetInCU: 0x39077, offset: 0x39077, size: 0x8, addend: 0x0, symName: __ZNSt3__117__compressed_pairINS_15__tree_end_nodeIPNS_16__tree_node_baseIPvEEEENS_9allocatorINS_11__tree_nodeINS_12__value_typeINS_12basic_stringIcNS_11char_traitsIcEENS7_IcEEEENS_3mapISE_fNS_4lessISE_EENS7_INS_4pairIKSE_fEEEEEEEES3_EEEEEC2B8ue170006ILb1EvEEv, symObjAddr: 0xCDC8, symBinAddr: 0x100010CF0, symSize: 0x34 }
  - { offsetInCU: 0x390AC, offset: 0x390AC, size: 0x8, addend: 0x0, symName: __ZNSt3__122__compressed_pair_elemINS_9allocatorINS_11__tree_nodeINS_12__value_typeINS_12basic_stringIcNS_11char_traitsIcEENS1_IcEEEENS_3mapIS8_fNS_4lessIS8_EENS1_INS_4pairIKS8_fEEEEEEEEPvEEEELi1ELb1EEC2B8ue170006ENS_16__value_init_tagE, symObjAddr: 0xCDFC, symBinAddr: 0x100010D24, symSize: 0x2C }
  - { offsetInCU: 0x390E0, offset: 0x390E0, size: 0x8, addend: 0x0, symName: __ZNSt3__19allocatorINS_11__tree_nodeINS_12__value_typeINS_12basic_stringIcNS_11char_traitsIcEENS0_IcEEEENS_3mapIS7_fNS_4lessIS7_EENS0_INS_4pairIKS7_fEEEEEEEEPvEEEC2B8ue170006Ev, symObjAddr: 0xCE28, symBinAddr: 0x100010D50, symSize: 0x2C }
  - { offsetInCU: 0x3910A, offset: 0x3910A, size: 0x8, addend: 0x0, symName: __ZNSt3__116__non_trivial_ifILb1ENS_9allocatorINS_11__tree_nodeINS_12__value_typeINS_12basic_stringIcNS_11char_traitsIcEENS1_IcEEEENS_3mapIS8_fNS_4lessIS8_EENS1_INS_4pairIKS8_fEEEEEEEEPvEEEEEC2B8ue170006Ev, symObjAddr: 0xCE54, symBinAddr: 0x100010D7C, symSize: 0x14 }
  - { offsetInCU: 0x39134, offset: 0x39134, size: 0x8, addend: 0x0, symName: __ZNSt3__117__compressed_pairImNS_19__map_value_compareINS_12basic_stringIcNS_11char_traitsIcEENS_9allocatorIcEEEENS_12__value_typeIS7_NS_3mapIS7_fNS_4lessIS7_EENS5_INS_4pairIKS7_fEEEEEEEESB_Lb1EEEEC2B8ue170006IiRKSI_EEOT_OT0_, symObjAddr: 0xCE68, symBinAddr: 0x100010D90, symSize: 0x44 }
  - { offsetInCU: 0x3918C, offset: 0x3918C, size: 0x8, addend: 0x0, symName: __ZNSt3__122__compressed_pair_elemINS_19__map_value_compareINS_12basic_stringIcNS_11char_traitsIcEENS_9allocatorIcEEEENS_12__value_typeIS7_NS_3mapIS7_fNS_4lessIS7_EENS5_INS_4pairIKS7_fEEEEEEEESB_Lb1EEELi1ELb1EEC2B8ue170006IRKSI_vEEOT_, symObjAddr: 0xCEAC, symBinAddr: 0x100010DD4, symSize: 0x18 }
  - { offsetInCU: 0x391CE, offset: 0x391CE, size: 0x8, addend: 0x0, symName: __ZNSt3__117__compressed_pairINS_15__tree_end_nodeIPNS_16__tree_node_baseIPvEEEENS_9allocatorINS_11__tree_nodeINS_12__value_typeINS_12basic_stringIcNS_11char_traitsIcEENS7_IcEEEENS_3mapISE_fNS_4lessISE_EENS7_INS_4pairIKSE_fEEEEEEEES3_EEEEE5firstB8ue170006Ev, symObjAddr: 0xCEC4, symBinAddr: 0x100010DEC, symSize: 0x24 }
  - { offsetInCU: 0x391F4, offset: 0x391F4, size: 0x8, addend: 0x0, symName: __ZNSt3__13mapINS_12basic_stringIcNS_11char_traitsIcEENS_9allocatorIcEEEENS0_IS6_fNS_4lessIS6_EENS4_INS_4pairIKS6_fEEEEEES8_NS4_INS9_ISA_SD_EEEEED2B8ue170006Ev, symObjAddr: 0xCEE8, symBinAddr: 0x100010E10, symSize: 0x2C }
  - { offsetInCU: 0x3921E, offset: 0x3921E, size: 0x8, addend: 0x0, symName: __ZNSt3__16__treeINS_12__value_typeINS_12basic_stringIcNS_11char_traitsIcEENS_9allocatorIcEEEENS_3mapIS7_fNS_4lessIS7_EENS5_INS_4pairIKS7_fEEEEEEEENS_19__map_value_compareIS7_SG_SA_Lb1EEENS5_ISG_EEED1Ev, symObjAddr: 0xCF14, symBinAddr: 0x100010E3C, symSize: 0x2C }
  - { offsetInCU: 0x3924A, offset: 0x3924A, size: 0x8, addend: 0x0, symName: __ZNSt3__16__treeINS_12__value_typeINS_12basic_stringIcNS_11char_traitsIcEENS_9allocatorIcEEEENS_3mapIS7_fNS_4lessIS7_EENS5_INS_4pairIKS7_fEEEEEEEENS_19__map_value_compareIS7_SG_SA_Lb1EEENS5_ISG_EEED2Ev, symObjAddr: 0xCF40, symBinAddr: 0x100010E68, symSize: 0x38 }
  - { offsetInCU: 0x39276, offset: 0x39276, size: 0x8, addend: 0x0, symName: __ZNSt3__16__treeINS_12__value_typeINS_12basic_stringIcNS_11char_traitsIcEENS_9allocatorIcEEEENS_3mapIS7_fNS_4lessIS7_EENS5_INS_4pairIKS7_fEEEEEEEENS_19__map_value_compareIS7_SG_SA_Lb1EEENS5_ISG_EEE7destroyEPNS_11__tree_nodeISG_PvEE, symObjAddr: 0xCF78, symBinAddr: 0x100010EA0, symSize: 0xAC }
  - { offsetInCU: 0x392C2, offset: 0x392C2, size: 0x8, addend: 0x0, symName: __ZNKSt3__16__treeINS_12__value_typeINS_12basic_stringIcNS_11char_traitsIcEENS_9allocatorIcEEEENS_3mapIS7_fNS_4lessIS7_EENS5_INS_4pairIKS7_fEEEEEEEENS_19__map_value_compareIS7_SG_SA_Lb1EEENS5_ISG_EEE6__rootB8ue170006Ev, symObjAddr: 0xD024, symBinAddr: 0x100010F4C, symSize: 0x28 }
  - { offsetInCU: 0x392E8, offset: 0x392E8, size: 0x8, addend: 0x0, symName: __ZNSt3__16__treeINS_12__value_typeINS_12basic_stringIcNS_11char_traitsIcEENS_9allocatorIcEEEENS_3mapIS7_fNS_4lessIS7_EENS5_INS_4pairIKS7_fEEEEEEEENS_19__map_value_compareIS7_SG_SA_Lb1EEENS5_ISG_EEE12__node_allocB8ue170006Ev, symObjAddr: 0xD04C, symBinAddr: 0x100010F74, symSize: 0x28 }
  - { offsetInCU: 0x3930E, offset: 0x3930E, size: 0x8, addend: 0x0, symName: __ZNSt3__116allocator_traitsINS_9allocatorINS_11__tree_nodeINS_12__value_typeINS_12basic_stringIcNS_11char_traitsIcEENS1_IcEEEENS_3mapIS8_fNS_4lessIS8_EENS1_INS_4pairIKS8_fEEEEEEEEPvEEEEE7destroyB8ue170006INSC_ISD_SG_EEvvEEvRSK_PT_, symObjAddr: 0xD074, symBinAddr: 0x100010F9C, symSize: 0x28 }
  - { offsetInCU: 0x39349, offset: 0x39349, size: 0x8, addend: 0x0, symName: __ZNSt3__122__tree_key_value_typesINS_12__value_typeINS_12basic_stringIcNS_11char_traitsIcEENS_9allocatorIcEEEENS_3mapIS7_fNS_4lessIS7_EENS5_INS_4pairIKS7_fEEEEEEEEE9__get_ptrB8ue170006ERSG_, symObjAddr: 0xD09C, symBinAddr: 0x100010FC4, symSize: 0x24 }
  - { offsetInCU: 0x3936D, offset: 0x3936D, size: 0x8, addend: 0x0, symName: __ZNSt3__116allocator_traitsINS_9allocatorINS_11__tree_nodeINS_12__value_typeINS_12basic_stringIcNS_11char_traitsIcEENS1_IcEEEENS_3mapIS8_fNS_4lessIS8_EENS1_INS_4pairIKS8_fEEEEEEEEPvEEEEE10deallocateB8ue170006ERSK_PSJ_m, symObjAddr: 0xD0C0, symBinAddr: 0x100010FE8, symSize: 0x34 }
  - { offsetInCU: 0x393AF, offset: 0x393AF, size: 0x8, addend: 0x0, symName: __ZNSt3__117__compressed_pairINS_15__tree_end_nodeIPNS_16__tree_node_baseIPvEEEENS_9allocatorINS_11__tree_nodeINS_12__value_typeINS_12basic_stringIcNS_11char_traitsIcEENS7_IcEEEENS_3mapISE_fNS_4lessISE_EENS7_INS_4pairIKSE_fEEEEEEEES3_EEEEE6secondB8ue170006Ev, symObjAddr: 0xD0F4, symBinAddr: 0x10001101C, symSize: 0x24 }
  - { offsetInCU: 0x393D5, offset: 0x393D5, size: 0x8, addend: 0x0, symName: __ZNSt3__122__compressed_pair_elemINS_9allocatorINS_11__tree_nodeINS_12__value_typeINS_12basic_stringIcNS_11char_traitsIcEENS1_IcEEEENS_3mapIS8_fNS_4lessIS8_EENS1_INS_4pairIKS8_fEEEEEEEEPvEEEELi1ELb1EE5__getB8ue170006Ev, symObjAddr: 0xD118, symBinAddr: 0x100011040, symSize: 0x14 }
  - { offsetInCU: 0x393FB, offset: 0x393FB, size: 0x8, addend: 0x0, symName: __ZNSt3__14pairIKNS_12basic_stringIcNS_11char_traitsIcEENS_9allocatorIcEEEENS_3mapIS6_fNS_4lessIS6_EENS4_INS0_IS7_fEEEEEEED1Ev, symObjAddr: 0xD12C, symBinAddr: 0x100011054, symSize: 0x2C }
  - { offsetInCU: 0x39427, offset: 0x39427, size: 0x8, addend: 0x0, symName: __ZNSt3__14pairIKNS_12basic_stringIcNS_11char_traitsIcEENS_9allocatorIcEEEENS_3mapIS6_fNS_4lessIS6_EENS4_INS0_IS7_fEEEEEEED2Ev, symObjAddr: 0xD158, symBinAddr: 0x100011080, symSize: 0x38 }
  - { offsetInCU: 0x39453, offset: 0x39453, size: 0x8, addend: 0x0, symName: __ZNSt3__112__value_typeINS_12basic_stringIcNS_11char_traitsIcEENS_9allocatorIcEEEENS_3mapIS6_fNS_4lessIS6_EENS4_INS_4pairIKS6_fEEEEEEE11__get_valueB8ue170006Ev, symObjAddr: 0xD190, symBinAddr: 0x1000110B8, symSize: 0x14 }
  - { offsetInCU: 0x39479, offset: 0x39479, size: 0x8, addend: 0x0, symName: __ZNSt3__19allocatorINS_11__tree_nodeINS_12__value_typeINS_12basic_stringIcNS_11char_traitsIcEENS0_IcEEEENS_3mapIS7_fNS_4lessIS7_EENS0_INS_4pairIKS7_fEEEEEEEEPvEEE10deallocateB8ue170006EPSI_m, symObjAddr: 0xD1A4, symBinAddr: 0x1000110CC, symSize: 0x44 }
  - { offsetInCU: 0x394BB, offset: 0x394BB, size: 0x8, addend: 0x0, symName: __ZNKSt3__16__treeINS_12__value_typeINS_12basic_stringIcNS_11char_traitsIcEENS_9allocatorIcEEEENS_3mapIS7_fNS_4lessIS7_EENS5_INS_4pairIKS7_fEEEEEEEENS_19__map_value_compareIS7_SG_SA_Lb1EEENS5_ISG_EEE10__end_nodeB8ue170006Ev, symObjAddr: 0xD1E8, symBinAddr: 0x100011110, symSize: 0x2C }
  - { offsetInCU: 0x394E1, offset: 0x394E1, size: 0x8, addend: 0x0, symName: __ZNKSt3__117__compressed_pairINS_15__tree_end_nodeIPNS_16__tree_node_baseIPvEEEENS_9allocatorINS_11__tree_nodeINS_12__value_typeINS_12basic_stringIcNS_11char_traitsIcEENS7_IcEEEENS_3mapISE_fNS_4lessISE_EENS7_INS_4pairIKSE_fEEEEEEEES3_EEEEE5firstB8ue170006Ev, symObjAddr: 0xD214, symBinAddr: 0x10001113C, symSize: 0x24 }
  - { offsetInCU: 0x39507, offset: 0x39507, size: 0x8, addend: 0x0, symName: __ZNSt3__123mersenne_twister_engineIjLm32ELm624ELm397ELm31ELj2567483615ELm11ELj4294967295ELm7ELj2636928640ELm15ELj4022730752ELm18ELj1812433253EEC2B8ue170006Ej, symObjAddr: 0xD238, symBinAddr: 0x100011160, symSize: 0x34 }
  - { offsetInCU: 0x3953F, offset: 0x3953F, size: 0x8, addend: 0x0, symName: __ZNSt3__123mersenne_twister_engineIjLm32ELm624ELm397ELm31ELj2567483615ELm11ELj4294967295ELm7ELj2636928640ELm15ELj4022730752ELm18ELj1812433253EE4seedEj, symObjAddr: 0xD26C, symBinAddr: 0x100011194, symSize: 0xC4 }
  - { offsetInCU: 0x39592, offset: 0x39592, size: 0x8, addend: 0x0, symName: __ZNSt3__123mersenne_twister_engineIjLm32ELm624ELm397ELm31ELj2567483615ELm11ELj4294967295ELm7ELj2636928640ELm15ELj4022730752ELm18ELj1812433253EE8__rshiftB8ue170006ILm30EEENS_9enable_ifIXltT_L_ZNS1_3_DtEEEjE4typeEj, symObjAddr: 0xD330, symBinAddr: 0x100011258, symSize: 0x18 }
  - { offsetInCU: 0x395BF, offset: 0x395BF, size: 0x8, addend: 0x0, symName: __ZNSt3__125uniform_real_distributionIdEC2B8ue170006Edd, symObjAddr: 0xD348, symBinAddr: 0x100011270, symSize: 0x3C }
  - { offsetInCU: 0x39605, offset: 0x39605, size: 0x8, addend: 0x0, symName: __ZNSt3__125uniform_real_distributionIdE10param_typeC1B8ue170006Edd, symObjAddr: 0xD384, symBinAddr: 0x1000112AC, symSize: 0x3C }
  - { offsetInCU: 0x3964B, offset: 0x3964B, size: 0x8, addend: 0x0, symName: __ZNSt3__125uniform_real_distributionIdE10param_typeC2B8ue170006Edd, symObjAddr: 0xD3C0, symBinAddr: 0x1000112E8, symSize: 0x2C }
  - { offsetInCU: 0x39691, offset: 0x39691, size: 0x8, addend: 0x0, symName: __ZNSt3__19basic_iosIcNS_11char_traitsIcEEEC2B8ue170006Ev, symObjAddr: 0xD3EC, symBinAddr: 0x100011314, symSize: 0x44 }
  - { offsetInCU: 0x396BB, offset: 0x396BB, size: 0x8, addend: 0x0, symName: __ZNSt3__113basic_ostreamIcNS_11char_traitsIcEEEC2B8ue170006EPNS_15basic_streambufIcS2_EE, symObjAddr: 0xD430, symBinAddr: 0x100011358, symSize: 0x60 }
  - { offsetInCU: 0x39700, offset: 0x39700, size: 0x8, addend: 0x0, symName: __ZNSt3__113basic_filebufIcNS_11char_traitsIcEEE4openERKNS_12basic_stringIcS2_NS_9allocatorIcEEEEj, symObjAddr: 0xD490, symBinAddr: 0x1000113B8, symSize: 0x44 }
  - { offsetInCU: 0x39744, offset: 0x39744, size: 0x8, addend: 0x0, symName: __ZNSt3__18ios_baseC2B8ue170006Ev, symObjAddr: 0xD4D4, symBinAddr: 0x1000113FC, symSize: 0x24 }
  - { offsetInCU: 0x3976E, offset: 0x3976E, size: 0x8, addend: 0x0, symName: __ZNSt3__19basic_iosIcNS_11char_traitsIcEEE4initB8ue170006EPNS_15basic_streambufIcS2_EE, symObjAddr: 0xD4F8, symBinAddr: 0x100011420, symSize: 0x44 }
  - { offsetInCU: 0x397A5, offset: 0x397A5, size: 0x8, addend: 0x0, symName: __ZNKSt3__112basic_stringIcNS_11char_traitsIcEENS_9allocatorIcEEE5c_strB8ue170006Ev, symObjAddr: 0xD53C, symBinAddr: 0x100011464, symSize: 0x24 }
  - { offsetInCU: 0x397CB, offset: 0x397CB, size: 0x8, addend: 0x0, symName: __ZNKSt3__113basic_filebufIcNS_11char_traitsIcEEE7is_openEv, symObjAddr: 0xD560, symBinAddr: 0x100011488, symSize: 0x24 }
  - { offsetInCU: 0x397F3, offset: 0x397F3, size: 0x8, addend: 0x0, symName: __ZNSt3__16vectorINS_12basic_stringIcNS_11char_traitsIcEENS_9allocatorIcEEEENS4_IS6_EEEC2B8ue170006Ev, symObjAddr: 0xD584, symBinAddr: 0x1000114AC, symSize: 0x4C }
  - { offsetInCU: 0x3981D, offset: 0x3981D, size: 0x8, addend: 0x0, symName: __ZNSt3__117__compressed_pairIPNS_12basic_stringIcNS_11char_traitsIcEENS_9allocatorIcEEEENS4_IS6_EEEC1B8ue170006IDnNS_18__default_init_tagEEEOT_OT0_, symObjAddr: 0xD5D0, symBinAddr: 0x1000114F8, symSize: 0x3C }
  - { offsetInCU: 0x39875, offset: 0x39875, size: 0x8, addend: 0x0, symName: __ZNSt3__117__compressed_pairIPNS_12basic_stringIcNS_11char_traitsIcEENS_9allocatorIcEEEENS4_IS6_EEEC2B8ue170006IDnNS_18__default_init_tagEEEOT_OT0_, symObjAddr: 0xD60C, symBinAddr: 0x100011534, symSize: 0x40 }
  - { offsetInCU: 0x398CD, offset: 0x398CD, size: 0x8, addend: 0x0, symName: __ZNSt3__122__compressed_pair_elemIPNS_12basic_stringIcNS_11char_traitsIcEENS_9allocatorIcEEEELi0ELb0EEC2B8ue170006IDnvEEOT_, symObjAddr: 0xD64C, symBinAddr: 0x100011574, symSize: 0x1C }
  - { offsetInCU: 0x3990F, offset: 0x3990F, size: 0x8, addend: 0x0, symName: __ZNSt3__122__compressed_pair_elemINS_9allocatorINS_12basic_stringIcNS_11char_traitsIcEENS1_IcEEEEEELi1ELb1EEC2B8ue170006ENS_18__default_init_tagE, symObjAddr: 0xD668, symBinAddr: 0x100011590, symSize: 0x2C }
  - { offsetInCU: 0x39943, offset: 0x39943, size: 0x8, addend: 0x0, symName: __ZNSt3__19allocatorINS_12basic_stringIcNS_11char_traitsIcEENS0_IcEEEEEC2B8ue170006Ev, symObjAddr: 0xD694, symBinAddr: 0x1000115BC, symSize: 0x2C }
  - { offsetInCU: 0x3996D, offset: 0x3996D, size: 0x8, addend: 0x0, symName: __ZNSt3__116__non_trivial_ifILb1ENS_9allocatorINS_12basic_stringIcNS_11char_traitsIcEENS1_IcEEEEEEEC2B8ue170006Ev, symObjAddr: 0xD6C0, symBinAddr: 0x1000115E8, symSize: 0x14 }
  - { offsetInCU: 0x39997, offset: 0x39997, size: 0x8, addend: 0x0, symName: __ZNSt3__16vectorINS_12basic_stringIcNS_11char_traitsIcEENS_9allocatorIcEEEENS4_IS6_EEED2B8ue170006Ev, symObjAddr: 0xD6D4, symBinAddr: 0x1000115FC, symSize: 0x44 }
  - { offsetInCU: 0x399C1, offset: 0x399C1, size: 0x8, addend: 0x0, symName: __ZNSt3__16vectorINS_12basic_stringIcNS_11char_traitsIcEENS_9allocatorIcEEEENS4_IS6_EEE16__destroy_vectorC1B8ue170006ERS8_, symObjAddr: 0xD718, symBinAddr: 0x100011640, symSize: 0x34 }
  - { offsetInCU: 0x399FA, offset: 0x399FA, size: 0x8, addend: 0x0, symName: __ZNSt3__16vectorINS_12basic_stringIcNS_11char_traitsIcEENS_9allocatorIcEEEENS4_IS6_EEE16__destroy_vectorclB8ue170006Ev, symObjAddr: 0xD74C, symBinAddr: 0x100011674, symSize: 0x90 }
  - { offsetInCU: 0x39A20, offset: 0x39A20, size: 0x8, addend: 0x0, symName: __ZNSt3__16vectorINS_12basic_stringIcNS_11char_traitsIcEENS_9allocatorIcEEEENS4_IS6_EEE16__destroy_vectorC2B8ue170006ERS8_, symObjAddr: 0xD7DC, symBinAddr: 0x100011704, symSize: 0x20 }
  - { offsetInCU: 0x39A59, offset: 0x39A59, size: 0x8, addend: 0x0, symName: __ZNSt3__16vectorINS_12basic_stringIcNS_11char_traitsIcEENS_9allocatorIcEEEENS4_IS6_EEE7__clearB8ue170006Ev, symObjAddr: 0xD7FC, symBinAddr: 0x100011724, symSize: 0x28 }
  - { offsetInCU: 0x39A7F, offset: 0x39A7F, size: 0x8, addend: 0x0, symName: __ZNKSt3__16vectorINS_12basic_stringIcNS_11char_traitsIcEENS_9allocatorIcEEEENS4_IS6_EEE17__annotate_deleteB8ue170006Ev, symObjAddr: 0xD824, symBinAddr: 0x10001174C, symSize: 0xD4 }
  - { offsetInCU: 0x39AA5, offset: 0x39AA5, size: 0x8, addend: 0x0, symName: __ZNSt3__116allocator_traitsINS_9allocatorINS_12basic_stringIcNS_11char_traitsIcEENS1_IcEEEEEEE10deallocateB8ue170006ERS7_PS6_m, symObjAddr: 0xD8F8, symBinAddr: 0x100011820, symSize: 0x34 }
  - { offsetInCU: 0x39AE7, offset: 0x39AE7, size: 0x8, addend: 0x0, symName: __ZNSt3__16vectorINS_12basic_stringIcNS_11char_traitsIcEENS_9allocatorIcEEEENS4_IS6_EEE7__allocB8ue170006Ev, symObjAddr: 0xD92C, symBinAddr: 0x100011854, symSize: 0x28 }
  - { offsetInCU: 0x39B0D, offset: 0x39B0D, size: 0x8, addend: 0x0, symName: __ZNKSt3__16vectorINS_12basic_stringIcNS_11char_traitsIcEENS_9allocatorIcEEEENS4_IS6_EEE8capacityB8ue170006Ev, symObjAddr: 0xD954, symBinAddr: 0x10001187C, symSize: 0x40 }
  - { offsetInCU: 0x39B33, offset: 0x39B33, size: 0x8, addend: 0x0, symName: __ZNSt3__16vectorINS_12basic_stringIcNS_11char_traitsIcEENS_9allocatorIcEEEENS4_IS6_EEE22__base_destruct_at_endB8ue170006EPS6_, symObjAddr: 0xD994, symBinAddr: 0x1000118BC, symSize: 0x8C }
  - { offsetInCU: 0x39B77, offset: 0x39B77, size: 0x8, addend: 0x0, symName: __ZNSt3__116allocator_traitsINS_9allocatorINS_12basic_stringIcNS_11char_traitsIcEENS1_IcEEEEEEE7destroyB8ue170006IS6_vEEvRS7_PT_, symObjAddr: 0xDA20, symBinAddr: 0x100011948, symSize: 0x2C }
  - { offsetInCU: 0x39BB4, offset: 0x39BB4, size: 0x8, addend: 0x0, symName: __ZNSt3__19allocatorINS_12basic_stringIcNS_11char_traitsIcEENS0_IcEEEEE7destroyB8ue170006EPS5_, symObjAddr: 0xDA60, symBinAddr: 0x100011988, symSize: 0x28 }
  - { offsetInCU: 0x39BE8, offset: 0x39BE8, size: 0x8, addend: 0x0, symName: __ZNKSt3__16vectorINS_12basic_stringIcNS_11char_traitsIcEENS_9allocatorIcEEEENS4_IS6_EEE31__annotate_contiguous_containerB8ue170006EPKvSA_SA_SA_, symObjAddr: 0xDA88, symBinAddr: 0x1000119B0, symSize: 0x20 }
  - { offsetInCU: 0x39C3E, offset: 0x39C3E, size: 0x8, addend: 0x0, symName: __ZNKSt3__16vectorINS_12basic_stringIcNS_11char_traitsIcEENS_9allocatorIcEEEENS4_IS6_EEE4dataB8ue170006Ev, symObjAddr: 0xDAA8, symBinAddr: 0x1000119D0, symSize: 0x28 }
  - { offsetInCU: 0x39C64, offset: 0x39C64, size: 0x8, addend: 0x0, symName: __ZNKSt3__16vectorINS_12basic_stringIcNS_11char_traitsIcEENS_9allocatorIcEEEENS4_IS6_EEE4sizeB8ue170006Ev, symObjAddr: 0xDAD0, symBinAddr: 0x1000119F8, symSize: 0x28 }
  - { offsetInCU: 0x39C8A, offset: 0x39C8A, size: 0x8, addend: 0x0, symName: __ZNSt3__19allocatorINS_12basic_stringIcNS_11char_traitsIcEENS0_IcEEEEE10deallocateB8ue170006EPS5_m, symObjAddr: 0xDAF8, symBinAddr: 0x100011A20, symSize: 0x44 }
  - { offsetInCU: 0x39CCC, offset: 0x39CCC, size: 0x8, addend: 0x0, symName: __ZNSt3__117__compressed_pairIPNS_12basic_stringIcNS_11char_traitsIcEENS_9allocatorIcEEEENS4_IS6_EEE6secondB8ue170006Ev, symObjAddr: 0xDB3C, symBinAddr: 0x100011A64, symSize: 0x24 }
  - { offsetInCU: 0x39CF2, offset: 0x39CF2, size: 0x8, addend: 0x0, symName: __ZNSt3__122__compressed_pair_elemINS_9allocatorINS_12basic_stringIcNS_11char_traitsIcEENS1_IcEEEEEELi1ELb1EE5__getB8ue170006Ev, symObjAddr: 0xDB60, symBinAddr: 0x100011A88, symSize: 0x14 }
  - { offsetInCU: 0x39D18, offset: 0x39D18, size: 0x8, addend: 0x0, symName: __ZNKSt3__16vectorINS_12basic_stringIcNS_11char_traitsIcEENS_9allocatorIcEEEENS4_IS6_EEE9__end_capB8ue170006Ev, symObjAddr: 0xDB74, symBinAddr: 0x100011A9C, symSize: 0x28 }
  - { offsetInCU: 0x39D3E, offset: 0x39D3E, size: 0x8, addend: 0x0, symName: __ZNKSt3__117__compressed_pairIPNS_12basic_stringIcNS_11char_traitsIcEENS_9allocatorIcEEEENS4_IS6_EEE5firstB8ue170006Ev, symObjAddr: 0xDB9C, symBinAddr: 0x100011AC4, symSize: 0x24 }
  - { offsetInCU: 0x39D64, offset: 0x39D64, size: 0x8, addend: 0x0, symName: __ZNKSt3__122__compressed_pair_elemIPNS_12basic_stringIcNS_11char_traitsIcEENS_9allocatorIcEEEELi0ELb0EE5__getB8ue170006Ev, symObjAddr: 0xDBC0, symBinAddr: 0x100011AE8, symSize: 0x14 }
  - { offsetInCU: 0x39D8A, offset: 0x39D8A, size: 0x8, addend: 0x0, symName: __ZNSt3__16__treeINS_12__value_typeINS_12basic_stringIcNS_11char_traitsIcEENS_9allocatorIcEEEENS_3mapIS7_fNS_4lessIS7_EENS5_INS_4pairIKS7_fEEEEEEEENS_19__map_value_compareIS7_SG_SA_Lb1EEENS5_ISG_EEE5beginB8ue170006Ev, symObjAddr: 0xDBD4, symBinAddr: 0x100011AFC, symSize: 0x34 }
  - { offsetInCU: 0x39DB0, offset: 0x39DB0, size: 0x8, addend: 0x0, symName: __ZNSt3__114__map_iteratorINS_15__tree_iteratorINS_12__value_typeINS_12basic_stringIcNS_11char_traitsIcEENS_9allocatorIcEEEENS_3mapIS8_fNS_4lessIS8_EENS6_INS_4pairIKS8_fEEEEEEEEPNS_11__tree_nodeISH_PvEElEEEC1B8ue170006ESM_, symObjAddr: 0xDC08, symBinAddr: 0x100011B30, symSize: 0x34 }
  - { offsetInCU: 0x39DE9, offset: 0x39DE9, size: 0x8, addend: 0x0, symName: __ZNSt3__115__tree_iteratorINS_12__value_typeINS_12basic_stringIcNS_11char_traitsIcEENS_9allocatorIcEEEENS_3mapIS7_fNS_4lessIS7_EENS5_INS_4pairIKS7_fEEEEEEEEPNS_11__tree_nodeISG_PvEElEC1B8ue170006EPNS_15__tree_end_nodeIPNS_16__tree_node_baseISI_EEEE, symObjAddr: 0xDC3C, symBinAddr: 0x100011B64, symSize: 0x34 }
  - { offsetInCU: 0x39E22, offset: 0x39E22, size: 0x8, addend: 0x0, symName: __ZNSt3__115__tree_iteratorINS_12__value_typeINS_12basic_stringIcNS_11char_traitsIcEENS_9allocatorIcEEEENS_3mapIS7_fNS_4lessIS7_EENS5_INS_4pairIKS7_fEEEEEEEEPNS_11__tree_nodeISG_PvEElEC2B8ue170006EPNS_15__tree_end_nodeIPNS_16__tree_node_baseISI_EEEE, symObjAddr: 0xDC70, symBinAddr: 0x100011B98, symSize: 0x20 }
  - { offsetInCU: 0x39E5B, offset: 0x39E5B, size: 0x8, addend: 0x0, symName: __ZNSt3__114__map_iteratorINS_15__tree_iteratorINS_12__value_typeINS_12basic_stringIcNS_11char_traitsIcEENS_9allocatorIcEEEENS_3mapIS8_fNS_4lessIS8_EENS6_INS_4pairIKS8_fEEEEEEEEPNS_11__tree_nodeISH_PvEElEEEC2B8ue170006ESM_, symObjAddr: 0xDC90, symBinAddr: 0x100011BB8, symSize: 0x20 }
  - { offsetInCU: 0x39E94, offset: 0x39E94, size: 0x8, addend: 0x0, symName: __ZNSt3__114pointer_traitsIPNS_4pairIKNS_12basic_stringIcNS_11char_traitsIcEENS_9allocatorIcEEEENS_3mapIS7_fNS_4lessIS7_EENS5_INS1_IS8_fEEEEEEEEE10pointer_toB8ue170006ERSF_, symObjAddr: 0xDCB0, symBinAddr: 0x100011BD8, symSize: 0x14 }
  - { offsetInCU: 0x39EB7, offset: 0x39EB7, size: 0x8, addend: 0x0, symName: __ZNKSt3__115__tree_iteratorINS_12__value_typeINS_12basic_stringIcNS_11char_traitsIcEENS_9allocatorIcEEEENS_3mapIS7_fNS_4lessIS7_EENS5_INS_4pairIKS7_fEEEEEEEEPNS_11__tree_nodeISG_PvEElEptB8ue170006Ev, symObjAddr: 0xDCC4, symBinAddr: 0x100011BEC, symSize: 0x2C }
  - { offsetInCU: 0x39EDD, offset: 0x39EDD, size: 0x8, addend: 0x0, symName: __ZNSt3__114pointer_traitsIPNS_12__value_typeINS_12basic_stringIcNS_11char_traitsIcEENS_9allocatorIcEEEENS_3mapIS7_fNS_4lessIS7_EENS5_INS_4pairIKS7_fEEEEEEEEE10pointer_toB8ue170006ERSG_, symObjAddr: 0xDCF0, symBinAddr: 0x100011C18, symSize: 0x14 }
  - { offsetInCU: 0x39F00, offset: 0x39F00, size: 0x8, addend: 0x0, symName: __ZNKSt3__115__tree_iteratorINS_12__value_typeINS_12basic_stringIcNS_11char_traitsIcEENS_9allocatorIcEEEENS_3mapIS7_fNS_4lessIS7_EENS5_INS_4pairIKS7_fEEEEEEEEPNS_11__tree_nodeISG_PvEElE8__get_npB8ue170006Ev, symObjAddr: 0xDD04, symBinAddr: 0x100011C2C, symSize: 0x18 }
  - { offsetInCU: 0x39F26, offset: 0x39F26, size: 0x8, addend: 0x0, symName: __ZNSt3__13mapINS_12basic_stringIcNS_11char_traitsIcEENS_9allocatorIcEEEEfNS_4lessIS6_EENS4_INS_4pairIKS6_fEEEEEC2B8ue170006ERKSD_, symObjAddr: 0xDD1C, symBinAddr: 0x100011C44, symSize: 0x88 }
  - { offsetInCU: 0x39F5F, offset: 0x39F5F, size: 0x8, addend: 0x0, symName: __ZNSt3__16__treeINS_12__value_typeINS_12basic_stringIcNS_11char_traitsIcEENS_9allocatorIcEEEEfEENS_19__map_value_compareIS7_S8_NS_4lessIS7_EELb1EEENS5_IS8_EEEC1ERKSE_, symObjAddr: 0xDDA4, symBinAddr: 0x100011CCC, symSize: 0x34 }
  - { offsetInCU: 0x39F9A, offset: 0x39F9A, size: 0x8, addend: 0x0, symName: __ZNSt3__13mapINS_12basic_stringIcNS_11char_traitsIcEENS_9allocatorIcEEEEfNS_4lessIS6_EENS4_INS_4pairIKS6_fEEEEE6insertB8ue170006INS_20__map_const_iteratorINS_21__tree_const_iteratorINS_12__value_typeIS6_fEEPNS_11__tree_nodeISI_PvEElEEEEEEvT_SP_, symObjAddr: 0xDDD8, symBinAddr: 0x100011D00, symSize: 0x8C }
  - { offsetInCU: 0x3A004, offset: 0x3A004, size: 0x8, addend: 0x0, symName: __ZNKSt3__13mapINS_12basic_stringIcNS_11char_traitsIcEENS_9allocatorIcEEEEfNS_4lessIS6_EENS4_INS_4pairIKS6_fEEEEE5beginB8ue170006Ev, symObjAddr: 0xDE64, symBinAddr: 0x100011D8C, symSize: 0x38 }
  - { offsetInCU: 0x3A02A, offset: 0x3A02A, size: 0x8, addend: 0x0, symName: __ZNKSt3__13mapINS_12basic_stringIcNS_11char_traitsIcEENS_9allocatorIcEEEEfNS_4lessIS6_EENS4_INS_4pairIKS6_fEEEEE3endB8ue170006Ev, symObjAddr: 0xDE9C, symBinAddr: 0x100011DC4, symSize: 0x38 }
  - { offsetInCU: 0x3A050, offset: 0x3A050, size: 0x8, addend: 0x0, symName: __ZNSt3__16__treeINS_12__value_typeINS_12basic_stringIcNS_11char_traitsIcEENS_9allocatorIcEEEEfEENS_19__map_value_compareIS7_S8_NS_4lessIS7_EELb1EEENS5_IS8_EEED1Ev, symObjAddr: 0xDED4, symBinAddr: 0x100011DFC, symSize: 0x2C }
  - { offsetInCU: 0x3A07C, offset: 0x3A07C, size: 0x8, addend: 0x0, symName: __ZNSt3__16__treeINS_12__value_typeINS_12basic_stringIcNS_11char_traitsIcEENS_9allocatorIcEEEEfEENS_19__map_value_compareIS7_S8_NS_4lessIS7_EELb1EEENS5_IS8_EEEC2ERKSE_, symObjAddr: 0xDF00, symBinAddr: 0x100011E28, symSize: 0x9C }
  - { offsetInCU: 0x3A0C3, offset: 0x3A0C3, size: 0x8, addend: 0x0, symName: __ZNSt3__116allocator_traitsINS_9allocatorINS_11__tree_nodeINS_12__value_typeINS_12basic_stringIcNS_11char_traitsIcEENS1_IcEEEEfEEPvEEEEE37select_on_container_copy_constructionB8ue170006ISC_vvEESC_RKSC_, symObjAddr: 0xDF9C, symBinAddr: 0x100011EC4, symSize: 0x10 }
  - { offsetInCU: 0x3A0F2, offset: 0x3A0F2, size: 0x8, addend: 0x0, symName: __ZNKSt3__16__treeINS_12__value_typeINS_12basic_stringIcNS_11char_traitsIcEENS_9allocatorIcEEEEfEENS_19__map_value_compareIS7_S8_NS_4lessIS7_EELb1EEENS5_IS8_EEE12__node_allocB8ue170006Ev, symObjAddr: 0xDFAC, symBinAddr: 0x100011ED4, symSize: 0x28 }
  - { offsetInCU: 0x3A11E, offset: 0x3A11E, size: 0x8, addend: 0x0, symName: __ZNSt3__117__compressed_pairINS_15__tree_end_nodeIPNS_16__tree_node_baseIPvEEEENS_9allocatorINS_11__tree_nodeINS_12__value_typeINS_12basic_stringIcNS_11char_traitsIcEENS7_IcEEEEfEES3_EEEEEC1B8ue170006INS_18__default_init_tagESH_EEOT_OT0_, symObjAddr: 0xDFD4, symBinAddr: 0x100011EFC, symSize: 0x3C }
  - { offsetInCU: 0x3A176, offset: 0x3A176, size: 0x8, addend: 0x0, symName: __ZNKSt3__16__treeINS_12__value_typeINS_12basic_stringIcNS_11char_traitsIcEENS_9allocatorIcEEEEfEENS_19__map_value_compareIS7_S8_NS_4lessIS7_EELb1EEENS5_IS8_EEE10value_compB8ue170006Ev, symObjAddr: 0xE010, symBinAddr: 0x100011F38, symSize: 0x28 }
  - { offsetInCU: 0x3A19C, offset: 0x3A19C, size: 0x8, addend: 0x0, symName: __ZNSt3__117__compressed_pairImNS_19__map_value_compareINS_12basic_stringIcNS_11char_traitsIcEENS_9allocatorIcEEEENS_12__value_typeIS7_fEENS_4lessIS7_EELb1EEEEC1B8ue170006IiRKSC_EEOT_OT0_, symObjAddr: 0xE038, symBinAddr: 0x100011F60, symSize: 0x3C }
  - { offsetInCU: 0x3A1F4, offset: 0x3A1F4, size: 0x8, addend: 0x0, symName: __ZNSt3__16__treeINS_12__value_typeINS_12basic_stringIcNS_11char_traitsIcEENS_9allocatorIcEEEEfEENS_19__map_value_compareIS7_S8_NS_4lessIS7_EELb1EEENS5_IS8_EEE10__end_nodeB8ue170006Ev, symObjAddr: 0xE074, symBinAddr: 0x100011F9C, symSize: 0x2C }
  - { offsetInCU: 0x3A21A, offset: 0x3A21A, size: 0x8, addend: 0x0, symName: __ZNSt3__16__treeINS_12__value_typeINS_12basic_stringIcNS_11char_traitsIcEENS_9allocatorIcEEEEfEENS_19__map_value_compareIS7_S8_NS_4lessIS7_EELb1EEENS5_IS8_EEE12__begin_nodeB8ue170006Ev, symObjAddr: 0xE0A0, symBinAddr: 0x100011FC8, symSize: 0x14 }
  - { offsetInCU: 0x3A240, offset: 0x3A240, size: 0x8, addend: 0x0, symName: __ZNKSt3__117__compressed_pairINS_15__tree_end_nodeIPNS_16__tree_node_baseIPvEEEENS_9allocatorINS_11__tree_nodeINS_12__value_typeINS_12basic_stringIcNS_11char_traitsIcEENS7_IcEEEEfEES3_EEEEE6secondB8ue170006Ev, symObjAddr: 0xE0B4, symBinAddr: 0x100011FDC, symSize: 0x24 }
  - { offsetInCU: 0x3A266, offset: 0x3A266, size: 0x8, addend: 0x0, symName: __ZNKSt3__122__compressed_pair_elemINS_9allocatorINS_11__tree_nodeINS_12__value_typeINS_12basic_stringIcNS_11char_traitsIcEENS1_IcEEEEfEEPvEEEELi1ELb1EE5__getB8ue170006Ev, symObjAddr: 0xE0D8, symBinAddr: 0x100012000, symSize: 0x14 }
  - { offsetInCU: 0x3A28C, offset: 0x3A28C, size: 0x8, addend: 0x0, symName: __ZNSt3__117__compressed_pairINS_15__tree_end_nodeIPNS_16__tree_node_baseIPvEEEENS_9allocatorINS_11__tree_nodeINS_12__value_typeINS_12basic_stringIcNS_11char_traitsIcEENS7_IcEEEEfEES3_EEEEEC2B8ue170006INS_18__default_init_tagESH_EEOT_OT0_, symObjAddr: 0xE0EC, symBinAddr: 0x100012014, symSize: 0x40 }
  - { offsetInCU: 0x3A2E4, offset: 0x3A2E4, size: 0x8, addend: 0x0, symName: __ZNSt3__122__compressed_pair_elemINS_15__tree_end_nodeIPNS_16__tree_node_baseIPvEEEELi0ELb0EEC2B8ue170006ENS_18__default_init_tagE, symObjAddr: 0xE12C, symBinAddr: 0x100012054, symSize: 0x2C }
  - { offsetInCU: 0x3A318, offset: 0x3A318, size: 0x8, addend: 0x0, symName: __ZNSt3__122__compressed_pair_elemINS_9allocatorINS_11__tree_nodeINS_12__value_typeINS_12basic_stringIcNS_11char_traitsIcEENS1_IcEEEEfEEPvEEEELi1ELb1EEC2B8ue170006ISC_vEEOT_, symObjAddr: 0xE158, symBinAddr: 0x100012080, symSize: 0x18 }
  - { offsetInCU: 0x3A35A, offset: 0x3A35A, size: 0x8, addend: 0x0, symName: __ZNKSt3__117__compressed_pairImNS_19__map_value_compareINS_12basic_stringIcNS_11char_traitsIcEENS_9allocatorIcEEEENS_12__value_typeIS7_fEENS_4lessIS7_EELb1EEEE6secondB8ue170006Ev, symObjAddr: 0xE170, symBinAddr: 0x100012098, symSize: 0x24 }
  - { offsetInCU: 0x3A380, offset: 0x3A380, size: 0x8, addend: 0x0, symName: __ZNKSt3__122__compressed_pair_elemINS_19__map_value_compareINS_12basic_stringIcNS_11char_traitsIcEENS_9allocatorIcEEEENS_12__value_typeIS7_fEENS_4lessIS7_EELb1EEELi1ELb1EE5__getB8ue170006Ev, symObjAddr: 0xE194, symBinAddr: 0x1000120BC, symSize: 0x14 }
  - { offsetInCU: 0x3A3A6, offset: 0x3A3A6, size: 0x8, addend: 0x0, symName: __ZNSt3__117__compressed_pairImNS_19__map_value_compareINS_12basic_stringIcNS_11char_traitsIcEENS_9allocatorIcEEEENS_12__value_typeIS7_fEENS_4lessIS7_EELb1EEEEC2B8ue170006IiRKSC_EEOT_OT0_, symObjAddr: 0xE1A8, symBinAddr: 0x1000120D0, symSize: 0x44 }
  - { offsetInCU: 0x3A3FE, offset: 0x3A3FE, size: 0x8, addend: 0x0, symName: __ZNSt3__122__compressed_pair_elemINS_19__map_value_compareINS_12basic_stringIcNS_11char_traitsIcEENS_9allocatorIcEEEENS_12__value_typeIS7_fEENS_4lessIS7_EELb1EEELi1ELb1EEC2B8ue170006IRKSC_vEEOT_, symObjAddr: 0xE1EC, symBinAddr: 0x100012114, symSize: 0x18 }
  - { offsetInCU: 0x3A440, offset: 0x3A440, size: 0x8, addend: 0x0, symName: __ZNSt3__117__compressed_pairINS_15__tree_end_nodeIPNS_16__tree_node_baseIPvEEEENS_9allocatorINS_11__tree_nodeINS_12__value_typeINS_12basic_stringIcNS_11char_traitsIcEENS7_IcEEEEfEES3_EEEEE5firstB8ue170006Ev, symObjAddr: 0xE204, symBinAddr: 0x10001212C, symSize: 0x24 }
  - { offsetInCU: 0x3A466, offset: 0x3A466, size: 0x8, addend: 0x0, symName: __ZNKSt3__13mapINS_12basic_stringIcNS_11char_traitsIcEENS_9allocatorIcEEEEfNS_4lessIS6_EENS4_INS_4pairIKS6_fEEEEE4cendB8ue170006Ev, symObjAddr: 0xE228, symBinAddr: 0x100012150, symSize: 0x2C }
  - { offsetInCU: 0x3A48C, offset: 0x3A48C, size: 0x8, addend: 0x0, symName: __ZNSt3__13mapINS_12basic_stringIcNS_11char_traitsIcEENS_9allocatorIcEEEEfNS_4lessIS6_EENS4_INS_4pairIKS6_fEEEEE6insertB8ue170006ENS_20__map_const_iteratorINS_21__tree_const_iteratorINS_12__value_typeIS6_fEEPNS_11__tree_nodeISH_PvEElEEEERKSB_, symObjAddr: 0xE284, symBinAddr: 0x1000121AC, symSize: 0x50 }
  - { offsetInCU: 0x3A4D0, offset: 0x3A4D0, size: 0x8, addend: 0x0, symName: __ZNSt3__120__map_const_iteratorINS_21__tree_const_iteratorINS_12__value_typeINS_12basic_stringIcNS_11char_traitsIcEENS_9allocatorIcEEEEfEEPNS_11__tree_nodeIS9_PvEElEEEC1B8ue170006ESE_, symObjAddr: 0xE2D4, symBinAddr: 0x1000121FC, symSize: 0x34 }
  - { offsetInCU: 0x3A509, offset: 0x3A509, size: 0x8, addend: 0x0, symName: __ZNKSt3__120__map_const_iteratorINS_21__tree_const_iteratorINS_12__value_typeINS_12basic_stringIcNS_11char_traitsIcEENS_9allocatorIcEEEEfEEPNS_11__tree_nodeIS9_PvEElEEEdeB8ue170006Ev, symObjAddr: 0xE308, symBinAddr: 0x100012230, symSize: 0x28 }
  - { offsetInCU: 0x3A52F, offset: 0x3A52F, size: 0x8, addend: 0x0, symName: __ZNSt3__120__map_const_iteratorINS_21__tree_const_iteratorINS_12__value_typeINS_12basic_stringIcNS_11char_traitsIcEENS_9allocatorIcEEEEfEEPNS_11__tree_nodeIS9_PvEElEEEppB8ue170006Ev, symObjAddr: 0xE330, symBinAddr: 0x100012258, symSize: 0x2C }
  - { offsetInCU: 0x3A555, offset: 0x3A555, size: 0x8, addend: 0x0, symName: __ZNSt3__16__treeINS_12__value_typeINS_12basic_stringIcNS_11char_traitsIcEENS_9allocatorIcEEEEfEENS_19__map_value_compareIS7_S8_NS_4lessIS7_EELb1EEENS5_IS8_EEE15__insert_uniqueB8ue170006ENS_21__tree_const_iteratorIS8_PNS_11__tree_nodeIS8_PvEElEERKNS_4pairIKS7_fEE, symObjAddr: 0xE3C0, symBinAddr: 0x1000122E8, symSize: 0x64 }
  - { offsetInCU: 0x3A599, offset: 0x3A599, size: 0x8, addend: 0x0, symName: __ZNSt3__114__map_iteratorINS_15__tree_iteratorINS_12__value_typeINS_12basic_stringIcNS_11char_traitsIcEENS_9allocatorIcEEEEfEEPNS_11__tree_nodeIS9_PvEElEEEC1B8ue170006ESE_, symObjAddr: 0xE424, symBinAddr: 0x10001234C, symSize: 0x34 }
  - { offsetInCU: 0x3A5D2, offset: 0x3A5D2, size: 0x8, addend: 0x0, symName: __ZNSt3__16__treeINS_12__value_typeINS_12basic_stringIcNS_11char_traitsIcEENS_9allocatorIcEEEEfEENS_19__map_value_compareIS7_S8_NS_4lessIS7_EELb1EEENS5_IS8_EEE30__emplace_hint_unique_key_argsIS7_JRKNS_4pairIKS7_fEEEEENSG_INS_15__tree_iteratorIS8_PNS_11__tree_nodeIS8_PvEElEEbEENS_21__tree_const_iteratorIS8_SP_lEERKT_DpOT0_, symObjAddr: 0xE458, symBinAddr: 0x100012380, symSize: 0x104 }
  - { offsetInCU: 0x3A69E, offset: 0x3A69E, size: 0x8, addend: 0x0, symName: __ZNSt3__122__tree_key_value_typesINS_12__value_typeINS_12basic_stringIcNS_11char_traitsIcEENS_9allocatorIcEEEEfEEE9__get_keyB8ue170006IKNS_4pairIKS7_fEEEENS_9enable_ifIXsr17__is_same_uncvrefIT_SD_EE5valueERSC_E4typeERSG_, symObjAddr: 0xE55C, symBinAddr: 0x100012484, symSize: 0x14 }
  - { offsetInCU: 0x3A6CB, offset: 0x3A6CB, size: 0x8, addend: 0x0, symName: __ZNSt3__16__treeINS_12__value_typeINS_12basic_stringIcNS_11char_traitsIcEENS_9allocatorIcEEEEfEENS_19__map_value_compareIS7_S8_NS_4lessIS7_EELb1EEENS5_IS8_EEE12__find_equalIS7_EERPNS_16__tree_node_baseIPvEENS_21__tree_const_iteratorIS8_PNS_11__tree_nodeIS8_SH_EElEERPNS_15__tree_end_nodeISJ_EESK_RKT_, symObjAddr: 0xE570, symBinAddr: 0x100012498, symSize: 0x304 }
  - { offsetInCU: 0x3A774, offset: 0x3A774, size: 0x8, addend: 0x0, symName: __ZNSt3__16__treeINS_12__value_typeINS_12basic_stringIcNS_11char_traitsIcEENS_9allocatorIcEEEEfEENS_19__map_value_compareIS7_S8_NS_4lessIS7_EELb1EEENS5_IS8_EEE16__construct_nodeIJRKNS_4pairIKS7_fEEEEENS_10unique_ptrINS_11__tree_nodeIS8_PvEENS_22__tree_node_destructorINS5_ISO_EEEEEEDpOT_, symObjAddr: 0xE874, symBinAddr: 0x10001279C, symSize: 0x110 }
  - { offsetInCU: 0x3A7D5, offset: 0x3A7D5, size: 0x8, addend: 0x0, symName: __ZNSt3__16__treeINS_12__value_typeINS_12basic_stringIcNS_11char_traitsIcEENS_9allocatorIcEEEEfEENS_19__map_value_compareIS7_S8_NS_4lessIS7_EELb1EEENS5_IS8_EEE16__insert_node_atEPNS_15__tree_end_nodeIPNS_16__tree_node_baseIPvEEEERSJ_SJ_, symObjAddr: 0xE984, symBinAddr: 0x1000128AC, symSize: 0xCC }
  - { offsetInCU: 0x3A82A, offset: 0x3A82A, size: 0x8, addend: 0x0, symName: __ZNKSt3__110unique_ptrINS_11__tree_nodeINS_12__value_typeINS_12basic_stringIcNS_11char_traitsIcEENS_9allocatorIcEEEEfEEPvEENS_22__tree_node_destructorINS6_ISB_EEEEE3getB8ue170006Ev, symObjAddr: 0xEA50, symBinAddr: 0x100012978, symSize: 0x28 }
  - { offsetInCU: 0x3A850, offset: 0x3A850, size: 0x8, addend: 0x0, symName: __ZNSt3__110unique_ptrINS_11__tree_nodeINS_12__value_typeINS_12basic_stringIcNS_11char_traitsIcEENS_9allocatorIcEEEEfEEPvEENS_22__tree_node_destructorINS6_ISB_EEEEE7releaseB8ue170006Ev, symObjAddr: 0xEA78, symBinAddr: 0x1000129A0, symSize: 0x44 }
  - { offsetInCU: 0x3A885, offset: 0x3A885, size: 0x8, addend: 0x0, symName: __ZNSt3__110unique_ptrINS_11__tree_nodeINS_12__value_typeINS_12basic_stringIcNS_11char_traitsIcEENS_9allocatorIcEEEEfEEPvEENS_22__tree_node_destructorINS6_ISB_EEEEED1B8ue170006Ev, symObjAddr: 0xEABC, symBinAddr: 0x1000129E4, symSize: 0x2C }
  - { offsetInCU: 0x3A8AF, offset: 0x3A8AF, size: 0x8, addend: 0x0, symName: __ZNSt3__115__tree_iteratorINS_12__value_typeINS_12basic_stringIcNS_11char_traitsIcEENS_9allocatorIcEEEEfEEPNS_11__tree_nodeIS8_PvEElEC1B8ue170006ESC_, symObjAddr: 0xEAE8, symBinAddr: 0x100012A10, symSize: 0x34 }
  - { offsetInCU: 0x3A8EE, offset: 0x3A8EE, size: 0x8, addend: 0x0, symName: __ZNSt3__14pairINS_15__tree_iteratorINS_12__value_typeINS_12basic_stringIcNS_11char_traitsIcEENS_9allocatorIcEEEEfEEPNS_11__tree_nodeIS9_PvEElEEbEC1B8ue170006ISE_RbLSB_0EEEOT_OT0_, symObjAddr: 0xEB1C, symBinAddr: 0x100012A44, symSize: 0x3C }
  - { offsetInCU: 0x3A94C, offset: 0x3A94C, size: 0x8, addend: 0x0, symName: __ZNSt3__16__treeINS_12__value_typeINS_12basic_stringIcNS_11char_traitsIcEENS_9allocatorIcEEEEfEENS_19__map_value_compareIS7_S8_NS_4lessIS7_EELb1EEENS5_IS8_EEE3endB8ue170006Ev, symObjAddr: 0xEB58, symBinAddr: 0x100012A80, symSize: 0x34 }
  - { offsetInCU: 0x3A972, offset: 0x3A972, size: 0x8, addend: 0x0, symName: __ZNSt3__121__tree_const_iteratorINS_12__value_typeINS_12basic_stringIcNS_11char_traitsIcEENS_9allocatorIcEEEEfEEPNS_11__tree_nodeIS8_PvEElEC1B8ue170006ENS_15__tree_iteratorIS8_SC_lEE, symObjAddr: 0xEB8C, symBinAddr: 0x100012AB4, symSize: 0x34 }
  - { offsetInCU: 0x3A9AB, offset: 0x3A9AB, size: 0x8, addend: 0x0, symName: __ZNSt3__16__treeINS_12__value_typeINS_12basic_stringIcNS_11char_traitsIcEENS_9allocatorIcEEEEfEENS_19__map_value_compareIS7_S8_NS_4lessIS7_EELb1EEENS5_IS8_EEE10value_compB8ue170006Ev, symObjAddr: 0xEBC0, symBinAddr: 0x100012AE8, symSize: 0x28 }
  - { offsetInCU: 0x3A9D1, offset: 0x3A9D1, size: 0x8, addend: 0x0, symName: __ZNKSt3__119__map_value_compareINS_12basic_stringIcNS_11char_traitsIcEENS_9allocatorIcEEEENS_12__value_typeIS6_fEENS_4lessIS6_EELb1EEclB8ue170006ERKS6_RKS8_, symObjAddr: 0xEBE8, symBinAddr: 0x100012B10, symSize: 0x50 }
  - { offsetInCU: 0x3AA15, offset: 0x3AA15, size: 0x8, addend: 0x0, symName: __ZNKSt3__121__tree_const_iteratorINS_12__value_typeINS_12basic_stringIcNS_11char_traitsIcEENS_9allocatorIcEEEEfEEPNS_11__tree_nodeIS8_PvEElEdeB8ue170006Ev, symObjAddr: 0xEC38, symBinAddr: 0x100012B60, symSize: 0x28 }
  - { offsetInCU: 0x3AA3B, offset: 0x3AA3B, size: 0x8, addend: 0x0, symName: __ZNSt3__16__treeINS_12__value_typeINS_12basic_stringIcNS_11char_traitsIcEENS_9allocatorIcEEEEfEENS_19__map_value_compareIS7_S8_NS_4lessIS7_EELb1EEENS5_IS8_EEE5beginB8ue170006Ev, symObjAddr: 0xEC60, symBinAddr: 0x100012B88, symSize: 0x34 }
  - { offsetInCU: 0x3AA61, offset: 0x3AA61, size: 0x8, addend: 0x0, symName: __ZNKSt3__119__map_value_compareINS_12basic_stringIcNS_11char_traitsIcEENS_9allocatorIcEEEENS_12__value_typeIS6_fEENS_4lessIS6_EELb1EEclB8ue170006ERKS8_RKS6_, symObjAddr: 0xEC94, symBinAddr: 0x100012BBC, symSize: 0x48 }
  - { offsetInCU: 0x3AAA5, offset: 0x3AAA5, size: 0x8, addend: 0x0, symName: __ZNSt3__121__tree_const_iteratorINS_12__value_typeINS_12basic_stringIcNS_11char_traitsIcEENS_9allocatorIcEEEEfEEPNS_11__tree_nodeIS8_PvEElEmmB8ue170006Ev, symObjAddr: 0xECDC, symBinAddr: 0x100012C04, symSize: 0x38 }
  - { offsetInCU: 0x3AACB, offset: 0x3AACB, size: 0x8, addend: 0x0, symName: __ZNSt3__16__treeINS_12__value_typeINS_12basic_stringIcNS_11char_traitsIcEENS_9allocatorIcEEEEfEENS_19__map_value_compareIS7_S8_NS_4lessIS7_EELb1EEENS5_IS8_EEE12__find_equalIS7_EERPNS_16__tree_node_baseIPvEERPNS_15__tree_end_nodeISJ_EERKT_, symObjAddr: 0xED14, symBinAddr: 0x100012C3C, symSize: 0x184 }
  - { offsetInCU: 0x3AB38, offset: 0x3AB38, size: 0x8, addend: 0x0, symName: __ZNKSt3__121__tree_const_iteratorINS_12__value_typeINS_12basic_stringIcNS_11char_traitsIcEENS_9allocatorIcEEEEfEEPNS_11__tree_nodeIS8_PvEElE8__get_npB8ue170006Ev, symObjAddr: 0xEED4, symBinAddr: 0x100012DFC, symSize: 0x18 }
  - { offsetInCU: 0x3AB5E, offset: 0x3AB5E, size: 0x8, addend: 0x0, symName: __ZNSt3__115__tree_iteratorINS_12__value_typeINS_12basic_stringIcNS_11char_traitsIcEENS_9allocatorIcEEEEfEEPNS_11__tree_nodeIS8_PvEElEC1B8ue170006EPNS_15__tree_end_nodeIPNS_16__tree_node_baseISA_EEEE, symObjAddr: 0xEEEC, symBinAddr: 0x100012E14, symSize: 0x34 }
  - { offsetInCU: 0x3AB97, offset: 0x3AB97, size: 0x8, addend: 0x0, symName: __ZNSt3__115__tree_iteratorINS_12__value_typeINS_12basic_stringIcNS_11char_traitsIcEENS_9allocatorIcEEEEfEEPNS_11__tree_nodeIS8_PvEElEC2B8ue170006EPNS_15__tree_end_nodeIPNS_16__tree_node_baseISA_EEEE, symObjAddr: 0xEF20, symBinAddr: 0x100012E48, symSize: 0x20 }
  - { offsetInCU: 0x3ABD0, offset: 0x3ABD0, size: 0x8, addend: 0x0, symName: __ZNSt3__121__tree_const_iteratorINS_12__value_typeINS_12basic_stringIcNS_11char_traitsIcEENS_9allocatorIcEEEEfEEPNS_11__tree_nodeIS8_PvEElEC2B8ue170006ENS_15__tree_iteratorIS8_SC_lEE, symObjAddr: 0xEF40, symBinAddr: 0x100012E68, symSize: 0x20 }
  - { offsetInCU: 0x3AC09, offset: 0x3AC09, size: 0x8, addend: 0x0, symName: __ZNSt3__117__compressed_pairImNS_19__map_value_compareINS_12basic_stringIcNS_11char_traitsIcEENS_9allocatorIcEEEENS_12__value_typeIS7_fEENS_4lessIS7_EELb1EEEE6secondB8ue170006Ev, symObjAddr: 0xEF60, symBinAddr: 0x100012E88, symSize: 0x24 }
  - { offsetInCU: 0x3AC2F, offset: 0x3AC2F, size: 0x8, addend: 0x0, symName: __ZNSt3__122__compressed_pair_elemINS_19__map_value_compareINS_12basic_stringIcNS_11char_traitsIcEENS_9allocatorIcEEEENS_12__value_typeIS7_fEENS_4lessIS7_EELb1EEELi1ELb1EE5__getB8ue170006Ev, symObjAddr: 0xEF84, symBinAddr: 0x100012EAC, symSize: 0x14 }
  - { offsetInCU: 0x3AC55, offset: 0x3AC55, size: 0x8, addend: 0x0, symName: __ZNKSt3__112__value_typeINS_12basic_stringIcNS_11char_traitsIcEENS_9allocatorIcEEEEfE11__get_valueB8ue170006Ev, symObjAddr: 0xEF98, symBinAddr: 0x100012EC0, symSize: 0x14 }
  - { offsetInCU: 0x3AC7B, offset: 0x3AC7B, size: 0x8, addend: 0x0, symName: __ZNKSt3__116__tree_node_baseIPvE15__parent_unsafeB8ue170006Ev, symObjAddr: 0xF0BC, symBinAddr: 0x100012FE4, symSize: 0x18 }
  - { offsetInCU: 0x3ACA1, offset: 0x3ACA1, size: 0x8, addend: 0x0, symName: __ZNKSt3__16__treeINS_12__value_typeINS_12basic_stringIcNS_11char_traitsIcEENS_9allocatorIcEEEEfEENS_19__map_value_compareIS7_S8_NS_4lessIS7_EELb1EEENS5_IS8_EEE6__rootB8ue170006Ev, symObjAddr: 0xF0D4, symBinAddr: 0x100012FFC, symSize: 0x28 }
  - { offsetInCU: 0x3ACC7, offset: 0x3ACC7, size: 0x8, addend: 0x0, symName: __ZNKSt3__16__treeINS_12__value_typeINS_12basic_stringIcNS_11char_traitsIcEENS_9allocatorIcEEEEfEENS_19__map_value_compareIS7_S8_NS_4lessIS7_EELb1EEENS5_IS8_EEE10__root_ptrB8ue170006Ev, symObjAddr: 0xF0FC, symBinAddr: 0x100013024, symSize: 0x24 }
  - { offsetInCU: 0x3ACED, offset: 0x3ACED, size: 0x8, addend: 0x0, symName: __ZNKSt3__16__treeINS_12__value_typeINS_12basic_stringIcNS_11char_traitsIcEENS_9allocatorIcEEEEfEENS_19__map_value_compareIS7_S8_NS_4lessIS7_EELb1EEENS5_IS8_EEE10__end_nodeB8ue170006Ev, symObjAddr: 0xF120, symBinAddr: 0x100013048, symSize: 0x2C }
  - { offsetInCU: 0x3AD13, offset: 0x3AD13, size: 0x8, addend: 0x0, symName: __ZNKSt3__117__compressed_pairINS_15__tree_end_nodeIPNS_16__tree_node_baseIPvEEEENS_9allocatorINS_11__tree_nodeINS_12__value_typeINS_12basic_stringIcNS_11char_traitsIcEENS7_IcEEEEfEES3_EEEEE5firstB8ue170006Ev, symObjAddr: 0xF14C, symBinAddr: 0x100013074, symSize: 0x24 }
  - { offsetInCU: 0x3AD39, offset: 0x3AD39, size: 0x8, addend: 0x0, symName: __ZNSt3__121__tree_const_iteratorINS_12__value_typeINS_12basic_stringIcNS_11char_traitsIcEENS_9allocatorIcEEEEfEEPNS_11__tree_nodeIS8_PvEElEppB8ue170006Ev, symObjAddr: 0xF24C, symBinAddr: 0x100013174, symSize: 0x38 }
  - { offsetInCU: 0x3AD5F, offset: 0x3AD5F, size: 0x8, addend: 0x0, symName: __ZNSt3__16__treeINS_12__value_typeINS_12basic_stringIcNS_11char_traitsIcEENS_9allocatorIcEEEEfEENS_19__map_value_compareIS7_S8_NS_4lessIS7_EELb1EEENS5_IS8_EEE12__node_allocB8ue170006Ev, symObjAddr: 0xF344, symBinAddr: 0x10001326C, symSize: 0x28 }
  - { offsetInCU: 0x3AD85, offset: 0x3AD85, size: 0x8, addend: 0x0, symName: __ZNSt3__116allocator_traitsINS_9allocatorINS_11__tree_nodeINS_12__value_typeINS_12basic_stringIcNS_11char_traitsIcEENS1_IcEEEEfEEPvEEEEE8allocateB8ue170006ERSC_m, symObjAddr: 0xF36C, symBinAddr: 0x100013294, symSize: 0x2C }
  - { offsetInCU: 0x3ADB8, offset: 0x3ADB8, size: 0x8, addend: 0x0, symName: __ZNSt3__122__tree_node_destructorINS_9allocatorINS_11__tree_nodeINS_12__value_typeINS_12basic_stringIcNS_11char_traitsIcEENS1_IcEEEEfEEPvEEEEEC1B8ue170006ERSC_b, symObjAddr: 0xF398, symBinAddr: 0x1000132C0, symSize: 0x48 }
  - { offsetInCU: 0x3AE06, offset: 0x3AE06, size: 0x8, addend: 0x0, symName: __ZNSt3__110unique_ptrINS_11__tree_nodeINS_12__value_typeINS_12basic_stringIcNS_11char_traitsIcEENS_9allocatorIcEEEEfEEPvEENS_22__tree_node_destructorINS6_ISB_EEEEEC1B8ue170006ILb1EvEEPSB_NS_16__dependent_typeINS_27__unique_ptr_deleter_sfinaeISE_EEXT_EE20__good_rval_ref_typeE, symObjAddr: 0xF3E0, symBinAddr: 0x100013308, symSize: 0x3C }
  - { offsetInCU: 0x3AE57, offset: 0x3AE57, size: 0x8, addend: 0x0, symName: __ZNSt3__116allocator_traitsINS_9allocatorINS_11__tree_nodeINS_12__value_typeINS_12basic_stringIcNS_11char_traitsIcEENS1_IcEEEEfEEPvEEEEE9constructB8ue170006INS_4pairIKS8_fEEJRKSH_EvEEvRSC_PT_DpOT0_, symObjAddr: 0xF41C, symBinAddr: 0x100013344, symSize: 0x34 }
  - { offsetInCU: 0x3AEAE, offset: 0x3AEAE, size: 0x8, addend: 0x0, symName: __ZNSt3__122__tree_key_value_typesINS_12__value_typeINS_12basic_stringIcNS_11char_traitsIcEENS_9allocatorIcEEEEfEEE9__get_ptrB8ue170006ERS8_, symObjAddr: 0xF450, symBinAddr: 0x100013378, symSize: 0x24 }
  - { offsetInCU: 0x3AED2, offset: 0x3AED2, size: 0x8, addend: 0x0, symName: __ZNKSt3__110unique_ptrINS_11__tree_nodeINS_12__value_typeINS_12basic_stringIcNS_11char_traitsIcEENS_9allocatorIcEEEEfEEPvEENS_22__tree_node_destructorINS6_ISB_EEEEEptB8ue170006Ev, symObjAddr: 0xF474, symBinAddr: 0x10001339C, symSize: 0x28 }
  - { offsetInCU: 0x3AEF8, offset: 0x3AEF8, size: 0x8, addend: 0x0, symName: __ZNSt3__110unique_ptrINS_11__tree_nodeINS_12__value_typeINS_12basic_stringIcNS_11char_traitsIcEENS_9allocatorIcEEEEfEEPvEENS_22__tree_node_destructorINS6_ISB_EEEEE11get_deleterB8ue170006Ev, symObjAddr: 0xF49C, symBinAddr: 0x1000133C4, symSize: 0x24 }
  - { offsetInCU: 0x3AF1E, offset: 0x3AF1E, size: 0x8, addend: 0x0, symName: __ZNSt3__117__compressed_pairINS_15__tree_end_nodeIPNS_16__tree_node_baseIPvEEEENS_9allocatorINS_11__tree_nodeINS_12__value_typeINS_12basic_stringIcNS_11char_traitsIcEENS7_IcEEEEfEES3_EEEEE6secondB8ue170006Ev, symObjAddr: 0xF4C0, symBinAddr: 0x1000133E8, symSize: 0x24 }
  - { offsetInCU: 0x3AF44, offset: 0x3AF44, size: 0x8, addend: 0x0, symName: __ZNSt3__122__compressed_pair_elemINS_9allocatorINS_11__tree_nodeINS_12__value_typeINS_12basic_stringIcNS_11char_traitsIcEENS1_IcEEEEfEEPvEEEELi1ELb1EE5__getB8ue170006Ev, symObjAddr: 0xF4E4, symBinAddr: 0x10001340C, symSize: 0x14 }
  - { offsetInCU: 0x3AF6A, offset: 0x3AF6A, size: 0x8, addend: 0x0, symName: __ZNSt3__19allocatorINS_11__tree_nodeINS_12__value_typeINS_12basic_stringIcNS_11char_traitsIcEENS0_IcEEEEfEEPvEEE8allocateB8ue170006Em, symObjAddr: 0xF4F8, symBinAddr: 0x100013420, symSize: 0x58 }
  - { offsetInCU: 0x3AF9E, offset: 0x3AF9E, size: 0x8, addend: 0x0, symName: __ZNSt3__116allocator_traitsINS_9allocatorINS_11__tree_nodeINS_12__value_typeINS_12basic_stringIcNS_11char_traitsIcEENS1_IcEEEEfEEPvEEEEE8max_sizeB8ue170006ISC_vEEmRKSC_, symObjAddr: 0xF550, symBinAddr: 0x100013478, symSize: 0x24 }
  - { offsetInCU: 0x3AFCC, offset: 0x3AFCC, size: 0x8, addend: 0x0, symName: __ZNKSt3__19allocatorINS_11__tree_nodeINS_12__value_typeINS_12basic_stringIcNS_11char_traitsIcEENS0_IcEEEEfEEPvEEE8max_sizeB8ue170006Ev, symObjAddr: 0xF574, symBinAddr: 0x10001349C, symSize: 0x14 }
  - { offsetInCU: 0x3AFF2, offset: 0x3AFF2, size: 0x8, addend: 0x0, symName: __ZNSt3__122__tree_node_destructorINS_9allocatorINS_11__tree_nodeINS_12__value_typeINS_12basic_stringIcNS_11char_traitsIcEENS1_IcEEEEfEEPvEEEEEC2B8ue170006ERSC_b, symObjAddr: 0xF588, symBinAddr: 0x1000134B0, symSize: 0x38 }
  - { offsetInCU: 0x3B03A, offset: 0x3B03A, size: 0x8, addend: 0x0, symName: __ZNSt3__110unique_ptrINS_11__tree_nodeINS_12__value_typeINS_12basic_stringIcNS_11char_traitsIcEENS_9allocatorIcEEEEfEEPvEENS_22__tree_node_destructorINS6_ISB_EEEEEC2B8ue170006ILb1EvEEPSB_NS_16__dependent_typeINS_27__unique_ptr_deleter_sfinaeISE_EEXT_EE20__good_rval_ref_typeE, symObjAddr: 0xF5C0, symBinAddr: 0x1000134E8, symSize: 0x48 }
  - { offsetInCU: 0x3B08B, offset: 0x3B08B, size: 0x8, addend: 0x0, symName: __ZNSt3__117__compressed_pairIPNS_11__tree_nodeINS_12__value_typeINS_12basic_stringIcNS_11char_traitsIcEENS_9allocatorIcEEEEfEEPvEENS_22__tree_node_destructorINS6_ISB_EEEEEC1B8ue170006IRSC_SF_EEOT_OT0_, symObjAddr: 0xF608, symBinAddr: 0x100013530, symSize: 0x3C }
  - { offsetInCU: 0x3B0E3, offset: 0x3B0E3, size: 0x8, addend: 0x0, symName: __ZNSt3__117__compressed_pairIPNS_11__tree_nodeINS_12__value_typeINS_12basic_stringIcNS_11char_traitsIcEENS_9allocatorIcEEEEfEEPvEENS_22__tree_node_destructorINS6_ISB_EEEEEC2B8ue170006IRSC_SF_EEOT_OT0_, symObjAddr: 0xF644, symBinAddr: 0x10001356C, symSize: 0x48 }
  - { offsetInCU: 0x3B13B, offset: 0x3B13B, size: 0x8, addend: 0x0, symName: __ZNSt3__122__compressed_pair_elemIPNS_11__tree_nodeINS_12__value_typeINS_12basic_stringIcNS_11char_traitsIcEENS_9allocatorIcEEEEfEEPvEELi0ELb0EEC2B8ue170006IRSC_vEEOT_, symObjAddr: 0xF68C, symBinAddr: 0x1000135B4, symSize: 0x24 }
  - { offsetInCU: 0x3B17D, offset: 0x3B17D, size: 0x8, addend: 0x0, symName: __ZNSt3__122__compressed_pair_elemINS_22__tree_node_destructorINS_9allocatorINS_11__tree_nodeINS_12__value_typeINS_12basic_stringIcNS_11char_traitsIcEENS2_IcEEEEfEEPvEEEEEELi1ELb0EEC2B8ue170006ISE_vEEOT_, symObjAddr: 0xF6B0, symBinAddr: 0x1000135D8, symSize: 0x24 }
  - { offsetInCU: 0x3B1BF, offset: 0x3B1BF, size: 0x8, addend: 0x0, symName: __ZNSt3__19allocatorINS_11__tree_nodeINS_12__value_typeINS_12basic_stringIcNS_11char_traitsIcEENS0_IcEEEEfEEPvEEE9constructB8ue170006INS_4pairIKS7_fEEJRKSF_EEEvPT_DpOT0_, symObjAddr: 0xF6D4, symBinAddr: 0x1000135FC, symSize: 0x30 }
  - { offsetInCU: 0x3B215, offset: 0x3B215, size: 0x8, addend: 0x0, symName: __ZNSt3__14pairIKNS_12basic_stringIcNS_11char_traitsIcEENS_9allocatorIcEEEEfEC1B8ue170006ERKS8_, symObjAddr: 0xF704, symBinAddr: 0x10001362C, symSize: 0x34 }
  - { offsetInCU: 0x3B249, offset: 0x3B249, size: 0x8, addend: 0x0, symName: __ZNSt3__14pairIKNS_12basic_stringIcNS_11char_traitsIcEENS_9allocatorIcEEEEfEC2B8ue170006ERKS8_, symObjAddr: 0xF738, symBinAddr: 0x100013660, symSize: 0x40 }
  - { offsetInCU: 0x3B27D, offset: 0x3B27D, size: 0x8, addend: 0x0, symName: __ZNSt3__112__value_typeINS_12basic_stringIcNS_11char_traitsIcEENS_9allocatorIcEEEEfE11__get_valueB8ue170006Ev, symObjAddr: 0xF778, symBinAddr: 0x1000136A0, symSize: 0x14 }
  - { offsetInCU: 0x3B2A3, offset: 0x3B2A3, size: 0x8, addend: 0x0, symName: __ZNKSt3__117__compressed_pairIPNS_11__tree_nodeINS_12__value_typeINS_12basic_stringIcNS_11char_traitsIcEENS_9allocatorIcEEEEfEEPvEENS_22__tree_node_destructorINS6_ISB_EEEEE5firstB8ue170006Ev, symObjAddr: 0xF78C, symBinAddr: 0x1000136B4, symSize: 0x24 }
  - { offsetInCU: 0x3B2C9, offset: 0x3B2C9, size: 0x8, addend: 0x0, symName: __ZNKSt3__122__compressed_pair_elemIPNS_11__tree_nodeINS_12__value_typeINS_12basic_stringIcNS_11char_traitsIcEENS_9allocatorIcEEEEfEEPvEELi0ELb0EE5__getB8ue170006Ev, symObjAddr: 0xF7B0, symBinAddr: 0x1000136D8, symSize: 0x14 }
  - { offsetInCU: 0x3B2EF, offset: 0x3B2EF, size: 0x8, addend: 0x0, symName: __ZNSt3__117__compressed_pairIPNS_11__tree_nodeINS_12__value_typeINS_12basic_stringIcNS_11char_traitsIcEENS_9allocatorIcEEEEfEEPvEENS_22__tree_node_destructorINS6_ISB_EEEEE6secondB8ue170006Ev, symObjAddr: 0xF7C4, symBinAddr: 0x1000136EC, symSize: 0x28 }
  - { offsetInCU: 0x3B315, offset: 0x3B315, size: 0x8, addend: 0x0, symName: __ZNSt3__122__compressed_pair_elemINS_22__tree_node_destructorINS_9allocatorINS_11__tree_nodeINS_12__value_typeINS_12basic_stringIcNS_11char_traitsIcEENS2_IcEEEEfEEPvEEEEEELi1ELb0EE5__getB8ue170006Ev, symObjAddr: 0xF7EC, symBinAddr: 0x100013714, symSize: 0x14 }
  - { offsetInCU: 0x3B33B, offset: 0x3B33B, size: 0x8, addend: 0x0, symName: __ZNSt3__16__treeINS_12__value_typeINS_12basic_stringIcNS_11char_traitsIcEENS_9allocatorIcEEEEfEENS_19__map_value_compareIS7_S8_NS_4lessIS7_EELb1EEENS5_IS8_EEE4sizeB8ue170006Ev, symObjAddr: 0xFA7C, symBinAddr: 0x1000139A4, symSize: 0x28 }
  - { offsetInCU: 0x3B361, offset: 0x3B361, size: 0x8, addend: 0x0, symName: __ZNSt3__116__tree_node_baseIPvE12__set_parentB8ue170006EPS2_, symObjAddr: 0xFC48, symBinAddr: 0x100013B70, symSize: 0x20 }
  - { offsetInCU: 0x3B396, offset: 0x3B396, size: 0x8, addend: 0x0, symName: __ZNSt3__117__compressed_pairImNS_19__map_value_compareINS_12basic_stringIcNS_11char_traitsIcEENS_9allocatorIcEEEENS_12__value_typeIS7_fEENS_4lessIS7_EELb1EEEE5firstB8ue170006Ev, symObjAddr: 0xFC68, symBinAddr: 0x100013B90, symSize: 0x24 }
  - { offsetInCU: 0x3B3BC, offset: 0x3B3BC, size: 0x8, addend: 0x0, symName: __ZNSt3__122__compressed_pair_elemImLi0ELb0EE5__getB8ue170006Ev, symObjAddr: 0xFC8C, symBinAddr: 0x100013BB4, symSize: 0x14 }
  - { offsetInCU: 0x3B3E2, offset: 0x3B3E2, size: 0x8, addend: 0x0, symName: __ZNSt3__117__compressed_pairIPNS_11__tree_nodeINS_12__value_typeINS_12basic_stringIcNS_11char_traitsIcEENS_9allocatorIcEEEEfEEPvEENS_22__tree_node_destructorINS6_ISB_EEEEE5firstB8ue170006Ev, symObjAddr: 0xFCA0, symBinAddr: 0x100013BC8, symSize: 0x24 }
  - { offsetInCU: 0x3B408, offset: 0x3B408, size: 0x8, addend: 0x0, symName: __ZNSt3__122__compressed_pair_elemIPNS_11__tree_nodeINS_12__value_typeINS_12basic_stringIcNS_11char_traitsIcEENS_9allocatorIcEEEEfEEPvEELi0ELb0EE5__getB8ue170006Ev, symObjAddr: 0xFCC4, symBinAddr: 0x100013BEC, symSize: 0x14 }
  - { offsetInCU: 0x3B42E, offset: 0x3B42E, size: 0x8, addend: 0x0, symName: __ZNSt3__110unique_ptrINS_11__tree_nodeINS_12__value_typeINS_12basic_stringIcNS_11char_traitsIcEENS_9allocatorIcEEEEfEEPvEENS_22__tree_node_destructorINS6_ISB_EEEEED2B8ue170006Ev, symObjAddr: 0xFCD8, symBinAddr: 0x100013C00, symSize: 0x30 }
  - { offsetInCU: 0x3B458, offset: 0x3B458, size: 0x8, addend: 0x0, symName: __ZNSt3__110unique_ptrINS_11__tree_nodeINS_12__value_typeINS_12basic_stringIcNS_11char_traitsIcEENS_9allocatorIcEEEEfEEPvEENS_22__tree_node_destructorINS6_ISB_EEEEE5resetB8ue170006EPSB_, symObjAddr: 0xFD08, symBinAddr: 0x100013C30, symSize: 0x78 }
  - { offsetInCU: 0x3B49C, offset: 0x3B49C, size: 0x8, addend: 0x0, symName: __ZNSt3__122__tree_node_destructorINS_9allocatorINS_11__tree_nodeINS_12__value_typeINS_12basic_stringIcNS_11char_traitsIcEENS1_IcEEEEfEEPvEEEEEclB8ue170006EPSB_, symObjAddr: 0xFD80, symBinAddr: 0x100013CA8, symSize: 0x98 }
  - { offsetInCU: 0x3B4D1, offset: 0x3B4D1, size: 0x8, addend: 0x0, symName: __ZNSt3__116allocator_traitsINS_9allocatorINS_11__tree_nodeINS_12__value_typeINS_12basic_stringIcNS_11char_traitsIcEENS1_IcEEEEfEEPvEEEEE7destroyB8ue170006INS_4pairIKS8_fEEvvEEvRSC_PT_, symObjAddr: 0xFE18, symBinAddr: 0x100013D40, symSize: 0x28 }
  - { offsetInCU: 0x3B50C, offset: 0x3B50C, size: 0x8, addend: 0x0, symName: __ZNSt3__116allocator_traitsINS_9allocatorINS_11__tree_nodeINS_12__value_typeINS_12basic_stringIcNS_11char_traitsIcEENS1_IcEEEEfEEPvEEEEE10deallocateB8ue170006ERSC_PSB_m, symObjAddr: 0xFE40, symBinAddr: 0x100013D68, symSize: 0x34 }
  - { offsetInCU: 0x3B54E, offset: 0x3B54E, size: 0x8, addend: 0x0, symName: __ZNSt3__14pairIKNS_12basic_stringIcNS_11char_traitsIcEENS_9allocatorIcEEEEfED1Ev, symObjAddr: 0xFE74, symBinAddr: 0x100013D9C, symSize: 0x2C }
  - { offsetInCU: 0x3B57A, offset: 0x3B57A, size: 0x8, addend: 0x0, symName: __ZNSt3__14pairIKNS_12basic_stringIcNS_11char_traitsIcEENS_9allocatorIcEEEEfED2Ev, symObjAddr: 0xFEA0, symBinAddr: 0x100013DC8, symSize: 0x2C }
  - { offsetInCU: 0x3B5A6, offset: 0x3B5A6, size: 0x8, addend: 0x0, symName: __ZNSt3__19allocatorINS_11__tree_nodeINS_12__value_typeINS_12basic_stringIcNS_11char_traitsIcEENS0_IcEEEEfEEPvEEE10deallocateB8ue170006EPSA_m, symObjAddr: 0xFECC, symBinAddr: 0x100013DF4, symSize: 0x40 }
  - { offsetInCU: 0x3B5E8, offset: 0x3B5E8, size: 0x8, addend: 0x0, symName: __ZNSt3__115__tree_iteratorINS_12__value_typeINS_12basic_stringIcNS_11char_traitsIcEENS_9allocatorIcEEEEfEEPNS_11__tree_nodeIS8_PvEElEC2B8ue170006ESC_, symObjAddr: 0xFF0C, symBinAddr: 0x100013E34, symSize: 0x20 }
  - { offsetInCU: 0x3B621, offset: 0x3B621, size: 0x8, addend: 0x0, symName: __ZNSt3__14pairINS_15__tree_iteratorINS_12__value_typeINS_12basic_stringIcNS_11char_traitsIcEENS_9allocatorIcEEEEfEEPNS_11__tree_nodeIS9_PvEElEEbEC2B8ue170006ISE_RbLSB_0EEEOT_OT0_, symObjAddr: 0xFF2C, symBinAddr: 0x100013E54, symSize: 0x38 }
  - { offsetInCU: 0x3B67F, offset: 0x3B67F, size: 0x8, addend: 0x0, symName: __ZNSt3__114__map_iteratorINS_15__tree_iteratorINS_12__value_typeINS_12basic_stringIcNS_11char_traitsIcEENS_9allocatorIcEEEEfEEPNS_11__tree_nodeIS9_PvEElEEEC2B8ue170006ESE_, symObjAddr: 0xFF64, symBinAddr: 0x100013E8C, symSize: 0x20 }
  - { offsetInCU: 0x3B6B8, offset: 0x3B6B8, size: 0x8, addend: 0x0, symName: __ZNSt3__120__map_const_iteratorINS_21__tree_const_iteratorINS_12__value_typeINS_12basic_stringIcNS_11char_traitsIcEENS_9allocatorIcEEEEfEEPNS_11__tree_nodeIS9_PvEElEEEC2B8ue170006ESE_, symObjAddr: 0xFF84, symBinAddr: 0x100013EAC, symSize: 0x20 }
  - { offsetInCU: 0x3B6F1, offset: 0x3B6F1, size: 0x8, addend: 0x0, symName: __ZNKSt3__121__tree_const_iteratorINS_12__value_typeINS_12basic_stringIcNS_11char_traitsIcEENS_9allocatorIcEEEEfEEPNS_11__tree_nodeIS8_PvEElEptB8ue170006Ev, symObjAddr: 0xFFA4, symBinAddr: 0x100013ECC, symSize: 0x2C }
  - { offsetInCU: 0x3B717, offset: 0x3B717, size: 0x8, addend: 0x0, symName: __ZNSt3__114pointer_traitsIPKNS_12__value_typeINS_12basic_stringIcNS_11char_traitsIcEENS_9allocatorIcEEEEfEEE10pointer_toB8ue170006ERS9_, symObjAddr: 0xFFD0, symBinAddr: 0x100013EF8, symSize: 0x14 }
  - { offsetInCU: 0x3B73A, offset: 0x3B73A, size: 0x8, addend: 0x0, symName: __ZNKSt3__16__treeINS_12__value_typeINS_12basic_stringIcNS_11char_traitsIcEENS_9allocatorIcEEEEfEENS_19__map_value_compareIS7_S8_NS_4lessIS7_EELb1EEENS5_IS8_EEE5beginB8ue170006Ev, symObjAddr: 0xFFE4, symBinAddr: 0x100013F0C, symSize: 0x34 }
  - { offsetInCU: 0x3B760, offset: 0x3B760, size: 0x8, addend: 0x0, symName: __ZNKSt3__16__treeINS_12__value_typeINS_12basic_stringIcNS_11char_traitsIcEENS_9allocatorIcEEEEfEENS_19__map_value_compareIS7_S8_NS_4lessIS7_EELb1EEENS5_IS8_EEE12__begin_nodeB8ue170006Ev, symObjAddr: 0x10018, symBinAddr: 0x100013F40, symSize: 0x14 }
  - { offsetInCU: 0x3B786, offset: 0x3B786, size: 0x8, addend: 0x0, symName: __ZNSt3__121__tree_const_iteratorINS_12__value_typeINS_12basic_stringIcNS_11char_traitsIcEENS_9allocatorIcEEEEfEEPNS_11__tree_nodeIS8_PvEElEC1B8ue170006EPNS_15__tree_end_nodeIPNS_16__tree_node_baseISA_EEEE, symObjAddr: 0x1002C, symBinAddr: 0x100013F54, symSize: 0x34 }
  - { offsetInCU: 0x3B7BF, offset: 0x3B7BF, size: 0x8, addend: 0x0, symName: __ZNSt3__121__tree_const_iteratorINS_12__value_typeINS_12basic_stringIcNS_11char_traitsIcEENS_9allocatorIcEEEEfEEPNS_11__tree_nodeIS8_PvEElEC2B8ue170006EPNS_15__tree_end_nodeIPNS_16__tree_node_baseISA_EEEE, symObjAddr: 0x10060, symBinAddr: 0x100013F88, symSize: 0x20 }
  - { offsetInCU: 0x3B7F8, offset: 0x3B7F8, size: 0x8, addend: 0x0, symName: __ZNKSt3__16__treeINS_12__value_typeINS_12basic_stringIcNS_11char_traitsIcEENS_9allocatorIcEEEEfEENS_19__map_value_compareIS7_S8_NS_4lessIS7_EELb1EEENS5_IS8_EEE3endB8ue170006Ev, symObjAddr: 0x10080, symBinAddr: 0x100013FA8, symSize: 0x34 }
  - { offsetInCU: 0x3B81E, offset: 0x3B81E, size: 0x8, addend: 0x0, symName: __ZNSt3__16__treeINS_12__value_typeINS_12basic_stringIcNS_11char_traitsIcEENS_9allocatorIcEEEEfEENS_19__map_value_compareIS7_S8_NS_4lessIS7_EELb1EEENS5_IS8_EEED2Ev, symObjAddr: 0x100B4, symBinAddr: 0x100013FDC, symSize: 0x38 }
  - { offsetInCU: 0x3B84A, offset: 0x3B84A, size: 0x8, addend: 0x0, symName: __ZNSt3__16__treeINS_12__value_typeINS_12basic_stringIcNS_11char_traitsIcEENS_9allocatorIcEEEEfEENS_19__map_value_compareIS7_S8_NS_4lessIS7_EELb1EEENS5_IS8_EEE7destroyEPNS_11__tree_nodeIS8_PvEE, symObjAddr: 0x100EC, symBinAddr: 0x100014014, symSize: 0xA8 }
  - { offsetInCU: 0x3B896, offset: 0x3B896, size: 0x8, addend: 0x0, symName: __ZNSt3__13mapINS_12basic_stringIcNS_11char_traitsIcEENS_9allocatorIcEEEEfNS_4lessIS6_EENS4_INS_4pairIKS6_fEEEEED2B8ue170006Ev, symObjAddr: 0x10194, symBinAddr: 0x1000140BC, symSize: 0x2C }
  - { offsetInCU: 0x3B8C0, offset: 0x3B8C0, size: 0x8, addend: 0x0, symName: __ZNSt3__115__tree_iteratorINS_12__value_typeINS_12basic_stringIcNS_11char_traitsIcEENS_9allocatorIcEEEEfEEPNS_11__tree_nodeIS8_PvEElEppB8ue170006Ev, symObjAddr: 0x10224, symBinAddr: 0x10001414C, symSize: 0x38 }
  - { offsetInCU: 0x3B8E6, offset: 0x3B8E6, size: 0x8, addend: 0x0, symName: __ZNKSt3__115__tree_iteratorINS_12__value_typeINS_12basic_stringIcNS_11char_traitsIcEENS_9allocatorIcEEEEfEEPNS_11__tree_nodeIS8_PvEElEptB8ue170006Ev, symObjAddr: 0x1025C, symBinAddr: 0x100014184, symSize: 0x2C }
  - { offsetInCU: 0x3B90C, offset: 0x3B90C, size: 0x8, addend: 0x0, symName: __ZNSt3__114pointer_traitsIPNS_12__value_typeINS_12basic_stringIcNS_11char_traitsIcEENS_9allocatorIcEEEEfEEE10pointer_toB8ue170006ERS8_, symObjAddr: 0x10288, symBinAddr: 0x1000141B0, symSize: 0x14 }
  - { offsetInCU: 0x3B92F, offset: 0x3B92F, size: 0x8, addend: 0x0, symName: __ZNKSt3__115__tree_iteratorINS_12__value_typeINS_12basic_stringIcNS_11char_traitsIcEENS_9allocatorIcEEEEfEEPNS_11__tree_nodeIS8_PvEElE8__get_npB8ue170006Ev, symObjAddr: 0x1029C, symBinAddr: 0x1000141C4, symSize: 0x18 }
  - { offsetInCU: 0x3B955, offset: 0x3B955, size: 0x8, addend: 0x0, symName: __ZNSt3__16vectorINS_12basic_stringIcNS_11char_traitsIcEENS_9allocatorIcEEEENS4_IS6_EEE9__end_capB8ue170006Ev, symObjAddr: 0x102B4, symBinAddr: 0x1000141DC, symSize: 0x28 }
  - { offsetInCU: 0x3B97B, offset: 0x3B97B, size: 0x8, addend: 0x0, symName: __ZNSt3__16vectorINS_12basic_stringIcNS_11char_traitsIcEENS_9allocatorIcEEEENS4_IS6_EEE22__construct_one_at_endB8ue170006IJRKS6_EEEvDpOT_, symObjAddr: 0x102DC, symBinAddr: 0x100014204, symSize: 0x90 }
  - { offsetInCU: 0x3B9CA, offset: 0x3B9CA, size: 0x8, addend: 0x0, symName: __ZNSt3__16vectorINS_12basic_stringIcNS_11char_traitsIcEENS_9allocatorIcEEEENS4_IS6_EEE21__push_back_slow_pathIRKS6_EEvOT_, symObjAddr: 0x1036C, symBinAddr: 0x100014294, symSize: 0xD8 }
  - { offsetInCU: 0x3BA28, offset: 0x3BA28, size: 0x8, addend: 0x0, symName: __ZNSt3__117__compressed_pairIPNS_12basic_stringIcNS_11char_traitsIcEENS_9allocatorIcEEEENS4_IS6_EEE5firstB8ue170006Ev, symObjAddr: 0x10444, symBinAddr: 0x10001436C, symSize: 0x24 }
  - { offsetInCU: 0x3BA4E, offset: 0x3BA4E, size: 0x8, addend: 0x0, symName: __ZNSt3__122__compressed_pair_elemIPNS_12basic_stringIcNS_11char_traitsIcEENS_9allocatorIcEEEELi0ELb0EE5__getB8ue170006Ev, symObjAddr: 0x10468, symBinAddr: 0x100014390, symSize: 0x14 }
  - { offsetInCU: 0x3BA92, offset: 0x3BA92, size: 0x8, addend: 0x0, symName: __ZNSt3__16vectorINS_12basic_stringIcNS_11char_traitsIcEENS_9allocatorIcEEEENS4_IS6_EEE21_ConstructTransactionC1B8ue170006ERS8_m, symObjAddr: 0x1047C, symBinAddr: 0x1000143A4, symSize: 0x3C }
  - { offsetInCU: 0x3BADA, offset: 0x3BADA, size: 0x8, addend: 0x0, symName: __ZNSt3__116allocator_traitsINS_9allocatorINS_12basic_stringIcNS_11char_traitsIcEENS1_IcEEEEEEE9constructB8ue170006IS6_JRKS6_EvEEvRS7_PT_DpOT0_, symObjAddr: 0x104B8, symBinAddr: 0x1000143E0, symSize: 0x34 }
  - { offsetInCU: 0x3BB31, offset: 0x3BB31, size: 0x8, addend: 0x0, symName: __ZNSt3__16vectorINS_12basic_stringIcNS_11char_traitsIcEENS_9allocatorIcEEEENS4_IS6_EEE21_ConstructTransactionD1B8ue170006Ev, symObjAddr: 0x104EC, symBinAddr: 0x100014414, symSize: 0x2C }
  - { offsetInCU: 0x3BB5B, offset: 0x3BB5B, size: 0x8, addend: 0x0, symName: __ZNSt3__16vectorINS_12basic_stringIcNS_11char_traitsIcEENS_9allocatorIcEEEENS4_IS6_EEE21_ConstructTransactionC2B8ue170006ERS8_m, symObjAddr: 0x10518, symBinAddr: 0x100014440, symSize: 0x4C }
  - { offsetInCU: 0x3BBA3, offset: 0x3BBA3, size: 0x8, addend: 0x0, symName: __ZNSt3__19allocatorINS_12basic_stringIcNS_11char_traitsIcEENS0_IcEEEEE9constructB8ue170006IS5_JRKS5_EEEvPT_DpOT0_, symObjAddr: 0x10564, symBinAddr: 0x10001448C, symSize: 0x30 }
  - { offsetInCU: 0x3BBF9, offset: 0x3BBF9, size: 0x8, addend: 0x0, symName: __ZNSt3__16vectorINS_12basic_stringIcNS_11char_traitsIcEENS_9allocatorIcEEEENS4_IS6_EEE21_ConstructTransactionD2B8ue170006Ev, symObjAddr: 0x10594, symBinAddr: 0x1000144BC, symSize: 0x20 }
  - { offsetInCU: 0x3BC23, offset: 0x3BC23, size: 0x8, addend: 0x0, symName: __ZNKSt3__16vectorINS_12basic_stringIcNS_11char_traitsIcEENS_9allocatorIcEEEENS4_IS6_EEE11__recommendB8ue170006Em, symObjAddr: 0x105B4, symBinAddr: 0x1000144DC, symSize: 0xB4 }
  - { offsetInCU: 0x3BC78, offset: 0x3BC78, size: 0x8, addend: 0x0, symName: __ZNSt3__114__split_bufferINS_12basic_stringIcNS_11char_traitsIcEENS_9allocatorIcEEEERNS4_IS6_EEEC1EmmS8_, symObjAddr: 0x10668, symBinAddr: 0x100014590, symSize: 0x44 }
  - { offsetInCU: 0x3BCCE, offset: 0x3BCCE, size: 0x8, addend: 0x0, symName: __ZNSt3__114__split_bufferINS_12basic_stringIcNS_11char_traitsIcEENS_9allocatorIcEEEERNS4_IS6_EEED1Ev, symObjAddr: 0x107BC, symBinAddr: 0x1000146E4, symSize: 0x2C }
  - { offsetInCU: 0x3BCFA, offset: 0x3BCFA, size: 0x8, addend: 0x0, symName: __ZNKSt3__16vectorINS_12basic_stringIcNS_11char_traitsIcEENS_9allocatorIcEEEENS4_IS6_EEE8max_sizeEv, symObjAddr: 0x107E8, symBinAddr: 0x100014710, symSize: 0x60 }
  - { offsetInCU: 0x3BD22, offset: 0x3BD22, size: 0x8, addend: 0x0, symName: __ZNKSt3__16vectorINS_12basic_stringIcNS_11char_traitsIcEENS_9allocatorIcEEEENS4_IS6_EEE20__throw_length_errorB8ue170006Ev, symObjAddr: 0x10848, symBinAddr: 0x100014770, symSize: 0x1C }
  - { offsetInCU: 0x3BD54, offset: 0x3BD54, size: 0x8, addend: 0x0, symName: __ZNSt3__116allocator_traitsINS_9allocatorINS_12basic_stringIcNS_11char_traitsIcEENS1_IcEEEEEEE8max_sizeB8ue170006IS7_vEEmRKS7_, symObjAddr: 0x10864, symBinAddr: 0x10001478C, symSize: 0x24 }
  - { offsetInCU: 0x3BD82, offset: 0x3BD82, size: 0x8, addend: 0x0, symName: __ZNKSt3__16vectorINS_12basic_stringIcNS_11char_traitsIcEENS_9allocatorIcEEEENS4_IS6_EEE7__allocB8ue170006Ev, symObjAddr: 0x10888, symBinAddr: 0x1000147B0, symSize: 0x28 }
  - { offsetInCU: 0x3BDA8, offset: 0x3BDA8, size: 0x8, addend: 0x0, symName: __ZNKSt3__19allocatorINS_12basic_stringIcNS_11char_traitsIcEENS0_IcEEEEE8max_sizeB8ue170006Ev, symObjAddr: 0x108B0, symBinAddr: 0x1000147D8, symSize: 0x18 }
  - { offsetInCU: 0x3BDCE, offset: 0x3BDCE, size: 0x8, addend: 0x0, symName: __ZNKSt3__117__compressed_pairIPNS_12basic_stringIcNS_11char_traitsIcEENS_9allocatorIcEEEENS4_IS6_EEE6secondB8ue170006Ev, symObjAddr: 0x108C8, symBinAddr: 0x1000147F0, symSize: 0x24 }
  - { offsetInCU: 0x3BDF4, offset: 0x3BDF4, size: 0x8, addend: 0x0, symName: __ZNKSt3__122__compressed_pair_elemINS_9allocatorINS_12basic_stringIcNS_11char_traitsIcEENS1_IcEEEEEELi1ELb1EE5__getB8ue170006Ev, symObjAddr: 0x108EC, symBinAddr: 0x100014814, symSize: 0x14 }
  - { offsetInCU: 0x3BE1A, offset: 0x3BE1A, size: 0x8, addend: 0x0, symName: __ZNSt3__114__split_bufferINS_12basic_stringIcNS_11char_traitsIcEENS_9allocatorIcEEEERNS4_IS6_EEEC2EmmS8_, symObjAddr: 0x10900, symBinAddr: 0x100014828, symSize: 0xE0 }
  - { offsetInCU: 0x3BE8D, offset: 0x3BE8D, size: 0x8, addend: 0x0, symName: __ZNSt3__117__compressed_pairIPNS_12basic_stringIcNS_11char_traitsIcEENS_9allocatorIcEEEERNS4_IS6_EEEC1B8ue170006IDnS9_EEOT_OT0_, symObjAddr: 0x109E0, symBinAddr: 0x100014908, symSize: 0x3C }
  - { offsetInCU: 0x3BEE5, offset: 0x3BEE5, size: 0x8, addend: 0x0, symName: __ZNSt3__114__split_bufferINS_12basic_stringIcNS_11char_traitsIcEENS_9allocatorIcEEEERNS4_IS6_EEE7__allocB8ue170006Ev, symObjAddr: 0x10A5C, symBinAddr: 0x100014984, symSize: 0x28 }
  - { offsetInCU: 0x3BF0B, offset: 0x3BF0B, size: 0x8, addend: 0x0, symName: __ZNSt3__114__split_bufferINS_12basic_stringIcNS_11char_traitsIcEENS_9allocatorIcEEEERNS4_IS6_EEE9__end_capB8ue170006Ev, symObjAddr: 0x10A84, symBinAddr: 0x1000149AC, symSize: 0x28 }
  - { offsetInCU: 0x3BF31, offset: 0x3BF31, size: 0x8, addend: 0x0, symName: __ZNSt3__117__compressed_pairIPNS_12basic_stringIcNS_11char_traitsIcEENS_9allocatorIcEEEERNS4_IS6_EEEC2B8ue170006IDnS9_EEOT_OT0_, symObjAddr: 0x10AAC, symBinAddr: 0x1000149D4, symSize: 0x48 }
  - { offsetInCU: 0x3BF89, offset: 0x3BF89, size: 0x8, addend: 0x0, symName: __ZNSt3__122__compressed_pair_elemIRNS_9allocatorINS_12basic_stringIcNS_11char_traitsIcEENS1_IcEEEEEELi1ELb0EEC2B8ue170006IS8_vEEOT_, symObjAddr: 0x10AF4, symBinAddr: 0x100014A1C, symSize: 0x20 }
  - { offsetInCU: 0x3BFCB, offset: 0x3BFCB, size: 0x8, addend: 0x0, symName: __ZNSt3__19allocatorINS_12basic_stringIcNS_11char_traitsIcEENS0_IcEEEEE8allocateB8ue170006Em, symObjAddr: 0x10B14, symBinAddr: 0x100014A3C, symSize: 0x5C }
  - { offsetInCU: 0x3BFFF, offset: 0x3BFFF, size: 0x8, addend: 0x0, symName: __ZNSt3__117__compressed_pairIPNS_12basic_stringIcNS_11char_traitsIcEENS_9allocatorIcEEEERNS4_IS6_EEE6secondB8ue170006Ev, symObjAddr: 0x10B70, symBinAddr: 0x100014A98, symSize: 0x28 }
  - { offsetInCU: 0x3C025, offset: 0x3C025, size: 0x8, addend: 0x0, symName: __ZNSt3__122__compressed_pair_elemIRNS_9allocatorINS_12basic_stringIcNS_11char_traitsIcEENS1_IcEEEEEELi1ELb0EE5__getB8ue170006Ev, symObjAddr: 0x10B98, symBinAddr: 0x100014AC0, symSize: 0x18 }
  - { offsetInCU: 0x3C04B, offset: 0x3C04B, size: 0x8, addend: 0x0, symName: __ZNSt3__117__compressed_pairIPNS_12basic_stringIcNS_11char_traitsIcEENS_9allocatorIcEEEERNS4_IS6_EEE5firstB8ue170006Ev, symObjAddr: 0x10BB0, symBinAddr: 0x100014AD8, symSize: 0x24 }
  - { offsetInCU: 0x3C071, offset: 0x3C071, size: 0x8, addend: 0x0, symName: __ZNSt3__116reverse_iteratorIPNS_12basic_stringIcNS_11char_traitsIcEENS_9allocatorIcEEEEEC1B8ue170006ES7_, symObjAddr: 0x10D00, symBinAddr: 0x100014C28, symSize: 0x34 }
  - { offsetInCU: 0x3C0A9, offset: 0x3C0A9, size: 0x8, addend: 0x0, symName: __ZNKSt3__116reverse_iteratorIPNS_12basic_stringIcNS_11char_traitsIcEENS_9allocatorIcEEEEE4baseB8ue170006Ev, symObjAddr: 0x10D34, symBinAddr: 0x100014C5C, symSize: 0x18 }
  - { offsetInCU: 0x3C0CF, offset: 0x3C0CF, size: 0x8, addend: 0x0, symName: __ZNKSt3__16vectorINS_12basic_stringIcNS_11char_traitsIcEENS_9allocatorIcEEEENS4_IS6_EEE14__annotate_newB8ue170006Em, symObjAddr: 0x10D88, symBinAddr: 0x100014CB0, symSize: 0xC8 }
  - { offsetInCU: 0x3C104, offset: 0x3C104, size: 0x8, addend: 0x0, symName: __ZNSt3__129_AllocatorDestroyRangeReverseINS_9allocatorINS_12basic_stringIcNS_11char_traitsIcEENS1_IcEEEEEENS_16reverse_iteratorIPS6_EEEC1B8ue170006ERS7_RSA_SD_, symObjAddr: 0x10E9C, symBinAddr: 0x100014DC4, symSize: 0x44 }
  - { offsetInCU: 0x3C15B, offset: 0x3C15B, size: 0x8, addend: 0x0, symName: __ZNSt3__116allocator_traitsINS_9allocatorINS_12basic_stringIcNS_11char_traitsIcEENS1_IcEEEEEEE9constructB8ue170006IS6_JS6_EvEEvRS7_PT_DpOT0_, symObjAddr: 0x10F28, symBinAddr: 0x100014E50, symSize: 0x34 }
  - { offsetInCU: 0x3C1B2, offset: 0x3C1B2, size: 0x8, addend: 0x0, symName: __ZNKSt3__116reverse_iteratorIPNS_12basic_stringIcNS_11char_traitsIcEENS_9allocatorIcEEEEEdeB8ue170006Ev, symObjAddr: 0x10F80, symBinAddr: 0x100014EA8, symSize: 0x28 }
  - { offsetInCU: 0x3C1E6, offset: 0x3C1E6, size: 0x8, addend: 0x0, symName: __ZNSt3__116reverse_iteratorIPNS_12basic_stringIcNS_11char_traitsIcEENS_9allocatorIcEEEEEppB8ue170006Ev, symObjAddr: 0x10FA8, symBinAddr: 0x100014ED0, symSize: 0x20 }
  - { offsetInCU: 0x3C20C, offset: 0x3C20C, size: 0x8, addend: 0x0, symName: __ZNSt3__128__exception_guard_exceptionsINS_29_AllocatorDestroyRangeReverseINS_9allocatorINS_12basic_stringIcNS_11char_traitsIcEENS2_IcEEEEEENS_16reverse_iteratorIPS7_EEEEE10__completeB8ue170006Ev, symObjAddr: 0x10FC8, symBinAddr: 0x100014EF0, symSize: 0x1C }
  - { offsetInCU: 0x3C232, offset: 0x3C232, size: 0x8, addend: 0x0, symName: __ZNSt3__128__exception_guard_exceptionsINS_29_AllocatorDestroyRangeReverseINS_9allocatorINS_12basic_stringIcNS_11char_traitsIcEENS2_IcEEEEEENS_16reverse_iteratorIPS7_EEEEED1B8ue170006Ev, symObjAddr: 0x10FE4, symBinAddr: 0x100014F0C, symSize: 0x2C }
  - { offsetInCU: 0x3C25C, offset: 0x3C25C, size: 0x8, addend: 0x0, symName: __ZNSt3__128__exception_guard_exceptionsINS_29_AllocatorDestroyRangeReverseINS_9allocatorINS_12basic_stringIcNS_11char_traitsIcEENS2_IcEEEEEENS_16reverse_iteratorIPS7_EEEEEC1B8ue170006ESC_, symObjAddr: 0x11010, symBinAddr: 0x100014F38, symSize: 0x34 }
  - { offsetInCU: 0x3C295, offset: 0x3C295, size: 0x8, addend: 0x0, symName: __ZNSt3__128__exception_guard_exceptionsINS_29_AllocatorDestroyRangeReverseINS_9allocatorINS_12basic_stringIcNS_11char_traitsIcEENS2_IcEEEEEENS_16reverse_iteratorIPS7_EEEEEC2B8ue170006ESC_, symObjAddr: 0x11044, symBinAddr: 0x100014F6C, symSize: 0x30 }
  - { offsetInCU: 0x3C2CE, offset: 0x3C2CE, size: 0x8, addend: 0x0, symName: __ZNSt3__129_AllocatorDestroyRangeReverseINS_9allocatorINS_12basic_stringIcNS_11char_traitsIcEENS1_IcEEEEEENS_16reverse_iteratorIPS6_EEEC2B8ue170006ERS7_RSA_SD_, symObjAddr: 0x11074, symBinAddr: 0x100014F9C, symSize: 0x38 }
  - { offsetInCU: 0x3C325, offset: 0x3C325, size: 0x8, addend: 0x0, symName: __ZNSt3__19allocatorINS_12basic_stringIcNS_11char_traitsIcEENS0_IcEEEEE9constructB8ue170006IS5_JS5_EEEvPT_DpOT0_, symObjAddr: 0x110AC, symBinAddr: 0x100014FD4, symSize: 0x30 }
  - { offsetInCU: 0x3C37B, offset: 0x3C37B, size: 0x8, addend: 0x0, symName: __ZNSt3__112basic_stringIcNS_11char_traitsIcEENS_9allocatorIcEEEC1B8ue170006EOS5_, symObjAddr: 0x110DC, symBinAddr: 0x100015004, symSize: 0x34 }
  - { offsetInCU: 0x3C3B4, offset: 0x3C3B4, size: 0x8, addend: 0x0, symName: __ZNSt3__112basic_stringIcNS_11char_traitsIcEENS_9allocatorIcEEEC2B8ue170006EOS5_, symObjAddr: 0x11110, symBinAddr: 0x100015038, symSize: 0x48 }
  - { offsetInCU: 0x3C3F3, offset: 0x3C3F3, size: 0x8, addend: 0x0, symName: __ZNSt3__119__to_address_helperINS_16reverse_iteratorIPNS_12basic_stringIcNS_11char_traitsIcEENS_9allocatorIcEEEEEEvE6__callB8ue170006ERKS9_, symObjAddr: 0x11158, symBinAddr: 0x100015080, symSize: 0x38 }
  - { offsetInCU: 0x3C416, offset: 0x3C416, size: 0x8, addend: 0x0, symName: __ZNKSt3__116reverse_iteratorIPNS_12basic_stringIcNS_11char_traitsIcEENS_9allocatorIcEEEEEptB8ue170006Ev, symObjAddr: 0x11190, symBinAddr: 0x1000150B8, symSize: 0x24 }
  - { offsetInCU: 0x3C43C, offset: 0x3C43C, size: 0x8, addend: 0x0, symName: __ZNSt3__128__exception_guard_exceptionsINS_29_AllocatorDestroyRangeReverseINS_9allocatorINS_12basic_stringIcNS_11char_traitsIcEENS2_IcEEEEEENS_16reverse_iteratorIPS7_EEEEED2B8ue170006Ev, symObjAddr: 0x111B4, symBinAddr: 0x1000150DC, symSize: 0x50 }
  - { offsetInCU: 0x3C466, offset: 0x3C466, size: 0x8, addend: 0x0, symName: __ZNKSt3__129_AllocatorDestroyRangeReverseINS_9allocatorINS_12basic_stringIcNS_11char_traitsIcEENS1_IcEEEEEENS_16reverse_iteratorIPS6_EEEclB8ue170006Ev, symObjAddr: 0x11204, symBinAddr: 0x10001512C, symSize: 0xB4 }
  - { offsetInCU: 0x3C48D, offset: 0x3C48D, size: 0x8, addend: 0x0, symName: __ZNSt3__116reverse_iteratorINS0_IPNS_12basic_stringIcNS_11char_traitsIcEENS_9allocatorIcEEEEEEEC1B8ue170006ES8_, symObjAddr: 0x11328, symBinAddr: 0x100015250, symSize: 0x3C }
  - { offsetInCU: 0x3C4C5, offset: 0x3C4C5, size: 0x8, addend: 0x0, symName: __ZNSt3__116reverse_iteratorINS0_IPNS_12basic_stringIcNS_11char_traitsIcEENS_9allocatorIcEEEEEEEppB8ue170006Ev, symObjAddr: 0x113E8, symBinAddr: 0x100015310, symSize: 0x30 }
  - { offsetInCU: 0x3C4EB, offset: 0x3C4EB, size: 0x8, addend: 0x0, symName: __ZNKSt3__116reverse_iteratorINS0_IPNS_12basic_stringIcNS_11char_traitsIcEENS_9allocatorIcEEEEEEE4baseB8ue170006Ev, symObjAddr: 0x11418, symBinAddr: 0x100015340, symSize: 0x24 }
  - { offsetInCU: 0x3C517, offset: 0x3C517, size: 0x8, addend: 0x0, symName: __ZNSt3__119__to_address_helperINS_16reverse_iteratorINS1_IPNS_12basic_stringIcNS_11char_traitsIcEENS_9allocatorIcEEEEEEEEvE6__callB8ue170006ERKSA_, symObjAddr: 0x1143C, symBinAddr: 0x100015364, symSize: 0x38 }
  - { offsetInCU: 0x3C53A, offset: 0x3C53A, size: 0x8, addend: 0x0, symName: __ZNKSt3__116reverse_iteratorINS0_IPNS_12basic_stringIcNS_11char_traitsIcEENS_9allocatorIcEEEEEEEptB8ue170006Ev, symObjAddr: 0x11474, symBinAddr: 0x10001539C, symSize: 0x24 }
  - { offsetInCU: 0x3C560, offset: 0x3C560, size: 0x8, addend: 0x0, symName: __ZNKSt3__116reverse_iteratorINS0_IPNS_12basic_stringIcNS_11char_traitsIcEENS_9allocatorIcEEEEEEEdeB8ue170006Ev, symObjAddr: 0x11498, symBinAddr: 0x1000153C0, symSize: 0x34 }
  - { offsetInCU: 0x3C594, offset: 0x3C594, size: 0x8, addend: 0x0, symName: __ZNSt3__116reverse_iteratorIPNS_12basic_stringIcNS_11char_traitsIcEENS_9allocatorIcEEEEEmmB8ue170006Ev, symObjAddr: 0x114CC, symBinAddr: 0x1000153F4, symSize: 0x20 }
  - { offsetInCU: 0x3C5BA, offset: 0x3C5BA, size: 0x8, addend: 0x0, symName: __ZNSt3__116reverse_iteratorINS0_IPNS_12basic_stringIcNS_11char_traitsIcEENS_9allocatorIcEEEEEEEC2B8ue170006ES8_, symObjAddr: 0x114EC, symBinAddr: 0x100015414, symSize: 0x2C }
  - { offsetInCU: 0x3C5F2, offset: 0x3C5F2, size: 0x8, addend: 0x0, symName: __ZNSt3__116reverse_iteratorIPNS_12basic_stringIcNS_11char_traitsIcEENS_9allocatorIcEEEEEC2B8ue170006ES7_, symObjAddr: 0x11518, symBinAddr: 0x100015440, symSize: 0x28 }
  - { offsetInCU: 0x3C62A, offset: 0x3C62A, size: 0x8, addend: 0x0, symName: __ZNSt3__114__split_bufferINS_12basic_stringIcNS_11char_traitsIcEENS_9allocatorIcEEEERNS4_IS6_EEED2Ev, symObjAddr: 0x11540, symBinAddr: 0x100015468, symSize: 0x8C }
  - { offsetInCU: 0x3C656, offset: 0x3C656, size: 0x8, addend: 0x0, symName: __ZNSt3__114__split_bufferINS_12basic_stringIcNS_11char_traitsIcEENS_9allocatorIcEEEERNS4_IS6_EEE5clearB8ue170006Ev, symObjAddr: 0x115CC, symBinAddr: 0x1000154F4, symSize: 0x28 }
  - { offsetInCU: 0x3C67C, offset: 0x3C67C, size: 0x8, addend: 0x0, symName: __ZNKSt3__114__split_bufferINS_12basic_stringIcNS_11char_traitsIcEENS_9allocatorIcEEEERNS4_IS6_EEE8capacityB8ue170006Ev, symObjAddr: 0x115F4, symBinAddr: 0x10001551C, symSize: 0x40 }
  - { offsetInCU: 0x3C6A2, offset: 0x3C6A2, size: 0x8, addend: 0x0, symName: __ZNSt3__114__split_bufferINS_12basic_stringIcNS_11char_traitsIcEENS_9allocatorIcEEEERNS4_IS6_EEE17__destruct_at_endB8ue170006EPS6_, symObjAddr: 0x11634, symBinAddr: 0x10001555C, symSize: 0x2C }
  - { offsetInCU: 0x3C6D6, offset: 0x3C6D6, size: 0x8, addend: 0x0, symName: __ZNSt3__114__split_bufferINS_12basic_stringIcNS_11char_traitsIcEENS_9allocatorIcEEEERNS4_IS6_EEE17__destruct_at_endB8ue170006EPS6_NS_17integral_constantIbLb0EEE, symObjAddr: 0x11660, symBinAddr: 0x100015588, symSize: 0x80 }
  - { offsetInCU: 0x3C716, offset: 0x3C716, size: 0x8, addend: 0x0, symName: __ZNKSt3__114__split_bufferINS_12basic_stringIcNS_11char_traitsIcEENS_9allocatorIcEEEERNS4_IS6_EEE9__end_capB8ue170006Ev, symObjAddr: 0x116E0, symBinAddr: 0x100015608, symSize: 0x28 }
  - { offsetInCU: 0x3C73C, offset: 0x3C73C, size: 0x8, addend: 0x0, symName: __ZNKSt3__117__compressed_pairIPNS_12basic_stringIcNS_11char_traitsIcEENS_9allocatorIcEEEERNS4_IS6_EEE5firstB8ue170006Ev, symObjAddr: 0x11708, symBinAddr: 0x100015630, symSize: 0x24 }
  - { offsetInCU: 0x3C77A, offset: 0x3C77A, size: 0x8, addend: 0x0, symName: __ZNSt3__16__treeINS_12__value_typeINS_12basic_stringIcNS_11char_traitsIcEENS_9allocatorIcEEEENS_3mapIS7_fNS_4lessIS7_EENS5_INS_4pairIKS7_fEEEEEEEENS_19__map_value_compareIS7_SG_SA_Lb1EEENS5_ISG_EEE25__emplace_unique_key_argsIS7_JRKNS_21piecewise_construct_tENS_5tupleIJOS7_EEENSP_IJEEEEEENSB_INS_15__tree_iteratorISG_PNS_11__tree_nodeISG_PvEElEEbEERKT_DpOT0_, symObjAddr: 0x1172C, symBinAddr: 0x100015654, symSize: 0x100 }
  - { offsetInCU: 0x3C850, offset: 0x3C850, size: 0x8, addend: 0x0, symName: __ZNSt3__16__treeINS_12__value_typeINS_12basic_stringIcNS_11char_traitsIcEENS_9allocatorIcEEEENS_3mapIS7_fNS_4lessIS7_EENS5_INS_4pairIKS7_fEEEEEEEENS_19__map_value_compareIS7_SG_SA_Lb1EEENS5_ISG_EEE12__find_equalIS7_EERPNS_16__tree_node_baseIPvEERPNS_15__tree_end_nodeISP_EERKT_, symObjAddr: 0x1185C, symBinAddr: 0x100015784, symSize: 0x184 }
  - { offsetInCU: 0x3C8BD, offset: 0x3C8BD, size: 0x8, addend: 0x0, symName: __ZNSt3__16__treeINS_12__value_typeINS_12basic_stringIcNS_11char_traitsIcEENS_9allocatorIcEEEENS_3mapIS7_fNS_4lessIS7_EENS5_INS_4pairIKS7_fEEEEEEEENS_19__map_value_compareIS7_SG_SA_Lb1EEENS5_ISG_EEE16__construct_nodeIJRKNS_21piecewise_construct_tENS_5tupleIJOS7_EEENSP_IJEEEEEENS_10unique_ptrINS_11__tree_nodeISG_PvEENS_22__tree_node_destructorINS5_ISW_EEEEEEDpOT_, symObjAddr: 0x119E0, symBinAddr: 0x100015908, symSize: 0x120 }
  - { offsetInCU: 0x3C946, offset: 0x3C946, size: 0x8, addend: 0x0, symName: __ZNSt3__16__treeINS_12__value_typeINS_12basic_stringIcNS_11char_traitsIcEENS_9allocatorIcEEEENS_3mapIS7_fNS_4lessIS7_EENS5_INS_4pairIKS7_fEEEEEEEENS_19__map_value_compareIS7_SG_SA_Lb1EEENS5_ISG_EEE16__insert_node_atEPNS_15__tree_end_nodeIPNS_16__tree_node_baseIPvEEEERSP_SP_, symObjAddr: 0x11B00, symBinAddr: 0x100015A28, symSize: 0xCC }
  - { offsetInCU: 0x3C99B, offset: 0x3C99B, size: 0x8, addend: 0x0, symName: __ZNKSt3__110unique_ptrINS_11__tree_nodeINS_12__value_typeINS_12basic_stringIcNS_11char_traitsIcEENS_9allocatorIcEEEENS_3mapIS8_fNS_4lessIS8_EENS6_INS_4pairIKS8_fEEEEEEEEPvEENS_22__tree_node_destructorINS6_ISJ_EEEEE3getB8ue170006Ev, symObjAddr: 0x11BCC, symBinAddr: 0x100015AF4, symSize: 0x28 }
  - { offsetInCU: 0x3C9C1, offset: 0x3C9C1, size: 0x8, addend: 0x0, symName: __ZNSt3__110unique_ptrINS_11__tree_nodeINS_12__value_typeINS_12basic_stringIcNS_11char_traitsIcEENS_9allocatorIcEEEENS_3mapIS8_fNS_4lessIS8_EENS6_INS_4pairIKS8_fEEEEEEEEPvEENS_22__tree_node_destructorINS6_ISJ_EEEEE7releaseB8ue170006Ev, symObjAddr: 0x11BF4, symBinAddr: 0x100015B1C, symSize: 0x44 }
  - { offsetInCU: 0x3C9F6, offset: 0x3C9F6, size: 0x8, addend: 0x0, symName: __ZNSt3__110unique_ptrINS_11__tree_nodeINS_12__value_typeINS_12basic_stringIcNS_11char_traitsIcEENS_9allocatorIcEEEENS_3mapIS8_fNS_4lessIS8_EENS6_INS_4pairIKS8_fEEEEEEEEPvEENS_22__tree_node_destructorINS6_ISJ_EEEEED1B8ue170006Ev, symObjAddr: 0x11C38, symBinAddr: 0x100015B60, symSize: 0x2C }
  - { offsetInCU: 0x3CA20, offset: 0x3CA20, size: 0x8, addend: 0x0, symName: __ZNSt3__115__tree_iteratorINS_12__value_typeINS_12basic_stringIcNS_11char_traitsIcEENS_9allocatorIcEEEENS_3mapIS7_fNS_4lessIS7_EENS5_INS_4pairIKS7_fEEEEEEEEPNS_11__tree_nodeISG_PvEElEC1B8ue170006ESK_, symObjAddr: 0x11C64, symBinAddr: 0x100015B8C, symSize: 0x34 }
  - { offsetInCU: 0x3CA5F, offset: 0x3CA5F, size: 0x8, addend: 0x0, symName: __ZNSt3__14pairINS_15__tree_iteratorINS_12__value_typeINS_12basic_stringIcNS_11char_traitsIcEENS_9allocatorIcEEEENS_3mapIS8_fNS_4lessIS8_EENS6_INS0_IKS8_fEEEEEEEEPNS_11__tree_nodeISG_PvEElEEbEC1B8ue170006ISL_RbLSI_0EEEOT_OT0_, symObjAddr: 0x11C98, symBinAddr: 0x100015BC0, symSize: 0x3C }
  - { offsetInCU: 0x3CABD, offset: 0x3CABD, size: 0x8, addend: 0x0, symName: __ZNKSt3__16__treeINS_12__value_typeINS_12basic_stringIcNS_11char_traitsIcEENS_9allocatorIcEEEENS_3mapIS7_fNS_4lessIS7_EENS5_INS_4pairIKS7_fEEEEEEEENS_19__map_value_compareIS7_SG_SA_Lb1EEENS5_ISG_EEE10__root_ptrB8ue170006Ev, symObjAddr: 0x11CD4, symBinAddr: 0x100015BFC, symSize: 0x24 }
  - { offsetInCU: 0x3CAE3, offset: 0x3CAE3, size: 0x8, addend: 0x0, symName: __ZNSt3__16__treeINS_12__value_typeINS_12basic_stringIcNS_11char_traitsIcEENS_9allocatorIcEEEENS_3mapIS7_fNS_4lessIS7_EENS5_INS_4pairIKS7_fEEEEEEEENS_19__map_value_compareIS7_SG_SA_Lb1EEENS5_ISG_EEE10value_compB8ue170006Ev, symObjAddr: 0x11CF8, symBinAddr: 0x100015C20, symSize: 0x28 }
  - { offsetInCU: 0x3CB09, offset: 0x3CB09, size: 0x8, addend: 0x0, symName: __ZNKSt3__119__map_value_compareINS_12basic_stringIcNS_11char_traitsIcEENS_9allocatorIcEEEENS_12__value_typeIS6_NS_3mapIS6_fNS_4lessIS6_EENS4_INS_4pairIKS6_fEEEEEEEESA_Lb1EEclB8ue170006ERSC_RKSG_, symObjAddr: 0x11D20, symBinAddr: 0x100015C48, symSize: 0x50 }
  - { offsetInCU: 0x3CB4D, offset: 0x3CB4D, size: 0x8, addend: 0x0, symName: __ZNKSt3__119__map_value_compareINS_12basic_stringIcNS_11char_traitsIcEENS_9allocatorIcEEEENS_12__value_typeIS6_NS_3mapIS6_fNS_4lessIS6_EENS4_INS_4pairIKS6_fEEEEEEEESA_Lb1EEclB8ue170006ERKSG_RSC_, symObjAddr: 0x11D70, symBinAddr: 0x100015C98, symSize: 0x48 }
  - { offsetInCU: 0x3CB91, offset: 0x3CB91, size: 0x8, addend: 0x0, symName: __ZNSt3__117__compressed_pairImNS_19__map_value_compareINS_12basic_stringIcNS_11char_traitsIcEENS_9allocatorIcEEEENS_12__value_typeIS7_NS_3mapIS7_fNS_4lessIS7_EENS5_INS_4pairIKS7_fEEEEEEEESB_Lb1EEEE6secondB8ue170006Ev, symObjAddr: 0x11DB8, symBinAddr: 0x100015CE0, symSize: 0x24 }
  - { offsetInCU: 0x3CBB7, offset: 0x3CBB7, size: 0x8, addend: 0x0, symName: __ZNSt3__122__compressed_pair_elemINS_19__map_value_compareINS_12basic_stringIcNS_11char_traitsIcEENS_9allocatorIcEEEENS_12__value_typeIS7_NS_3mapIS7_fNS_4lessIS7_EENS5_INS_4pairIKS7_fEEEEEEEESB_Lb1EEELi1ELb1EE5__getB8ue170006Ev, symObjAddr: 0x11DDC, symBinAddr: 0x100015D04, symSize: 0x14 }
  - { offsetInCU: 0x3CBDD, offset: 0x3CBDD, size: 0x8, addend: 0x0, symName: __ZNKSt3__112__value_typeINS_12basic_stringIcNS_11char_traitsIcEENS_9allocatorIcEEEENS_3mapIS6_fNS_4lessIS6_EENS4_INS_4pairIKS6_fEEEEEEE11__get_valueB8ue170006Ev, symObjAddr: 0x11DF0, symBinAddr: 0x100015D18, symSize: 0x14 }
  - { offsetInCU: 0x3CC03, offset: 0x3CC03, size: 0x8, addend: 0x0, symName: __ZNSt3__116allocator_traitsINS_9allocatorINS_11__tree_nodeINS_12__value_typeINS_12basic_stringIcNS_11char_traitsIcEENS1_IcEEEENS_3mapIS8_fNS_4lessIS8_EENS1_INS_4pairIKS8_fEEEEEEEEPvEEEEE8allocateB8ue170006ERSK_m, symObjAddr: 0x11E04, symBinAddr: 0x100015D2C, symSize: 0x2C }
  - { offsetInCU: 0x3CC36, offset: 0x3CC36, size: 0x8, addend: 0x0, symName: __ZNSt3__122__tree_node_destructorINS_9allocatorINS_11__tree_nodeINS_12__value_typeINS_12basic_stringIcNS_11char_traitsIcEENS1_IcEEEENS_3mapIS8_fNS_4lessIS8_EENS1_INS_4pairIKS8_fEEEEEEEEPvEEEEEC1B8ue170006ERSK_b, symObjAddr: 0x11E30, symBinAddr: 0x100015D58, symSize: 0x48 }
  - { offsetInCU: 0x3CC84, offset: 0x3CC84, size: 0x8, addend: 0x0, symName: __ZNSt3__110unique_ptrINS_11__tree_nodeINS_12__value_typeINS_12basic_stringIcNS_11char_traitsIcEENS_9allocatorIcEEEENS_3mapIS8_fNS_4lessIS8_EENS6_INS_4pairIKS8_fEEEEEEEEPvEENS_22__tree_node_destructorINS6_ISJ_EEEEEC1B8ue170006ILb1EvEEPSJ_NS_16__dependent_typeINS_27__unique_ptr_deleter_sfinaeISM_EEXT_EE20__good_rval_ref_typeE, symObjAddr: 0x11E78, symBinAddr: 0x100015DA0, symSize: 0x3C }
  - { offsetInCU: 0x3CCD5, offset: 0x3CCD5, size: 0x8, addend: 0x0, symName: __ZNSt3__116allocator_traitsINS_9allocatorINS_11__tree_nodeINS_12__value_typeINS_12basic_stringIcNS_11char_traitsIcEENS1_IcEEEENS_3mapIS8_fNS_4lessIS8_EENS1_INS_4pairIKS8_fEEEEEEEEPvEEEEE9constructB8ue170006INSC_ISD_SG_EEJRKNS_21piecewise_construct_tENS_5tupleIJOS8_EEENSR_IJEEEEvEEvRSK_PT_DpOT0_, symObjAddr: 0x11EB4, symBinAddr: 0x100015DDC, symSize: 0x44 }
  - { offsetInCU: 0x3CD54, offset: 0x3CD54, size: 0x8, addend: 0x0, symName: __ZNKSt3__110unique_ptrINS_11__tree_nodeINS_12__value_typeINS_12basic_stringIcNS_11char_traitsIcEENS_9allocatorIcEEEENS_3mapIS8_fNS_4lessIS8_EENS6_INS_4pairIKS8_fEEEEEEEEPvEENS_22__tree_node_destructorINS6_ISJ_EEEEEptB8ue170006Ev, symObjAddr: 0x11EF8, symBinAddr: 0x100015E20, symSize: 0x28 }
  - { offsetInCU: 0x3CD7A, offset: 0x3CD7A, size: 0x8, addend: 0x0, symName: __ZNSt3__110unique_ptrINS_11__tree_nodeINS_12__value_typeINS_12basic_stringIcNS_11char_traitsIcEENS_9allocatorIcEEEENS_3mapIS8_fNS_4lessIS8_EENS6_INS_4pairIKS8_fEEEEEEEEPvEENS_22__tree_node_destructorINS6_ISJ_EEEEE11get_deleterB8ue170006Ev, symObjAddr: 0x11F20, symBinAddr: 0x100015E48, symSize: 0x24 }
  - { offsetInCU: 0x3CDA0, offset: 0x3CDA0, size: 0x8, addend: 0x0, symName: __ZNSt3__19allocatorINS_11__tree_nodeINS_12__value_typeINS_12basic_stringIcNS_11char_traitsIcEENS0_IcEEEENS_3mapIS7_fNS_4lessIS7_EENS0_INS_4pairIKS7_fEEEEEEEEPvEEE8allocateB8ue170006Em, symObjAddr: 0x11F44, symBinAddr: 0x100015E6C, symSize: 0x5C }
  - { offsetInCU: 0x3CDE0, offset: 0x3CDE0, size: 0x8, addend: 0x0, symName: __ZNSt3__116allocator_traitsINS_9allocatorINS_11__tree_nodeINS_12__value_typeINS_12basic_stringIcNS_11char_traitsIcEENS1_IcEEEENS_3mapIS8_fNS_4lessIS8_EENS1_INS_4pairIKS8_fEEEEEEEEPvEEEEE8max_sizeB8ue170006ISK_vEEmRKSK_, symObjAddr: 0x11FA0, symBinAddr: 0x100015EC8, symSize: 0x24 }
  - { offsetInCU: 0x3CE0E, offset: 0x3CE0E, size: 0x8, addend: 0x0, symName: __ZNKSt3__19allocatorINS_11__tree_nodeINS_12__value_typeINS_12basic_stringIcNS_11char_traitsIcEENS0_IcEEEENS_3mapIS7_fNS_4lessIS7_EENS0_INS_4pairIKS7_fEEEEEEEEPvEEE8max_sizeB8ue170006Ev, symObjAddr: 0x11FC4, symBinAddr: 0x100015EEC, symSize: 0x18 }
  - { offsetInCU: 0x3CE34, offset: 0x3CE34, size: 0x8, addend: 0x0, symName: __ZNSt3__122__tree_node_destructorINS_9allocatorINS_11__tree_nodeINS_12__value_typeINS_12basic_stringIcNS_11char_traitsIcEENS1_IcEEEENS_3mapIS8_fNS_4lessIS8_EENS1_INS_4pairIKS8_fEEEEEEEEPvEEEEEC2B8ue170006ERSK_b, symObjAddr: 0x11FDC, symBinAddr: 0x100015F04, symSize: 0x38 }
  - { offsetInCU: 0x3CE7C, offset: 0x3CE7C, size: 0x8, addend: 0x0, symName: __ZNSt3__110unique_ptrINS_11__tree_nodeINS_12__value_typeINS_12basic_stringIcNS_11char_traitsIcEENS_9allocatorIcEEEENS_3mapIS8_fNS_4lessIS8_EENS6_INS_4pairIKS8_fEEEEEEEEPvEENS_22__tree_node_destructorINS6_ISJ_EEEEEC2B8ue170006ILb1EvEEPSJ_NS_16__dependent_typeINS_27__unique_ptr_deleter_sfinaeISM_EEXT_EE20__good_rval_ref_typeE, symObjAddr: 0x12014, symBinAddr: 0x100015F3C, symSize: 0x48 }
  - { offsetInCU: 0x3CECD, offset: 0x3CECD, size: 0x8, addend: 0x0, symName: __ZNSt3__117__compressed_pairIPNS_11__tree_nodeINS_12__value_typeINS_12basic_stringIcNS_11char_traitsIcEENS_9allocatorIcEEEENS_3mapIS8_fNS_4lessIS8_EENS6_INS_4pairIKS8_fEEEEEEEEPvEENS_22__tree_node_destructorINS6_ISJ_EEEEEC1B8ue170006IRSK_SN_EEOT_OT0_, symObjAddr: 0x1205C, symBinAddr: 0x100015F84, symSize: 0x3C }
  - { offsetInCU: 0x3CF25, offset: 0x3CF25, size: 0x8, addend: 0x0, symName: __ZNSt3__117__compressed_pairIPNS_11__tree_nodeINS_12__value_typeINS_12basic_stringIcNS_11char_traitsIcEENS_9allocatorIcEEEENS_3mapIS8_fNS_4lessIS8_EENS6_INS_4pairIKS8_fEEEEEEEEPvEENS_22__tree_node_destructorINS6_ISJ_EEEEEC2B8ue170006IRSK_SN_EEOT_OT0_, symObjAddr: 0x12098, symBinAddr: 0x100015FC0, symSize: 0x48 }
  - { offsetInCU: 0x3CF7D, offset: 0x3CF7D, size: 0x8, addend: 0x0, symName: __ZNSt3__122__compressed_pair_elemIPNS_11__tree_nodeINS_12__value_typeINS_12basic_stringIcNS_11char_traitsIcEENS_9allocatorIcEEEENS_3mapIS8_fNS_4lessIS8_EENS6_INS_4pairIKS8_fEEEEEEEEPvEELi0ELb0EEC2B8ue170006IRSK_vEEOT_, symObjAddr: 0x120E0, symBinAddr: 0x100016008, symSize: 0x24 }
  - { offsetInCU: 0x3CFBF, offset: 0x3CFBF, size: 0x8, addend: 0x0, symName: __ZNSt3__122__compressed_pair_elemINS_22__tree_node_destructorINS_9allocatorINS_11__tree_nodeINS_12__value_typeINS_12basic_stringIcNS_11char_traitsIcEENS2_IcEEEENS_3mapIS9_fNS_4lessIS9_EENS2_INS_4pairIKS9_fEEEEEEEEPvEEEEEELi1ELb0EEC2B8ue170006ISM_vEEOT_, symObjAddr: 0x12104, symBinAddr: 0x10001602C, symSize: 0x24 }
  - { offsetInCU: 0x3D001, offset: 0x3D001, size: 0x8, addend: 0x0, symName: __ZNSt3__19allocatorINS_11__tree_nodeINS_12__value_typeINS_12basic_stringIcNS_11char_traitsIcEENS0_IcEEEENS_3mapIS7_fNS_4lessIS7_EENS0_INS_4pairIKS7_fEEEEEEEEPvEEE9constructB8ue170006INSB_ISC_SF_EEJRKNS_21piecewise_construct_tENS_5tupleIJOS7_EEENSP_IJEEEEEEvPT_DpOT0_, symObjAddr: 0x12128, symBinAddr: 0x100016050, symSize: 0x44 }
  - { offsetInCU: 0x3D07D, offset: 0x3D07D, size: 0x8, addend: 0x0, symName: __ZNSt3__14pairIKNS_12basic_stringIcNS_11char_traitsIcEENS_9allocatorIcEEEENS_3mapIS6_fNS_4lessIS6_EENS4_INS0_IS7_fEEEEEEEC1B8ue170006IJOS6_EJEEENS_21piecewise_construct_tENS_5tupleIJDpT_EEENSI_IJDpT0_EEE, symObjAddr: 0x1216C, symBinAddr: 0x100016094, symSize: 0x44 }
  - { offsetInCU: 0x3D0E4, offset: 0x3D0E4, size: 0x8, addend: 0x0, symName: __ZNSt3__14pairIKNS_12basic_stringIcNS_11char_traitsIcEENS_9allocatorIcEEEENS_3mapIS6_fNS_4lessIS6_EENS4_INS0_IS7_fEEEEEEEC1B8ue170006IJOS6_EJEJLm0EEJEEENS_21piecewise_construct_tERNS_5tupleIJDpT_EEERNSI_IJDpT0_EEENS_15__tuple_indicesIJXspT1_EEEENSR_IJXspT2_EEEE, symObjAddr: 0x121B0, symBinAddr: 0x1000160D8, symSize: 0x3C }
  - { offsetInCU: 0x3D174, offset: 0x3D174, size: 0x8, addend: 0x0, symName: __ZNSt3__14pairIKNS_12basic_stringIcNS_11char_traitsIcEENS_9allocatorIcEEEENS_3mapIS6_fNS_4lessIS6_EENS4_INS0_IS7_fEEEEEEEC2B8ue170006IJOS6_EJEJLm0EEJEEENS_21piecewise_construct_tERNS_5tupleIJDpT_EEERNSI_IJDpT0_EEENS_15__tuple_indicesIJXspT1_EEEENSR_IJXspT2_EEEE, symObjAddr: 0x121EC, symBinAddr: 0x100016114, symSize: 0x50 }
  - { offsetInCU: 0x3D204, offset: 0x3D204, size: 0x8, addend: 0x0, symName: __ZNSt3__13mapINS_12basic_stringIcNS_11char_traitsIcEENS_9allocatorIcEEEEfNS_4lessIS6_EENS4_INS_4pairIKS6_fEEEEEC1B8ue170006Ev, symObjAddr: 0x12260, symBinAddr: 0x100016188, symSize: 0x2C }
  - { offsetInCU: 0x3D22E, offset: 0x3D22E, size: 0x8, addend: 0x0, symName: __ZNSt3__112__tuple_leafILm0EONS_12basic_stringIcNS_11char_traitsIcEENS_9allocatorIcEEEELb0EE3getB8ue170006Ev, symObjAddr: 0x1228C, symBinAddr: 0x1000161B4, symSize: 0x18 }
  - { offsetInCU: 0x3D254, offset: 0x3D254, size: 0x8, addend: 0x0, symName: __ZNSt3__13mapINS_12basic_stringIcNS_11char_traitsIcEENS_9allocatorIcEEEEfNS_4lessIS6_EENS4_INS_4pairIKS6_fEEEEEC2B8ue170006Ev, symObjAddr: 0x122A4, symBinAddr: 0x1000161CC, symSize: 0x40 }
  - { offsetInCU: 0x3D27E, offset: 0x3D27E, size: 0x8, addend: 0x0, symName: __ZNSt3__119__map_value_compareINS_12basic_stringIcNS_11char_traitsIcEENS_9allocatorIcEEEENS_12__value_typeIS6_fEENS_4lessIS6_EELb1EEC1B8ue170006ESA_, symObjAddr: 0x122E4, symBinAddr: 0x10001620C, symSize: 0x2C }
  - { offsetInCU: 0x3D2B7, offset: 0x3D2B7, size: 0x8, addend: 0x0, symName: __ZNSt3__16__treeINS_12__value_typeINS_12basic_stringIcNS_11char_traitsIcEENS_9allocatorIcEEEEfEENS_19__map_value_compareIS7_S8_NS_4lessIS7_EELb1EEENS5_IS8_EEEC1ERKSC_, symObjAddr: 0x12310, symBinAddr: 0x100016238, symSize: 0x34 }
  - { offsetInCU: 0x3D2F2, offset: 0x3D2F2, size: 0x8, addend: 0x0, symName: __ZNSt3__119__map_value_compareINS_12basic_stringIcNS_11char_traitsIcEENS_9allocatorIcEEEENS_12__value_typeIS6_fEENS_4lessIS6_EELb1EEC2B8ue170006ESA_, symObjAddr: 0x12344, symBinAddr: 0x10001626C, symSize: 0x14 }
  - { offsetInCU: 0x3D32B, offset: 0x3D32B, size: 0x8, addend: 0x0, symName: __ZNSt3__16__treeINS_12__value_typeINS_12basic_stringIcNS_11char_traitsIcEENS_9allocatorIcEEEEfEENS_19__map_value_compareIS7_S8_NS_4lessIS7_EELb1EEENS5_IS8_EEEC2ERKSC_, symObjAddr: 0x12358, symBinAddr: 0x100016280, symSize: 0x7C }
  - { offsetInCU: 0x3D366, offset: 0x3D366, size: 0x8, addend: 0x0, symName: __ZNSt3__117__compressed_pairINS_15__tree_end_nodeIPNS_16__tree_node_baseIPvEEEENS_9allocatorINS_11__tree_nodeINS_12__value_typeINS_12basic_stringIcNS_11char_traitsIcEENS7_IcEEEEfEES3_EEEEEC1B8ue170006ILb1EvEEv, symObjAddr: 0x123D4, symBinAddr: 0x1000162FC, symSize: 0x2C }
  - { offsetInCU: 0x3D39B, offset: 0x3D39B, size: 0x8, addend: 0x0, symName: __ZNSt3__117__compressed_pairINS_15__tree_end_nodeIPNS_16__tree_node_baseIPvEEEENS_9allocatorINS_11__tree_nodeINS_12__value_typeINS_12basic_stringIcNS_11char_traitsIcEENS7_IcEEEEfEES3_EEEEEC2B8ue170006ILb1EvEEv, symObjAddr: 0x12400, symBinAddr: 0x100016328, symSize: 0x34 }
  - { offsetInCU: 0x3D3D0, offset: 0x3D3D0, size: 0x8, addend: 0x0, symName: __ZNSt3__122__compressed_pair_elemINS_9allocatorINS_11__tree_nodeINS_12__value_typeINS_12basic_stringIcNS_11char_traitsIcEENS1_IcEEEEfEEPvEEEELi1ELb1EEC2B8ue170006ENS_16__value_init_tagE, symObjAddr: 0x12434, symBinAddr: 0x10001635C, symSize: 0x2C }
  - { offsetInCU: 0x3D404, offset: 0x3D404, size: 0x8, addend: 0x0, symName: __ZNSt3__19allocatorINS_11__tree_nodeINS_12__value_typeINS_12basic_stringIcNS_11char_traitsIcEENS0_IcEEEEfEEPvEEEC2B8ue170006Ev, symObjAddr: 0x12460, symBinAddr: 0x100016388, symSize: 0x2C }
  - { offsetInCU: 0x3D42E, offset: 0x3D42E, size: 0x8, addend: 0x0, symName: __ZNSt3__116__non_trivial_ifILb1ENS_9allocatorINS_11__tree_nodeINS_12__value_typeINS_12basic_stringIcNS_11char_traitsIcEENS1_IcEEEEfEEPvEEEEEC2B8ue170006Ev, symObjAddr: 0x1248C, symBinAddr: 0x1000163B4, symSize: 0x14 }
  - { offsetInCU: 0x3D458, offset: 0x3D458, size: 0x8, addend: 0x0, symName: __ZNKSt3__117__compressed_pairIPNS_11__tree_nodeINS_12__value_typeINS_12basic_stringIcNS_11char_traitsIcEENS_9allocatorIcEEEENS_3mapIS8_fNS_4lessIS8_EENS6_INS_4pairIKS8_fEEEEEEEEPvEENS_22__tree_node_destructorINS6_ISJ_EEEEE5firstB8ue170006Ev, symObjAddr: 0x124A0, symBinAddr: 0x1000163C8, symSize: 0x24 }
  - { offsetInCU: 0x3D47E, offset: 0x3D47E, size: 0x8, addend: 0x0, symName: __ZNKSt3__122__compressed_pair_elemIPNS_11__tree_nodeINS_12__value_typeINS_12basic_stringIcNS_11char_traitsIcEENS_9allocatorIcEEEENS_3mapIS8_fNS_4lessIS8_EENS6_INS_4pairIKS8_fEEEEEEEEPvEELi0ELb0EE5__getB8ue170006Ev, symObjAddr: 0x124C4, symBinAddr: 0x1000163EC, symSize: 0x14 }
  - { offsetInCU: 0x3D4A4, offset: 0x3D4A4, size: 0x8, addend: 0x0, symName: __ZNSt3__117__compressed_pairIPNS_11__tree_nodeINS_12__value_typeINS_12basic_stringIcNS_11char_traitsIcEENS_9allocatorIcEEEENS_3mapIS8_fNS_4lessIS8_EENS6_INS_4pairIKS8_fEEEEEEEEPvEENS_22__tree_node_destructorINS6_ISJ_EEEEE6secondB8ue170006Ev, symObjAddr: 0x124D8, symBinAddr: 0x100016400, symSize: 0x28 }
  - { offsetInCU: 0x3D4CA, offset: 0x3D4CA, size: 0x8, addend: 0x0, symName: __ZNSt3__122__compressed_pair_elemINS_22__tree_node_destructorINS_9allocatorINS_11__tree_nodeINS_12__value_typeINS_12basic_stringIcNS_11char_traitsIcEENS2_IcEEEENS_3mapIS9_fNS_4lessIS9_EENS2_INS_4pairIKS9_fEEEEEEEEPvEEEEEELi1ELb0EE5__getB8ue170006Ev, symObjAddr: 0x12500, symBinAddr: 0x100016428, symSize: 0x14 }
  - { offsetInCU: 0x3D4F0, offset: 0x3D4F0, size: 0x8, addend: 0x0, symName: __ZNSt3__16__treeINS_12__value_typeINS_12basic_stringIcNS_11char_traitsIcEENS_9allocatorIcEEEENS_3mapIS7_fNS_4lessIS7_EENS5_INS_4pairIKS7_fEEEEEEEENS_19__map_value_compareIS7_SG_SA_Lb1EEENS5_ISG_EEE4sizeB8ue170006Ev, symObjAddr: 0x12514, symBinAddr: 0x10001643C, symSize: 0x28 }
  - { offsetInCU: 0x3D516, offset: 0x3D516, size: 0x8, addend: 0x0, symName: __ZNSt3__117__compressed_pairImNS_19__map_value_compareINS_12basic_stringIcNS_11char_traitsIcEENS_9allocatorIcEEEENS_12__value_typeIS7_NS_3mapIS7_fNS_4lessIS7_EENS5_INS_4pairIKS7_fEEEEEEEESB_Lb1EEEE5firstB8ue170006Ev, symObjAddr: 0x1253C, symBinAddr: 0x100016464, symSize: 0x24 }
  - { offsetInCU: 0x3D53C, offset: 0x3D53C, size: 0x8, addend: 0x0, symName: __ZNSt3__117__compressed_pairIPNS_11__tree_nodeINS_12__value_typeINS_12basic_stringIcNS_11char_traitsIcEENS_9allocatorIcEEEENS_3mapIS8_fNS_4lessIS8_EENS6_INS_4pairIKS8_fEEEEEEEEPvEENS_22__tree_node_destructorINS6_ISJ_EEEEE5firstB8ue170006Ev, symObjAddr: 0x12560, symBinAddr: 0x100016488, symSize: 0x24 }
  - { offsetInCU: 0x3D562, offset: 0x3D562, size: 0x8, addend: 0x0, symName: __ZNSt3__122__compressed_pair_elemIPNS_11__tree_nodeINS_12__value_typeINS_12basic_stringIcNS_11char_traitsIcEENS_9allocatorIcEEEENS_3mapIS8_fNS_4lessIS8_EENS6_INS_4pairIKS8_fEEEEEEEEPvEELi0ELb0EE5__getB8ue170006Ev, symObjAddr: 0x12584, symBinAddr: 0x1000164AC, symSize: 0x14 }
  - { offsetInCU: 0x3D588, offset: 0x3D588, size: 0x8, addend: 0x0, symName: __ZNSt3__110unique_ptrINS_11__tree_nodeINS_12__value_typeINS_12basic_stringIcNS_11char_traitsIcEENS_9allocatorIcEEEENS_3mapIS8_fNS_4lessIS8_EENS6_INS_4pairIKS8_fEEEEEEEEPvEENS_22__tree_node_destructorINS6_ISJ_EEEEED2B8ue170006Ev, symObjAddr: 0x12598, symBinAddr: 0x1000164C0, symSize: 0x30 }
  - { offsetInCU: 0x3D5B2, offset: 0x3D5B2, size: 0x8, addend: 0x0, symName: __ZNSt3__110unique_ptrINS_11__tree_nodeINS_12__value_typeINS_12basic_stringIcNS_11char_traitsIcEENS_9allocatorIcEEEENS_3mapIS8_fNS_4lessIS8_EENS6_INS_4pairIKS8_fEEEEEEEEPvEENS_22__tree_node_destructorINS6_ISJ_EEEEE5resetB8ue170006EPSJ_, symObjAddr: 0x125C8, symBinAddr: 0x1000164F0, symSize: 0x78 }
  - { offsetInCU: 0x3D5F6, offset: 0x3D5F6, size: 0x8, addend: 0x0, symName: __ZNSt3__122__tree_node_destructorINS_9allocatorINS_11__tree_nodeINS_12__value_typeINS_12basic_stringIcNS_11char_traitsIcEENS1_IcEEEENS_3mapIS8_fNS_4lessIS8_EENS1_INS_4pairIKS8_fEEEEEEEEPvEEEEEclB8ue170006EPSJ_, symObjAddr: 0x12640, symBinAddr: 0x100016568, symSize: 0x94 }
  - { offsetInCU: 0x3D62B, offset: 0x3D62B, size: 0x8, addend: 0x0, symName: __ZNSt3__115__tree_iteratorINS_12__value_typeINS_12basic_stringIcNS_11char_traitsIcEENS_9allocatorIcEEEENS_3mapIS7_fNS_4lessIS7_EENS5_INS_4pairIKS7_fEEEEEEEEPNS_11__tree_nodeISG_PvEElEC2B8ue170006ESK_, symObjAddr: 0x126D4, symBinAddr: 0x1000165FC, symSize: 0x20 }
  - { offsetInCU: 0x3D664, offset: 0x3D664, size: 0x8, addend: 0x0, symName: __ZNSt3__14pairINS_15__tree_iteratorINS_12__value_typeINS_12basic_stringIcNS_11char_traitsIcEENS_9allocatorIcEEEENS_3mapIS8_fNS_4lessIS8_EENS6_INS0_IKS8_fEEEEEEEEPNS_11__tree_nodeISG_PvEElEEbEC2B8ue170006ISL_RbLSI_0EEEOT_OT0_, symObjAddr: 0x126F4, symBinAddr: 0x10001661C, symSize: 0x38 }
  - { offsetInCU: 0x3D6C2, offset: 0x3D6C2, size: 0x8, addend: 0x0, symName: __ZNSt3__15tupleIJONS_12basic_stringIcNS_11char_traitsIcEENS_9allocatorIcEEEEEEC1B8ue170006IJS6_ELi0EEEDpOT_, symObjAddr: 0x1272C, symBinAddr: 0x100016654, symSize: 0x34 }
  - { offsetInCU: 0x3D70C, offset: 0x3D70C, size: 0x8, addend: 0x0, symName: __ZNSt3__15tupleIJONS_12basic_stringIcNS_11char_traitsIcEENS_9allocatorIcEEEEEEC2B8ue170006IJS6_ELi0EEEDpOT_, symObjAddr: 0x12760, symBinAddr: 0x100016688, symSize: 0x34 }
  - { offsetInCU: 0x3D756, offset: 0x3D756, size: 0x8, addend: 0x0, symName: __ZNSt3__112__tuple_implINS_15__tuple_indicesIJLm0EEEEJONS_12basic_stringIcNS_11char_traitsIcEENS_9allocatorIcEEEEEEC1B8ue170006IJLm0EEJS9_EJEJEJS8_EEENS1_IJXspT_EEEENS_13__tuple_typesIJDpT0_EEENS1_IJXspT1_EEEENSD_IJDpT2_EEEDpOT3_, symObjAddr: 0x12794, symBinAddr: 0x1000166BC, symSize: 0x34 }
  - { offsetInCU: 0x3D7EB, offset: 0x3D7EB, size: 0x8, addend: 0x0, symName: __ZNSt3__112__tuple_implINS_15__tuple_indicesIJLm0EEEEJONS_12basic_stringIcNS_11char_traitsIcEENS_9allocatorIcEEEEEEC2B8ue170006IJLm0EEJS9_EJEJEJS8_EEENS1_IJXspT_EEEENS_13__tuple_typesIJDpT0_EEENS1_IJXspT1_EEEENSD_IJDpT2_EEEDpOT3_, symObjAddr: 0x127C8, symBinAddr: 0x1000166F0, symSize: 0x34 }
  - { offsetInCU: 0x3D880, offset: 0x3D880, size: 0x8, addend: 0x0, symName: __ZNSt3__112__tuple_leafILm0EONS_12basic_stringIcNS_11char_traitsIcEENS_9allocatorIcEEEELb0EEC2B8ue170006IS6_vEEOT_, symObjAddr: 0x127FC, symBinAddr: 0x100016724, symSize: 0x20 }
  - { offsetInCU: 0x3D8C3, offset: 0x3D8C3, size: 0x8, addend: 0x0, symName: __ZNSt3__16__treeINS_12__value_typeINS_12basic_stringIcNS_11char_traitsIcEENS_9allocatorIcEEEEfEENS_19__map_value_compareIS7_S8_NS_4lessIS7_EELb1EEENS5_IS8_EEEaSERKSE_, symObjAddr: 0x1281C, symBinAddr: 0x100016744, symSize: 0x8C }
  - { offsetInCU: 0x3D8FA, offset: 0x3D8FA, size: 0x8, addend: 0x0, symName: __ZNSt3__16__treeINS_12__value_typeINS_12basic_stringIcNS_11char_traitsIcEENS_9allocatorIcEEEEfEENS_19__map_value_compareIS7_S8_NS_4lessIS7_EELb1EEENS5_IS8_EEE19__copy_assign_allocB8ue170006ERKSE_, symObjAddr: 0x128A8, symBinAddr: 0x1000167D0, symSize: 0x2C }
  - { offsetInCU: 0x3D92F, offset: 0x3D92F, size: 0x8, addend: 0x0, symName: __ZNSt3__16__treeINS_12__value_typeINS_12basic_stringIcNS_11char_traitsIcEENS_9allocatorIcEEEEfEENS_19__map_value_compareIS7_S8_NS_4lessIS7_EELb1EEENS5_IS8_EEE14__assign_multiINS_21__tree_const_iteratorIS8_PNS_11__tree_nodeIS8_PvEElEEEEvT_SM_, symObjAddr: 0x128D4, symBinAddr: 0x1000167FC, symSize: 0x174 }
  - { offsetInCU: 0x3D993, offset: 0x3D993, size: 0x8, addend: 0x0, symName: __ZNSt3__16__treeINS_12__value_typeINS_12basic_stringIcNS_11char_traitsIcEENS_9allocatorIcEEEEfEENS_19__map_value_compareIS7_S8_NS_4lessIS7_EELb1EEENS5_IS8_EEE19__copy_assign_allocB8ue170006ERKSE_NS_17integral_constantIbLb0EEE, symObjAddr: 0x12A48, symBinAddr: 0x100016970, symSize: 0x14 }
  - { offsetInCU: 0x3D9F5, offset: 0x3D9F5, size: 0x8, addend: 0x0, symName: __ZNSt3__16__treeINS_12__value_typeINS_12basic_stringIcNS_11char_traitsIcEENS_9allocatorIcEEEEfEENS_19__map_value_compareIS7_S8_NS_4lessIS7_EELb1EEENS5_IS8_EEE18_DetachedTreeCacheC1B8ue170006EPSE_, symObjAddr: 0x12A5C, symBinAddr: 0x100016984, symSize: 0x34 }
  - { offsetInCU: 0x3DA2E, offset: 0x3DA2E, size: 0x8, addend: 0x0, symName: __ZNKSt3__16__treeINS_12__value_typeINS_12basic_stringIcNS_11char_traitsIcEENS_9allocatorIcEEEEfEENS_19__map_value_compareIS7_S8_NS_4lessIS7_EELb1EEENS5_IS8_EEE18_DetachedTreeCache5__getB8ue170006Ev, symObjAddr: 0x12A90, symBinAddr: 0x1000169B8, symSize: 0x18 }
  - { offsetInCU: 0x3DA54, offset: 0x3DA54, size: 0x8, addend: 0x0, symName: __ZNSt3__112__value_typeINS_12basic_stringIcNS_11char_traitsIcEENS_9allocatorIcEEEEfEaSB8ue170006ERKS7_, symObjAddr: 0x12AA8, symBinAddr: 0x1000169D0, symSize: 0x60 }
  - { offsetInCU: 0x3DA89, offset: 0x3DA89, size: 0x8, addend: 0x0, symName: __ZNSt3__16__treeINS_12__value_typeINS_12basic_stringIcNS_11char_traitsIcEENS_9allocatorIcEEEEfEENS_19__map_value_compareIS7_S8_NS_4lessIS7_EELb1EEENS5_IS8_EEE19__node_insert_multiEPNS_11__tree_nodeIS8_PvEE, symObjAddr: 0x12B08, symBinAddr: 0x100016A30, symSize: 0x70 }
  - { offsetInCU: 0x3DADE, offset: 0x3DADE, size: 0x8, addend: 0x0, symName: __ZNSt3__16__treeINS_12__value_typeINS_12basic_stringIcNS_11char_traitsIcEENS_9allocatorIcEEEEfEENS_19__map_value_compareIS7_S8_NS_4lessIS7_EELb1EEENS5_IS8_EEE18_DetachedTreeCache9__advanceB8ue170006Ev, symObjAddr: 0x12B78, symBinAddr: 0x100016AA0, symSize: 0x58 }
  - { offsetInCU: 0x3DB04, offset: 0x3DB04, size: 0x8, addend: 0x0, symName: __ZNSt3__16__treeINS_12__value_typeINS_12basic_stringIcNS_11char_traitsIcEENS_9allocatorIcEEEEfEENS_19__map_value_compareIS7_S8_NS_4lessIS7_EELb1EEENS5_IS8_EEE18_DetachedTreeCacheD1B8ue170006Ev, symObjAddr: 0x12BD0, symBinAddr: 0x100016AF8, symSize: 0x2C }
  - { offsetInCU: 0x3DB2E, offset: 0x3DB2E, size: 0x8, addend: 0x0, symName: __ZNSt3__16__treeINS_12__value_typeINS_12basic_stringIcNS_11char_traitsIcEENS_9allocatorIcEEEEfEENS_19__map_value_compareIS7_S8_NS_4lessIS7_EELb1EEENS5_IS8_EEE14__insert_multiB8ue170006IRKNS_4pairIKS7_fEEEENS_15__tree_iteratorIS8_PNS_11__tree_nodeIS8_PvEElEEOT_, symObjAddr: 0x12BFC, symBinAddr: 0x100016B24, symSize: 0x34 }
  - { offsetInCU: 0x3DB6C, offset: 0x3DB6C, size: 0x8, addend: 0x0, symName: __ZNSt3__122__tree_key_value_typesINS_12__value_typeINS_12basic_stringIcNS_11char_traitsIcEENS_9allocatorIcEEEEfEEE11__get_valueB8ue170006ERKS8_, symObjAddr: 0x12C30, symBinAddr: 0x100016B58, symSize: 0x24 }
  - { offsetInCU: 0x3DB90, offset: 0x3DB90, size: 0x8, addend: 0x0, symName: __ZNSt3__16__treeINS_12__value_typeINS_12basic_stringIcNS_11char_traitsIcEENS_9allocatorIcEEEEfEENS_19__map_value_compareIS7_S8_NS_4lessIS7_EELb1EEENS5_IS8_EEE18_DetachedTreeCacheC2B8ue170006EPSE_, symObjAddr: 0x12C54, symBinAddr: 0x100016B7C, symSize: 0x4C }
  - { offsetInCU: 0x3DBC9, offset: 0x3DBC9, size: 0x8, addend: 0x0, symName: __ZNSt3__16__treeINS_12__value_typeINS_12basic_stringIcNS_11char_traitsIcEENS_9allocatorIcEEEEfEENS_19__map_value_compareIS7_S8_NS_4lessIS7_EELb1EEENS5_IS8_EEE18_DetachedTreeCache18__detach_from_treeEPSE_, symObjAddr: 0x12CA0, symBinAddr: 0x100016BC8, symSize: 0xA0 }
  - { offsetInCU: 0x3DBFE, offset: 0x3DBFE, size: 0x8, addend: 0x0, symName: __ZNSt3__112__value_typeINS_12basic_stringIcNS_11char_traitsIcEENS_9allocatorIcEEEEfE5__refB8ue170006Ev, symObjAddr: 0x12D40, symBinAddr: 0x100016C68, symSize: 0x44 }
  - { offsetInCU: 0x3DC33, offset: 0x3DC33, size: 0x8, addend: 0x0, symName: __ZNSt3__14pairIRNS_12basic_stringIcNS_11char_traitsIcEENS_9allocatorIcEEEERfEaSB8ue170006IKS6_fLPv0EEERS9_RKNS0_IT_T0_EE, symObjAddr: 0x12D84, symBinAddr: 0x100016CAC, symSize: 0x48 }
  - { offsetInCU: 0x3DC80, offset: 0x3DC80, size: 0x8, addend: 0x0, symName: __ZNSt3__14pairIRNS_12basic_stringIcNS_11char_traitsIcEENS_9allocatorIcEEEERfEC1B8ue170006ILb1ELPv0EEES7_S8_, symObjAddr: 0x12DCC, symBinAddr: 0x100016CF4, symSize: 0x3C }
  - { offsetInCU: 0x3DCD6, offset: 0x3DCD6, size: 0x8, addend: 0x0, symName: __ZNSt3__14pairIRNS_12basic_stringIcNS_11char_traitsIcEENS_9allocatorIcEEEERfEC2B8ue170006ILb1ELPv0EEES7_S8_, symObjAddr: 0x12E08, symBinAddr: 0x100016D30, symSize: 0x2C }
  - { offsetInCU: 0x3DD2C, offset: 0x3DD2C, size: 0x8, addend: 0x0, symName: __ZNSt3__16__treeINS_12__value_typeINS_12basic_stringIcNS_11char_traitsIcEENS_9allocatorIcEEEEfEENS_19__map_value_compareIS7_S8_NS_4lessIS7_EELb1EEENS5_IS8_EEE16__find_leaf_highERPNS_15__tree_end_nodeIPNS_16__tree_node_baseIPvEEEERKS7_, symObjAddr: 0x12E34, symBinAddr: 0x100016D5C, symSize: 0x124 }
  - { offsetInCU: 0x3DD81, offset: 0x3DD81, size: 0x8, addend: 0x0, symName: __ZNSt3__122__tree_key_value_typesINS_12__value_typeINS_12basic_stringIcNS_11char_traitsIcEENS_9allocatorIcEEEEfEEE9__get_keyB8ue170006ERKS8_, symObjAddr: 0x12F58, symBinAddr: 0x100016E80, symSize: 0x24 }
  - { offsetInCU: 0x3DDA5, offset: 0x3DDA5, size: 0x8, addend: 0x0, symName: __ZNSt3__16__treeINS_12__value_typeINS_12basic_stringIcNS_11char_traitsIcEENS_9allocatorIcEEEEfEENS_19__map_value_compareIS7_S8_NS_4lessIS7_EELb1EEENS5_IS8_EEE18_DetachedTreeCache13__detach_nextEPNS_11__tree_nodeIS8_PvEE, symObjAddr: 0x12F7C, symBinAddr: 0x100016EA4, symSize: 0xF0 }
  - { offsetInCU: 0x3DDCB, offset: 0x3DDCB, size: 0x8, addend: 0x0, symName: __ZNSt3__16__treeINS_12__value_typeINS_12basic_stringIcNS_11char_traitsIcEENS_9allocatorIcEEEEfEENS_19__map_value_compareIS7_S8_NS_4lessIS7_EELb1EEENS5_IS8_EEE18_DetachedTreeCacheD2B8ue170006Ev, symObjAddr: 0x130DC, symBinAddr: 0x100017004, symSize: 0x9C }
  - { offsetInCU: 0x3DDF5, offset: 0x3DDF5, size: 0x8, addend: 0x0, symName: __ZNSt3__16__treeINS_12__value_typeINS_12basic_stringIcNS_11char_traitsIcEENS_9allocatorIcEEEEfEENS_19__map_value_compareIS7_S8_NS_4lessIS7_EELb1EEENS5_IS8_EEE15__emplace_multiIJRKNS_4pairIKS7_fEEEEENS_15__tree_iteratorIS8_PNS_11__tree_nodeIS8_PvEElEEDpOT_, symObjAddr: 0x13178, symBinAddr: 0x1000170A0, symSize: 0xD8 }
  - { offsetInCU: 0x3DE65, offset: 0x3DE65, size: 0x8, addend: 0x0, symName: __ZNKSt3__16vectorINS0_IP4CellNS_9allocatorIS2_EEEENS3_IS5_EEE11__make_iterB8ue170006EPKS5_, symObjAddr: 0x13250, symBinAddr: 0x100017178, symSize: 0x30 }
  - { offsetInCU: 0x3DE9A, offset: 0x3DE9A, size: 0x8, addend: 0x0, symName: __ZNSt3__111__wrap_iterIPKNS_6vectorIP4CellNS_9allocatorIS3_EEEEEC1B8ue170006ES8_, symObjAddr: 0x13280, symBinAddr: 0x1000171A8, symSize: 0x34 }
  - { offsetInCU: 0x3DED2, offset: 0x3DED2, size: 0x8, addend: 0x0, symName: __ZNSt3__111__wrap_iterIPKNS_6vectorIP4CellNS_9allocatorIS3_EEEEEC2B8ue170006ES8_, symObjAddr: 0x132B4, symBinAddr: 0x1000171DC, symSize: 0x20 }
  - { offsetInCU: 0x3DF0A, offset: 0x3DF0A, size: 0x8, addend: 0x0, symName: __ZNKSt3__16vectorIP4CellNS_9allocatorIS2_EEE11__make_iterB8ue170006EPKS2_, symObjAddr: 0x132D4, symBinAddr: 0x1000171FC, symSize: 0x30 }
  - { offsetInCU: 0x3DF3F, offset: 0x3DF3F, size: 0x8, addend: 0x0, symName: __ZNSt3__111__wrap_iterIPKP4CellEC1B8ue170006ES4_, symObjAddr: 0x13304, symBinAddr: 0x10001722C, symSize: 0x34 }
  - { offsetInCU: 0x3DF77, offset: 0x3DF77, size: 0x8, addend: 0x0, symName: __ZNSt3__111__wrap_iterIPKP4CellEC2B8ue170006ES4_, symObjAddr: 0x13338, symBinAddr: 0x100017260, symSize: 0x20 }
  - { offsetInCU: 0x3DFAF, offset: 0x3DFAF, size: 0x8, addend: 0x0, symName: __ZNSt3__13mapINS_12basic_stringIcNS_11char_traitsIcEENS_9allocatorIcEEEEiNS_4lessIS6_EENS4_INS_4pairIKS6_iEEEEEC2B8ue170006Ev, symObjAddr: 0x13358, symBinAddr: 0x100017280, symSize: 0x40 }
  - { offsetInCU: 0x3DFD9, offset: 0x3DFD9, size: 0x8, addend: 0x0, symName: __ZNSt3__119__map_value_compareINS_12basic_stringIcNS_11char_traitsIcEENS_9allocatorIcEEEENS_12__value_typeIS6_iEENS_4lessIS6_EELb1EEC1B8ue170006ESA_, symObjAddr: 0x13398, symBinAddr: 0x1000172C0, symSize: 0x2C }
  - { offsetInCU: 0x3E012, offset: 0x3E012, size: 0x8, addend: 0x0, symName: __ZNSt3__16__treeINS_12__value_typeINS_12basic_stringIcNS_11char_traitsIcEENS_9allocatorIcEEEEiEENS_19__map_value_compareIS7_S8_NS_4lessIS7_EELb1EEENS5_IS8_EEEC1ERKSC_, symObjAddr: 0x133C4, symBinAddr: 0x1000172EC, symSize: 0x34 }
  - { offsetInCU: 0x3E04D, offset: 0x3E04D, size: 0x8, addend: 0x0, symName: __ZNSt3__119__map_value_compareINS_12basic_stringIcNS_11char_traitsIcEENS_9allocatorIcEEEENS_12__value_typeIS6_iEENS_4lessIS6_EELb1EEC2B8ue170006ESA_, symObjAddr: 0x133F8, symBinAddr: 0x100017320, symSize: 0x14 }
  - { offsetInCU: 0x3E086, offset: 0x3E086, size: 0x8, addend: 0x0, symName: __ZNSt3__16__treeINS_12__value_typeINS_12basic_stringIcNS_11char_traitsIcEENS_9allocatorIcEEEEiEENS_19__map_value_compareIS7_S8_NS_4lessIS7_EELb1EEENS5_IS8_EEEC2ERKSC_, symObjAddr: 0x1340C, symBinAddr: 0x100017334, symSize: 0x7C }
  - { offsetInCU: 0x3E0C1, offset: 0x3E0C1, size: 0x8, addend: 0x0, symName: __ZNSt3__117__compressed_pairINS_15__tree_end_nodeIPNS_16__tree_node_baseIPvEEEENS_9allocatorINS_11__tree_nodeINS_12__value_typeINS_12basic_stringIcNS_11char_traitsIcEENS7_IcEEEEiEES3_EEEEEC1B8ue170006ILb1EvEEv, symObjAddr: 0x13488, symBinAddr: 0x1000173B0, symSize: 0x2C }
  - { offsetInCU: 0x3E0F6, offset: 0x3E0F6, size: 0x8, addend: 0x0, symName: __ZNSt3__117__compressed_pairImNS_19__map_value_compareINS_12basic_stringIcNS_11char_traitsIcEENS_9allocatorIcEEEENS_12__value_typeIS7_iEENS_4lessIS7_EELb1EEEEC1B8ue170006IiRKSC_EEOT_OT0_, symObjAddr: 0x134B4, symBinAddr: 0x1000173DC, symSize: 0x3C }
  - { offsetInCU: 0x3E14E, offset: 0x3E14E, size: 0x8, addend: 0x0, symName: __ZNSt3__16__treeINS_12__value_typeINS_12basic_stringIcNS_11char_traitsIcEENS_9allocatorIcEEEEiEENS_19__map_value_compareIS7_S8_NS_4lessIS7_EELb1EEENS5_IS8_EEE10__end_nodeB8ue170006Ev, symObjAddr: 0x134F0, symBinAddr: 0x100017418, symSize: 0x2C }
  - { offsetInCU: 0x3E174, offset: 0x3E174, size: 0x8, addend: 0x0, symName: __ZNSt3__16__treeINS_12__value_typeINS_12basic_stringIcNS_11char_traitsIcEENS_9allocatorIcEEEEiEENS_19__map_value_compareIS7_S8_NS_4lessIS7_EELb1EEENS5_IS8_EEE12__begin_nodeB8ue170006Ev, symObjAddr: 0x1351C, symBinAddr: 0x100017444, symSize: 0x14 }
  - { offsetInCU: 0x3E19A, offset: 0x3E19A, size: 0x8, addend: 0x0, symName: __ZNSt3__117__compressed_pairINS_15__tree_end_nodeIPNS_16__tree_node_baseIPvEEEENS_9allocatorINS_11__tree_nodeINS_12__value_typeINS_12basic_stringIcNS_11char_traitsIcEENS7_IcEEEEiEES3_EEEEEC2B8ue170006ILb1EvEEv, symObjAddr: 0x13530, symBinAddr: 0x100017458, symSize: 0x34 }
  - { offsetInCU: 0x3E1CF, offset: 0x3E1CF, size: 0x8, addend: 0x0, symName: __ZNSt3__122__compressed_pair_elemINS_9allocatorINS_11__tree_nodeINS_12__value_typeINS_12basic_stringIcNS_11char_traitsIcEENS1_IcEEEEiEEPvEEEELi1ELb1EEC2B8ue170006ENS_16__value_init_tagE, symObjAddr: 0x13564, symBinAddr: 0x10001748C, symSize: 0x2C }
  - { offsetInCU: 0x3E203, offset: 0x3E203, size: 0x8, addend: 0x0, symName: __ZNSt3__19allocatorINS_11__tree_nodeINS_12__value_typeINS_12basic_stringIcNS_11char_traitsIcEENS0_IcEEEEiEEPvEEEC2B8ue170006Ev, symObjAddr: 0x13590, symBinAddr: 0x1000174B8, symSize: 0x2C }
  - { offsetInCU: 0x3E22D, offset: 0x3E22D, size: 0x8, addend: 0x0, symName: __ZNSt3__116__non_trivial_ifILb1ENS_9allocatorINS_11__tree_nodeINS_12__value_typeINS_12basic_stringIcNS_11char_traitsIcEENS1_IcEEEEiEEPvEEEEEC2B8ue170006Ev, symObjAddr: 0x135BC, symBinAddr: 0x1000174E4, symSize: 0x14 }
  - { offsetInCU: 0x3E257, offset: 0x3E257, size: 0x8, addend: 0x0, symName: __ZNSt3__117__compressed_pairImNS_19__map_value_compareINS_12basic_stringIcNS_11char_traitsIcEENS_9allocatorIcEEEENS_12__value_typeIS7_iEENS_4lessIS7_EELb1EEEEC2B8ue170006IiRKSC_EEOT_OT0_, symObjAddr: 0x135D0, symBinAddr: 0x1000174F8, symSize: 0x44 }
  - { offsetInCU: 0x3E2AF, offset: 0x3E2AF, size: 0x8, addend: 0x0, symName: __ZNSt3__122__compressed_pair_elemINS_19__map_value_compareINS_12basic_stringIcNS_11char_traitsIcEENS_9allocatorIcEEEENS_12__value_typeIS7_iEENS_4lessIS7_EELb1EEELi1ELb1EEC2B8ue170006IRKSC_vEEOT_, symObjAddr: 0x13614, symBinAddr: 0x10001753C, symSize: 0x18 }
  - { offsetInCU: 0x3E2F1, offset: 0x3E2F1, size: 0x8, addend: 0x0, symName: __ZNSt3__117__compressed_pairINS_15__tree_end_nodeIPNS_16__tree_node_baseIPvEEEENS_9allocatorINS_11__tree_nodeINS_12__value_typeINS_12basic_stringIcNS_11char_traitsIcEENS7_IcEEEEiEES3_EEEEE5firstB8ue170006Ev, symObjAddr: 0x1362C, symBinAddr: 0x100017554, symSize: 0x24 }
  - { offsetInCU: 0x3E317, offset: 0x3E317, size: 0x8, addend: 0x0, symName: __ZNSt3__13mapINS_12basic_stringIcNS_11char_traitsIcEENS_9allocatorIcEEEEiNS_4lessIS6_EENS4_INS_4pairIKS6_iEEEEED2B8ue170006Ev, symObjAddr: 0x13650, symBinAddr: 0x100017578, symSize: 0x2C }
  - { offsetInCU: 0x3E341, offset: 0x3E341, size: 0x8, addend: 0x0, symName: __ZNSt3__16__treeINS_12__value_typeINS_12basic_stringIcNS_11char_traitsIcEENS_9allocatorIcEEEEiEENS_19__map_value_compareIS7_S8_NS_4lessIS7_EELb1EEENS5_IS8_EEED1Ev, symObjAddr: 0x1367C, symBinAddr: 0x1000175A4, symSize: 0x2C }
  - { offsetInCU: 0x3E36D, offset: 0x3E36D, size: 0x8, addend: 0x0, symName: __ZNSt3__16__treeINS_12__value_typeINS_12basic_stringIcNS_11char_traitsIcEENS_9allocatorIcEEEEiEENS_19__map_value_compareIS7_S8_NS_4lessIS7_EELb1EEENS5_IS8_EEED2Ev, symObjAddr: 0x136A8, symBinAddr: 0x1000175D0, symSize: 0x38 }
  - { offsetInCU: 0x3E399, offset: 0x3E399, size: 0x8, addend: 0x0, symName: __ZNSt3__16__treeINS_12__value_typeINS_12basic_stringIcNS_11char_traitsIcEENS_9allocatorIcEEEEiEENS_19__map_value_compareIS7_S8_NS_4lessIS7_EELb1EEENS5_IS8_EEE7destroyEPNS_11__tree_nodeIS8_PvEE, symObjAddr: 0x136E0, symBinAddr: 0x100017608, symSize: 0xAC }
  - { offsetInCU: 0x3E3E5, offset: 0x3E3E5, size: 0x8, addend: 0x0, symName: __ZNKSt3__16__treeINS_12__value_typeINS_12basic_stringIcNS_11char_traitsIcEENS_9allocatorIcEEEEiEENS_19__map_value_compareIS7_S8_NS_4lessIS7_EELb1EEENS5_IS8_EEE6__rootB8ue170006Ev, symObjAddr: 0x1378C, symBinAddr: 0x1000176B4, symSize: 0x28 }
  - { offsetInCU: 0x3E40B, offset: 0x3E40B, size: 0x8, addend: 0x0, symName: __ZNSt3__16__treeINS_12__value_typeINS_12basic_stringIcNS_11char_traitsIcEENS_9allocatorIcEEEEiEENS_19__map_value_compareIS7_S8_NS_4lessIS7_EELb1EEENS5_IS8_EEE12__node_allocB8ue170006Ev, symObjAddr: 0x137B4, symBinAddr: 0x1000176DC, symSize: 0x28 }
  - { offsetInCU: 0x3E431, offset: 0x3E431, size: 0x8, addend: 0x0, symName: __ZNSt3__116allocator_traitsINS_9allocatorINS_11__tree_nodeINS_12__value_typeINS_12basic_stringIcNS_11char_traitsIcEENS1_IcEEEEiEEPvEEEEE7destroyB8ue170006INS_4pairIKS8_iEEvvEEvRSC_PT_, symObjAddr: 0x137DC, symBinAddr: 0x100017704, symSize: 0x28 }
  - { offsetInCU: 0x3E46C, offset: 0x3E46C, size: 0x8, addend: 0x0, symName: __ZNSt3__122__tree_key_value_typesINS_12__value_typeINS_12basic_stringIcNS_11char_traitsIcEENS_9allocatorIcEEEEiEEE9__get_ptrB8ue170006ERS8_, symObjAddr: 0x13804, symBinAddr: 0x10001772C, symSize: 0x24 }
  - { offsetInCU: 0x3E490, offset: 0x3E490, size: 0x8, addend: 0x0, symName: __ZNSt3__116allocator_traitsINS_9allocatorINS_11__tree_nodeINS_12__value_typeINS_12basic_stringIcNS_11char_traitsIcEENS1_IcEEEEiEEPvEEEEE10deallocateB8ue170006ERSC_PSB_m, symObjAddr: 0x13828, symBinAddr: 0x100017750, symSize: 0x34 }
  - { offsetInCU: 0x3E4D2, offset: 0x3E4D2, size: 0x8, addend: 0x0, symName: __ZNSt3__117__compressed_pairINS_15__tree_end_nodeIPNS_16__tree_node_baseIPvEEEENS_9allocatorINS_11__tree_nodeINS_12__value_typeINS_12basic_stringIcNS_11char_traitsIcEENS7_IcEEEEiEES3_EEEEE6secondB8ue170006Ev, symObjAddr: 0x1385C, symBinAddr: 0x100017784, symSize: 0x24 }
  - { offsetInCU: 0x3E4F8, offset: 0x3E4F8, size: 0x8, addend: 0x0, symName: __ZNSt3__122__compressed_pair_elemINS_9allocatorINS_11__tree_nodeINS_12__value_typeINS_12basic_stringIcNS_11char_traitsIcEENS1_IcEEEEiEEPvEEEELi1ELb1EE5__getB8ue170006Ev, symObjAddr: 0x13880, symBinAddr: 0x1000177A8, symSize: 0x14 }
  - { offsetInCU: 0x3E51E, offset: 0x3E51E, size: 0x8, addend: 0x0, symName: __ZNSt3__14pairIKNS_12basic_stringIcNS_11char_traitsIcEENS_9allocatorIcEEEEiED1Ev, symObjAddr: 0x13894, symBinAddr: 0x1000177BC, symSize: 0x2C }
  - { offsetInCU: 0x3E54A, offset: 0x3E54A, size: 0x8, addend: 0x0, symName: __ZNSt3__14pairIKNS_12basic_stringIcNS_11char_traitsIcEENS_9allocatorIcEEEEiED2Ev, symObjAddr: 0x138C0, symBinAddr: 0x1000177E8, symSize: 0x2C }
  - { offsetInCU: 0x3E576, offset: 0x3E576, size: 0x8, addend: 0x0, symName: __ZNSt3__112__value_typeINS_12basic_stringIcNS_11char_traitsIcEENS_9allocatorIcEEEEiE11__get_valueB8ue170006Ev, symObjAddr: 0x138EC, symBinAddr: 0x100017814, symSize: 0x14 }
  - { offsetInCU: 0x3E59C, offset: 0x3E59C, size: 0x8, addend: 0x0, symName: __ZNSt3__19allocatorINS_11__tree_nodeINS_12__value_typeINS_12basic_stringIcNS_11char_traitsIcEENS0_IcEEEEiEEPvEEE10deallocateB8ue170006EPSA_m, symObjAddr: 0x13900, symBinAddr: 0x100017828, symSize: 0x40 }
  - { offsetInCU: 0x3E5DE, offset: 0x3E5DE, size: 0x8, addend: 0x0, symName: __ZNKSt3__16__treeINS_12__value_typeINS_12basic_stringIcNS_11char_traitsIcEENS_9allocatorIcEEEEiEENS_19__map_value_compareIS7_S8_NS_4lessIS7_EELb1EEENS5_IS8_EEE10__end_nodeB8ue170006Ev, symObjAddr: 0x13940, symBinAddr: 0x100017868, symSize: 0x2C }
  - { offsetInCU: 0x3E604, offset: 0x3E604, size: 0x8, addend: 0x0, symName: __ZNKSt3__117__compressed_pairINS_15__tree_end_nodeIPNS_16__tree_node_baseIPvEEEENS_9allocatorINS_11__tree_nodeINS_12__value_typeINS_12basic_stringIcNS_11char_traitsIcEENS7_IcEEEEiEES3_EEEEE5firstB8ue170006Ev, symObjAddr: 0x1396C, symBinAddr: 0x100017894, symSize: 0x24 }
  - { offsetInCU: 0x3E62A, offset: 0x3E62A, size: 0x8, addend: 0x0, symName: __ZNKSt3__16vectorI4MRNANS_9allocatorIS1_EEE11__make_iterB8ue170006EPKS1_, symObjAddr: 0x13990, symBinAddr: 0x1000178B8, symSize: 0x30 }
  - { offsetInCU: 0x3E65F, offset: 0x3E65F, size: 0x8, addend: 0x0, symName: __ZNSt3__111__wrap_iterIPK4MRNAEC1B8ue170006ES3_, symObjAddr: 0x139C0, symBinAddr: 0x1000178E8, symSize: 0x34 }
  - { offsetInCU: 0x3E697, offset: 0x3E697, size: 0x8, addend: 0x0, symName: __ZNSt3__111__wrap_iterIPK4MRNAEC2B8ue170006ES3_, symObjAddr: 0x139F4, symBinAddr: 0x10001791C, symSize: 0x20 }
  - { offsetInCU: 0x3E6CF, offset: 0x3E6CF, size: 0x8, addend: 0x0, symName: __ZNSt3__16__treeINS_12__value_typeINS_12basic_stringIcNS_11char_traitsIcEENS_9allocatorIcEEEEiEENS_19__map_value_compareIS7_S8_NS_4lessIS7_EELb1EEENS5_IS8_EEE25__emplace_unique_key_argsIS7_JRKNS_21piecewise_construct_tENS_5tupleIJOS7_EEENSJ_IJEEEEEENS_4pairINS_15__tree_iteratorIS8_PNS_11__tree_nodeIS8_PvEElEEbEERKT_DpOT0_, symObjAddr: 0x13A14, symBinAddr: 0x10001793C, symSize: 0x100 }
  - { offsetInCU: 0x3E7A5, offset: 0x3E7A5, size: 0x8, addend: 0x0, symName: __ZNKSt3__115__tree_iteratorINS_12__value_typeINS_12basic_stringIcNS_11char_traitsIcEENS_9allocatorIcEEEEiEEPNS_11__tree_nodeIS8_PvEElEptB8ue170006Ev, symObjAddr: 0x13B14, symBinAddr: 0x100017A3C, symSize: 0x2C }
  - { offsetInCU: 0x3E7CB, offset: 0x3E7CB, size: 0x8, addend: 0x0, symName: __ZNSt3__16__treeINS_12__value_typeINS_12basic_stringIcNS_11char_traitsIcEENS_9allocatorIcEEEEiEENS_19__map_value_compareIS7_S8_NS_4lessIS7_EELb1EEENS5_IS8_EEE12__find_equalIS7_EERPNS_16__tree_node_baseIPvEERPNS_15__tree_end_nodeISJ_EERKT_, symObjAddr: 0x13B40, symBinAddr: 0x100017A68, symSize: 0x184 }
  - { offsetInCU: 0x3E838, offset: 0x3E838, size: 0x8, addend: 0x0, symName: __ZNSt3__16__treeINS_12__value_typeINS_12basic_stringIcNS_11char_traitsIcEENS_9allocatorIcEEEEiEENS_19__map_value_compareIS7_S8_NS_4lessIS7_EELb1EEENS5_IS8_EEE16__construct_nodeIJRKNS_21piecewise_construct_tENS_5tupleIJOS7_EEENSJ_IJEEEEEENS_10unique_ptrINS_11__tree_nodeIS8_PvEENS_22__tree_node_destructorINS5_ISQ_EEEEEEDpOT_, symObjAddr: 0x13CC4, symBinAddr: 0x100017BEC, symSize: 0x120 }
  - { offsetInCU: 0x3E8C1, offset: 0x3E8C1, size: 0x8, addend: 0x0, symName: __ZNSt3__16__treeINS_12__value_typeINS_12basic_stringIcNS_11char_traitsIcEENS_9allocatorIcEEEEiEENS_19__map_value_compareIS7_S8_NS_4lessIS7_EELb1EEENS5_IS8_EEE16__insert_node_atEPNS_15__tree_end_nodeIPNS_16__tree_node_baseIPvEEEERSJ_SJ_, symObjAddr: 0x13DE4, symBinAddr: 0x100017D0C, symSize: 0xCC }
  - { offsetInCU: 0x3E916, offset: 0x3E916, size: 0x8, addend: 0x0, symName: __ZNKSt3__110unique_ptrINS_11__tree_nodeINS_12__value_typeINS_12basic_stringIcNS_11char_traitsIcEENS_9allocatorIcEEEEiEEPvEENS_22__tree_node_destructorINS6_ISB_EEEEE3getB8ue170006Ev, symObjAddr: 0x13EB0, symBinAddr: 0x100017DD8, symSize: 0x28 }
  - { offsetInCU: 0x3E93C, offset: 0x3E93C, size: 0x8, addend: 0x0, symName: __ZNSt3__110unique_ptrINS_11__tree_nodeINS_12__value_typeINS_12basic_stringIcNS_11char_traitsIcEENS_9allocatorIcEEEEiEEPvEENS_22__tree_node_destructorINS6_ISB_EEEEE7releaseB8ue170006Ev, symObjAddr: 0x13ED8, symBinAddr: 0x100017E00, symSize: 0x44 }
  - { offsetInCU: 0x3E971, offset: 0x3E971, size: 0x8, addend: 0x0, symName: __ZNSt3__110unique_ptrINS_11__tree_nodeINS_12__value_typeINS_12basic_stringIcNS_11char_traitsIcEENS_9allocatorIcEEEEiEEPvEENS_22__tree_node_destructorINS6_ISB_EEEEED1B8ue170006Ev, symObjAddr: 0x13F1C, symBinAddr: 0x100017E44, symSize: 0x2C }
  - { offsetInCU: 0x3E99B, offset: 0x3E99B, size: 0x8, addend: 0x0, symName: __ZNSt3__115__tree_iteratorINS_12__value_typeINS_12basic_stringIcNS_11char_traitsIcEENS_9allocatorIcEEEEiEEPNS_11__tree_nodeIS8_PvEElEC1B8ue170006ESC_, symObjAddr: 0x13F48, symBinAddr: 0x100017E70, symSize: 0x34 }
  - { offsetInCU: 0x3E9DA, offset: 0x3E9DA, size: 0x8, addend: 0x0, symName: __ZNSt3__14pairINS_15__tree_iteratorINS_12__value_typeINS_12basic_stringIcNS_11char_traitsIcEENS_9allocatorIcEEEEiEEPNS_11__tree_nodeIS9_PvEElEEbEC1B8ue170006ISE_RbLSB_0EEEOT_OT0_, symObjAddr: 0x13F7C, symBinAddr: 0x100017EA4, symSize: 0x3C }
  - { offsetInCU: 0x3EA38, offset: 0x3EA38, size: 0x8, addend: 0x0, symName: __ZNKSt3__16__treeINS_12__value_typeINS_12basic_stringIcNS_11char_traitsIcEENS_9allocatorIcEEEEiEENS_19__map_value_compareIS7_S8_NS_4lessIS7_EELb1EEENS5_IS8_EEE10__root_ptrB8ue170006Ev, symObjAddr: 0x13FB8, symBinAddr: 0x100017EE0, symSize: 0x24 }
  - { offsetInCU: 0x3EA5E, offset: 0x3EA5E, size: 0x8, addend: 0x0, symName: __ZNSt3__16__treeINS_12__value_typeINS_12basic_stringIcNS_11char_traitsIcEENS_9allocatorIcEEEEiEENS_19__map_value_compareIS7_S8_NS_4lessIS7_EELb1EEENS5_IS8_EEE10value_compB8ue170006Ev, symObjAddr: 0x13FDC, symBinAddr: 0x100017F04, symSize: 0x28 }
  - { offsetInCU: 0x3EA84, offset: 0x3EA84, size: 0x8, addend: 0x0, symName: __ZNKSt3__119__map_value_compareINS_12basic_stringIcNS_11char_traitsIcEENS_9allocatorIcEEEENS_12__value_typeIS6_iEENS_4lessIS6_EELb1EEclB8ue170006ERKS6_RKS8_, symObjAddr: 0x14004, symBinAddr: 0x100017F2C, symSize: 0x50 }
  - { offsetInCU: 0x3EAC8, offset: 0x3EAC8, size: 0x8, addend: 0x0, symName: __ZNKSt3__119__map_value_compareINS_12basic_stringIcNS_11char_traitsIcEENS_9allocatorIcEEEENS_12__value_typeIS6_iEENS_4lessIS6_EELb1EEclB8ue170006ERKS8_RKS6_, symObjAddr: 0x14054, symBinAddr: 0x100017F7C, symSize: 0x48 }
  - { offsetInCU: 0x3EB0C, offset: 0x3EB0C, size: 0x8, addend: 0x0, symName: __ZNSt3__117__compressed_pairImNS_19__map_value_compareINS_12basic_stringIcNS_11char_traitsIcEENS_9allocatorIcEEEENS_12__value_typeIS7_iEENS_4lessIS7_EELb1EEEE6secondB8ue170006Ev, symObjAddr: 0x1409C, symBinAddr: 0x100017FC4, symSize: 0x24 }
  - { offsetInCU: 0x3EB32, offset: 0x3EB32, size: 0x8, addend: 0x0, symName: __ZNSt3__122__compressed_pair_elemINS_19__map_value_compareINS_12basic_stringIcNS_11char_traitsIcEENS_9allocatorIcEEEENS_12__value_typeIS7_iEENS_4lessIS7_EELb1EEELi1ELb1EE5__getB8ue170006Ev, symObjAddr: 0x140C0, symBinAddr: 0x100017FE8, symSize: 0x14 }
  - { offsetInCU: 0x3EB58, offset: 0x3EB58, size: 0x8, addend: 0x0, symName: __ZNKSt3__112__value_typeINS_12basic_stringIcNS_11char_traitsIcEENS_9allocatorIcEEEEiE11__get_valueB8ue170006Ev, symObjAddr: 0x140D4, symBinAddr: 0x100017FFC, symSize: 0x14 }
  - { offsetInCU: 0x3EB7E, offset: 0x3EB7E, size: 0x8, addend: 0x0, symName: __ZNSt3__116allocator_traitsINS_9allocatorINS_11__tree_nodeINS_12__value_typeINS_12basic_stringIcNS_11char_traitsIcEENS1_IcEEEEiEEPvEEEEE8allocateB8ue170006ERSC_m, symObjAddr: 0x140E8, symBinAddr: 0x100018010, symSize: 0x2C }
  - { offsetInCU: 0x3EBB1, offset: 0x3EBB1, size: 0x8, addend: 0x0, symName: __ZNSt3__122__tree_node_destructorINS_9allocatorINS_11__tree_nodeINS_12__value_typeINS_12basic_stringIcNS_11char_traitsIcEENS1_IcEEEEiEEPvEEEEEC1B8ue170006ERSC_b, symObjAddr: 0x14114, symBinAddr: 0x10001803C, symSize: 0x48 }
  - { offsetInCU: 0x3EBFF, offset: 0x3EBFF, size: 0x8, addend: 0x0, symName: __ZNSt3__110unique_ptrINS_11__tree_nodeINS_12__value_typeINS_12basic_stringIcNS_11char_traitsIcEENS_9allocatorIcEEEEiEEPvEENS_22__tree_node_destructorINS6_ISB_EEEEEC1B8ue170006ILb1EvEEPSB_NS_16__dependent_typeINS_27__unique_ptr_deleter_sfinaeISE_EEXT_EE20__good_rval_ref_typeE, symObjAddr: 0x1415C, symBinAddr: 0x100018084, symSize: 0x3C }
  - { offsetInCU: 0x3EC50, offset: 0x3EC50, size: 0x8, addend: 0x0, symName: __ZNSt3__116allocator_traitsINS_9allocatorINS_11__tree_nodeINS_12__value_typeINS_12basic_stringIcNS_11char_traitsIcEENS1_IcEEEEiEEPvEEEEE9constructB8ue170006INS_4pairIKS8_iEEJRKNS_21piecewise_construct_tENS_5tupleIJOS8_EEENSL_IJEEEEvEEvRSC_PT_DpOT0_, symObjAddr: 0x14198, symBinAddr: 0x1000180C0, symSize: 0x44 }
  - { offsetInCU: 0x3ECCF, offset: 0x3ECCF, size: 0x8, addend: 0x0, symName: __ZNKSt3__110unique_ptrINS_11__tree_nodeINS_12__value_typeINS_12basic_stringIcNS_11char_traitsIcEENS_9allocatorIcEEEEiEEPvEENS_22__tree_node_destructorINS6_ISB_EEEEEptB8ue170006Ev, symObjAddr: 0x141DC, symBinAddr: 0x100018104, symSize: 0x28 }
  - { offsetInCU: 0x3ECF5, offset: 0x3ECF5, size: 0x8, addend: 0x0, symName: __ZNSt3__110unique_ptrINS_11__tree_nodeINS_12__value_typeINS_12basic_stringIcNS_11char_traitsIcEENS_9allocatorIcEEEEiEEPvEENS_22__tree_node_destructorINS6_ISB_EEEEE11get_deleterB8ue170006Ev, symObjAddr: 0x14204, symBinAddr: 0x10001812C, symSize: 0x24 }
  - { offsetInCU: 0x3ED1B, offset: 0x3ED1B, size: 0x8, addend: 0x0, symName: __ZNSt3__19allocatorINS_11__tree_nodeINS_12__value_typeINS_12basic_stringIcNS_11char_traitsIcEENS0_IcEEEEiEEPvEEE8allocateB8ue170006Em, symObjAddr: 0x14228, symBinAddr: 0x100018150, symSize: 0x58 }
  - { offsetInCU: 0x3ED5B, offset: 0x3ED5B, size: 0x8, addend: 0x0, symName: __ZNSt3__116allocator_traitsINS_9allocatorINS_11__tree_nodeINS_12__value_typeINS_12basic_stringIcNS_11char_traitsIcEENS1_IcEEEEiEEPvEEEEE8max_sizeB8ue170006ISC_vEEmRKSC_, symObjAddr: 0x14280, symBinAddr: 0x1000181A8, symSize: 0x24 }
  - { offsetInCU: 0x3ED89, offset: 0x3ED89, size: 0x8, addend: 0x0, symName: __ZNKSt3__19allocatorINS_11__tree_nodeINS_12__value_typeINS_12basic_stringIcNS_11char_traitsIcEENS0_IcEEEEiEEPvEEE8max_sizeB8ue170006Ev, symObjAddr: 0x142A4, symBinAddr: 0x1000181CC, symSize: 0x14 }
  - { offsetInCU: 0x3EDAF, offset: 0x3EDAF, size: 0x8, addend: 0x0, symName: __ZNSt3__122__tree_node_destructorINS_9allocatorINS_11__tree_nodeINS_12__value_typeINS_12basic_stringIcNS_11char_traitsIcEENS1_IcEEEEiEEPvEEEEEC2B8ue170006ERSC_b, symObjAddr: 0x142B8, symBinAddr: 0x1000181E0, symSize: 0x38 }
  - { offsetInCU: 0x3EDF7, offset: 0x3EDF7, size: 0x8, addend: 0x0, symName: __ZNSt3__110unique_ptrINS_11__tree_nodeINS_12__value_typeINS_12basic_stringIcNS_11char_traitsIcEENS_9allocatorIcEEEEiEEPvEENS_22__tree_node_destructorINS6_ISB_EEEEEC2B8ue170006ILb1EvEEPSB_NS_16__dependent_typeINS_27__unique_ptr_deleter_sfinaeISE_EEXT_EE20__good_rval_ref_typeE, symObjAddr: 0x142F0, symBinAddr: 0x100018218, symSize: 0x48 }
  - { offsetInCU: 0x3EE48, offset: 0x3EE48, size: 0x8, addend: 0x0, symName: __ZNSt3__117__compressed_pairIPNS_11__tree_nodeINS_12__value_typeINS_12basic_stringIcNS_11char_traitsIcEENS_9allocatorIcEEEEiEEPvEENS_22__tree_node_destructorINS6_ISB_EEEEEC1B8ue170006IRSC_SF_EEOT_OT0_, symObjAddr: 0x14338, symBinAddr: 0x100018260, symSize: 0x3C }
  - { offsetInCU: 0x3EEA0, offset: 0x3EEA0, size: 0x8, addend: 0x0, symName: __ZNSt3__117__compressed_pairIPNS_11__tree_nodeINS_12__value_typeINS_12basic_stringIcNS_11char_traitsIcEENS_9allocatorIcEEEEiEEPvEENS_22__tree_node_destructorINS6_ISB_EEEEEC2B8ue170006IRSC_SF_EEOT_OT0_, symObjAddr: 0x14374, symBinAddr: 0x10001829C, symSize: 0x48 }
  - { offsetInCU: 0x3EEF8, offset: 0x3EEF8, size: 0x8, addend: 0x0, symName: __ZNSt3__122__compressed_pair_elemIPNS_11__tree_nodeINS_12__value_typeINS_12basic_stringIcNS_11char_traitsIcEENS_9allocatorIcEEEEiEEPvEELi0ELb0EEC2B8ue170006IRSC_vEEOT_, symObjAddr: 0x143BC, symBinAddr: 0x1000182E4, symSize: 0x24 }
  - { offsetInCU: 0x3EF3A, offset: 0x3EF3A, size: 0x8, addend: 0x0, symName: __ZNSt3__122__compressed_pair_elemINS_22__tree_node_destructorINS_9allocatorINS_11__tree_nodeINS_12__value_typeINS_12basic_stringIcNS_11char_traitsIcEENS2_IcEEEEiEEPvEEEEEELi1ELb0EEC2B8ue170006ISE_vEEOT_, symObjAddr: 0x143E0, symBinAddr: 0x100018308, symSize: 0x24 }
  - { offsetInCU: 0x3EF7C, offset: 0x3EF7C, size: 0x8, addend: 0x0, symName: __ZNSt3__19allocatorINS_11__tree_nodeINS_12__value_typeINS_12basic_stringIcNS_11char_traitsIcEENS0_IcEEEEiEEPvEEE9constructB8ue170006INS_4pairIKS7_iEEJRKNS_21piecewise_construct_tENS_5tupleIJOS7_EEENSJ_IJEEEEEEvPT_DpOT0_, symObjAddr: 0x14404, symBinAddr: 0x10001832C, symSize: 0x44 }
  - { offsetInCU: 0x3EFF8, offset: 0x3EFF8, size: 0x8, addend: 0x0, symName: __ZNSt3__14pairIKNS_12basic_stringIcNS_11char_traitsIcEENS_9allocatorIcEEEEiEC1B8ue170006IJOS6_EJEEENS_21piecewise_construct_tENS_5tupleIJDpT_EEENSC_IJDpT0_EEE, symObjAddr: 0x14448, symBinAddr: 0x100018370, symSize: 0x44 }
  - { offsetInCU: 0x3F05F, offset: 0x3F05F, size: 0x8, addend: 0x0, symName: __ZNSt3__14pairIKNS_12basic_stringIcNS_11char_traitsIcEENS_9allocatorIcEEEEiEC1B8ue170006IJOS6_EJEJLm0EEJEEENS_21piecewise_construct_tERNS_5tupleIJDpT_EEERNSC_IJDpT0_EEENS_15__tuple_indicesIJXspT1_EEEENSL_IJXspT2_EEEE, symObjAddr: 0x1448C, symBinAddr: 0x1000183B4, symSize: 0x3C }
  - { offsetInCU: 0x3F0EF, offset: 0x3F0EF, size: 0x8, addend: 0x0, symName: __ZNSt3__14pairIKNS_12basic_stringIcNS_11char_traitsIcEENS_9allocatorIcEEEEiEC2B8ue170006IJOS6_EJEJLm0EEJEEENS_21piecewise_construct_tERNS_5tupleIJDpT_EEERNSC_IJDpT0_EEENS_15__tuple_indicesIJXspT1_EEEENSL_IJXspT2_EEEE, symObjAddr: 0x144C8, symBinAddr: 0x1000183F0, symSize: 0x48 }
  - { offsetInCU: 0x3F17F, offset: 0x3F17F, size: 0x8, addend: 0x0, symName: __ZNKSt3__117__compressed_pairIPNS_11__tree_nodeINS_12__value_typeINS_12basic_stringIcNS_11char_traitsIcEENS_9allocatorIcEEEEiEEPvEENS_22__tree_node_destructorINS6_ISB_EEEEE5firstB8ue170006Ev, symObjAddr: 0x14510, symBinAddr: 0x100018438, symSize: 0x24 }
  - { offsetInCU: 0x3F1A5, offset: 0x3F1A5, size: 0x8, addend: 0x0, symName: __ZNKSt3__122__compressed_pair_elemIPNS_11__tree_nodeINS_12__value_typeINS_12basic_stringIcNS_11char_traitsIcEENS_9allocatorIcEEEEiEEPvEELi0ELb0EE5__getB8ue170006Ev, symObjAddr: 0x14534, symBinAddr: 0x10001845C, symSize: 0x14 }
  - { offsetInCU: 0x3F1CB, offset: 0x3F1CB, size: 0x8, addend: 0x0, symName: __ZNSt3__117__compressed_pairIPNS_11__tree_nodeINS_12__value_typeINS_12basic_stringIcNS_11char_traitsIcEENS_9allocatorIcEEEEiEEPvEENS_22__tree_node_destructorINS6_ISB_EEEEE6secondB8ue170006Ev, symObjAddr: 0x14548, symBinAddr: 0x100018470, symSize: 0x28 }
  - { offsetInCU: 0x3F1F1, offset: 0x3F1F1, size: 0x8, addend: 0x0, symName: __ZNSt3__122__compressed_pair_elemINS_22__tree_node_destructorINS_9allocatorINS_11__tree_nodeINS_12__value_typeINS_12basic_stringIcNS_11char_traitsIcEENS2_IcEEEEiEEPvEEEEEELi1ELb0EE5__getB8ue170006Ev, symObjAddr: 0x14570, symBinAddr: 0x100018498, symSize: 0x14 }
  - { offsetInCU: 0x3F217, offset: 0x3F217, size: 0x8, addend: 0x0, symName: __ZNSt3__16__treeINS_12__value_typeINS_12basic_stringIcNS_11char_traitsIcEENS_9allocatorIcEEEEiEENS_19__map_value_compareIS7_S8_NS_4lessIS7_EELb1EEENS5_IS8_EEE4sizeB8ue170006Ev, symObjAddr: 0x14584, symBinAddr: 0x1000184AC, symSize: 0x28 }
  - { offsetInCU: 0x3F23D, offset: 0x3F23D, size: 0x8, addend: 0x0, symName: __ZNSt3__117__compressed_pairImNS_19__map_value_compareINS_12basic_stringIcNS_11char_traitsIcEENS_9allocatorIcEEEENS_12__value_typeIS7_iEENS_4lessIS7_EELb1EEEE5firstB8ue170006Ev, symObjAddr: 0x145AC, symBinAddr: 0x1000184D4, symSize: 0x24 }
  - { offsetInCU: 0x3F263, offset: 0x3F263, size: 0x8, addend: 0x0, symName: __ZNSt3__117__compressed_pairIPNS_11__tree_nodeINS_12__value_typeINS_12basic_stringIcNS_11char_traitsIcEENS_9allocatorIcEEEEiEEPvEENS_22__tree_node_destructorINS6_ISB_EEEEE5firstB8ue170006Ev, symObjAddr: 0x145D0, symBinAddr: 0x1000184F8, symSize: 0x24 }
  - { offsetInCU: 0x3F289, offset: 0x3F289, size: 0x8, addend: 0x0, symName: __ZNSt3__122__compressed_pair_elemIPNS_11__tree_nodeINS_12__value_typeINS_12basic_stringIcNS_11char_traitsIcEENS_9allocatorIcEEEEiEEPvEELi0ELb0EE5__getB8ue170006Ev, symObjAddr: 0x145F4, symBinAddr: 0x10001851C, symSize: 0x14 }
  - { offsetInCU: 0x3F2AF, offset: 0x3F2AF, size: 0x8, addend: 0x0, symName: __ZNSt3__110unique_ptrINS_11__tree_nodeINS_12__value_typeINS_12basic_stringIcNS_11char_traitsIcEENS_9allocatorIcEEEEiEEPvEENS_22__tree_node_destructorINS6_ISB_EEEEED2B8ue170006Ev, symObjAddr: 0x14608, symBinAddr: 0x100018530, symSize: 0x30 }
  - { offsetInCU: 0x3F2D9, offset: 0x3F2D9, size: 0x8, addend: 0x0, symName: __ZNSt3__110unique_ptrINS_11__tree_nodeINS_12__value_typeINS_12basic_stringIcNS_11char_traitsIcEENS_9allocatorIcEEEEiEEPvEENS_22__tree_node_destructorINS6_ISB_EEEEE5resetB8ue170006EPSB_, symObjAddr: 0x14638, symBinAddr: 0x100018560, symSize: 0x78 }
  - { offsetInCU: 0x3F31D, offset: 0x3F31D, size: 0x8, addend: 0x0, symName: __ZNSt3__122__tree_node_destructorINS_9allocatorINS_11__tree_nodeINS_12__value_typeINS_12basic_stringIcNS_11char_traitsIcEENS1_IcEEEEiEEPvEEEEEclB8ue170006EPSB_, symObjAddr: 0x146B0, symBinAddr: 0x1000185D8, symSize: 0x94 }
  - { offsetInCU: 0x3F352, offset: 0x3F352, size: 0x8, addend: 0x0, symName: __ZNSt3__115__tree_iteratorINS_12__value_typeINS_12basic_stringIcNS_11char_traitsIcEENS_9allocatorIcEEEEiEEPNS_11__tree_nodeIS8_PvEElEC2B8ue170006ESC_, symObjAddr: 0x14744, symBinAddr: 0x10001866C, symSize: 0x20 }
  - { offsetInCU: 0x3F38B, offset: 0x3F38B, size: 0x8, addend: 0x0, symName: __ZNSt3__14pairINS_15__tree_iteratorINS_12__value_typeINS_12basic_stringIcNS_11char_traitsIcEENS_9allocatorIcEEEEiEEPNS_11__tree_nodeIS9_PvEElEEbEC2B8ue170006ISE_RbLSB_0EEEOT_OT0_, symObjAddr: 0x14764, symBinAddr: 0x10001868C, symSize: 0x38 }
  - { offsetInCU: 0x3F3E9, offset: 0x3F3E9, size: 0x8, addend: 0x0, symName: __ZNSt3__114pointer_traitsIPNS_12__value_typeINS_12basic_stringIcNS_11char_traitsIcEENS_9allocatorIcEEEEiEEE10pointer_toB8ue170006ERS8_, symObjAddr: 0x1479C, symBinAddr: 0x1000186C4, symSize: 0x14 }
  - { offsetInCU: 0x3F40C, offset: 0x3F40C, size: 0x8, addend: 0x0, symName: __ZNKSt3__115__tree_iteratorINS_12__value_typeINS_12basic_stringIcNS_11char_traitsIcEENS_9allocatorIcEEEEiEEPNS_11__tree_nodeIS8_PvEElE8__get_npB8ue170006Ev, symObjAddr: 0x147B0, symBinAddr: 0x1000186D8, symSize: 0x18 }
  - { offsetInCU: 0x3F432, offset: 0x3F432, size: 0x8, addend: 0x0, symName: __ZNSt3__16vectorINS_12basic_stringIcNS_11char_traitsIcEENS_9allocatorIcEEEENS4_IS6_EEE11__make_iterB8ue170006EPS6_, symObjAddr: 0x147C8, symBinAddr: 0x1000186F0, symSize: 0x30 }
  - { offsetInCU: 0x3F467, offset: 0x3F467, size: 0x8, addend: 0x0, symName: __ZNSt3__111__wrap_iterIPNS_12basic_stringIcNS_11char_traitsIcEENS_9allocatorIcEEEEEC1B8ue170006ES7_, symObjAddr: 0x147F8, symBinAddr: 0x100018720, symSize: 0x34 }
  - { offsetInCU: 0x3F49F, offset: 0x3F49F, size: 0x8, addend: 0x0, symName: __ZNSt3__111__wrap_iterIPNS_12basic_stringIcNS_11char_traitsIcEENS_9allocatorIcEEEEEC2B8ue170006ES7_, symObjAddr: 0x1482C, symBinAddr: 0x100018754, symSize: 0x20 }
  - { offsetInCU: 0x3F4D7, offset: 0x3F4D7, size: 0x8, addend: 0x0, symName: __ZNSt3__16__treeINS_12__value_typeINS_12basic_stringIcNS_11char_traitsIcEENS_9allocatorIcEEEEiEENS_19__map_value_compareIS7_S8_NS_4lessIS7_EELb1EEENS5_IS8_EEE4findIS7_EENS_15__tree_iteratorIS8_PNS_11__tree_nodeIS8_PvEElEERKT_, symObjAddr: 0x1484C, symBinAddr: 0x100018774, symSize: 0xF8 }
  - { offsetInCU: 0x3F526, offset: 0x3F526, size: 0x8, addend: 0x0, symName: __ZNSt3__114__map_iteratorINS_15__tree_iteratorINS_12__value_typeINS_12basic_stringIcNS_11char_traitsIcEENS_9allocatorIcEEEEiEEPNS_11__tree_nodeIS9_PvEElEEEC1B8ue170006ESE_, symObjAddr: 0x14944, symBinAddr: 0x10001886C, symSize: 0x34 }
  - { offsetInCU: 0x3F55F, offset: 0x3F55F, size: 0x8, addend: 0x0, symName: __ZNSt3__16__treeINS_12__value_typeINS_12basic_stringIcNS_11char_traitsIcEENS_9allocatorIcEEEEiEENS_19__map_value_compareIS7_S8_NS_4lessIS7_EELb1EEENS5_IS8_EEE13__lower_boundIS7_EENS_15__tree_iteratorIS8_PNS_11__tree_nodeIS8_PvEElEERKT_SK_PNS_15__tree_end_nodeIPNS_16__tree_node_baseISI_EEEE, symObjAddr: 0x14978, symBinAddr: 0x1000188A0, symSize: 0xA4 }
  - { offsetInCU: 0x3F5BD, offset: 0x3F5BD, size: 0x8, addend: 0x0, symName: __ZNSt3__16__treeINS_12__value_typeINS_12basic_stringIcNS_11char_traitsIcEENS_9allocatorIcEEEEiEENS_19__map_value_compareIS7_S8_NS_4lessIS7_EELb1EEENS5_IS8_EEE3endB8ue170006Ev, symObjAddr: 0x14A50, symBinAddr: 0x100018978, symSize: 0x34 }
  - { offsetInCU: 0x3F5E3, offset: 0x3F5E3, size: 0x8, addend: 0x0, symName: __ZNKSt3__115__tree_iteratorINS_12__value_typeINS_12basic_stringIcNS_11char_traitsIcEENS_9allocatorIcEEEEiEEPNS_11__tree_nodeIS8_PvEElEdeB8ue170006Ev, symObjAddr: 0x14A84, symBinAddr: 0x1000189AC, symSize: 0x28 }
  - { offsetInCU: 0x3F609, offset: 0x3F609, size: 0x8, addend: 0x0, symName: __ZNSt3__115__tree_iteratorINS_12__value_typeINS_12basic_stringIcNS_11char_traitsIcEENS_9allocatorIcEEEEiEEPNS_11__tree_nodeIS8_PvEElEC1B8ue170006EPNS_15__tree_end_nodeIPNS_16__tree_node_baseISA_EEEE, symObjAddr: 0x14AAC, symBinAddr: 0x1000189D4, symSize: 0x34 }
  - { offsetInCU: 0x3F642, offset: 0x3F642, size: 0x8, addend: 0x0, symName: __ZNSt3__115__tree_iteratorINS_12__value_typeINS_12basic_stringIcNS_11char_traitsIcEENS_9allocatorIcEEEEiEEPNS_11__tree_nodeIS8_PvEElEC2B8ue170006EPNS_15__tree_end_nodeIPNS_16__tree_node_baseISA_EEEE, symObjAddr: 0x14AE0, symBinAddr: 0x100018A08, symSize: 0x20 }
  - { offsetInCU: 0x3F67B, offset: 0x3F67B, size: 0x8, addend: 0x0, symName: __ZNSt3__114__map_iteratorINS_15__tree_iteratorINS_12__value_typeINS_12basic_stringIcNS_11char_traitsIcEENS_9allocatorIcEEEEiEEPNS_11__tree_nodeIS9_PvEElEEEC2B8ue170006ESE_, symObjAddr: 0x14B30, symBinAddr: 0x100018A58, symSize: 0x20 }
  - { offsetInCU: 0x3F6B4, offset: 0x3F6B4, size: 0x8, addend: 0x0, symName: __ZNSt3__16__treeINS_12__value_typeINS_12basic_stringIcNS_11char_traitsIcEENS_9allocatorIcEEEEiEENS_19__map_value_compareIS7_S8_NS_4lessIS7_EELb1EEENS5_IS8_EEE25__emplace_unique_key_argsIS7_JRKNS_21piecewise_construct_tENS_5tupleIJRKS7_EEENSJ_IJEEEEEENS_4pairINS_15__tree_iteratorIS8_PNS_11__tree_nodeIS8_PvEElEEbEERKT_DpOT0_, symObjAddr: 0x14B50, symBinAddr: 0x100018A78, symSize: 0x100 }
  - { offsetInCU: 0x3F78A, offset: 0x3F78A, size: 0x8, addend: 0x0, symName: __ZNSt3__16__treeINS_12__value_typeINS_12basic_stringIcNS_11char_traitsIcEENS_9allocatorIcEEEEiEENS_19__map_value_compareIS7_S8_NS_4lessIS7_EELb1EEENS5_IS8_EEE16__construct_nodeIJRKNS_21piecewise_construct_tENS_5tupleIJRKS7_EEENSJ_IJEEEEEENS_10unique_ptrINS_11__tree_nodeIS8_PvEENS_22__tree_node_destructorINS5_ISR_EEEEEEDpOT_, symObjAddr: 0x14C7C, symBinAddr: 0x100018BA4, symSize: 0x120 }
  - { offsetInCU: 0x3F813, offset: 0x3F813, size: 0x8, addend: 0x0, symName: __ZNSt3__116allocator_traitsINS_9allocatorINS_11__tree_nodeINS_12__value_typeINS_12basic_stringIcNS_11char_traitsIcEENS1_IcEEEEiEEPvEEEEE9constructB8ue170006INS_4pairIKS8_iEEJRKNS_21piecewise_construct_tENS_5tupleIJRSG_EEENSL_IJEEEEvEEvRSC_PT_DpOT0_, symObjAddr: 0x14D9C, symBinAddr: 0x100018CC4, symSize: 0x44 }
  - { offsetInCU: 0x3F892, offset: 0x3F892, size: 0x8, addend: 0x0, symName: __ZNSt3__19allocatorINS_11__tree_nodeINS_12__value_typeINS_12basic_stringIcNS_11char_traitsIcEENS0_IcEEEEiEEPvEEE9constructB8ue170006INS_4pairIKS7_iEEJRKNS_21piecewise_construct_tENS_5tupleIJRSE_EEENSJ_IJEEEEEEvPT_DpOT0_, symObjAddr: 0x14DE0, symBinAddr: 0x100018D08, symSize: 0x44 }
  - { offsetInCU: 0x3F90E, offset: 0x3F90E, size: 0x8, addend: 0x0, symName: __ZNSt3__14pairIKNS_12basic_stringIcNS_11char_traitsIcEENS_9allocatorIcEEEEiEC1B8ue170006IJRS7_EJEEENS_21piecewise_construct_tENS_5tupleIJDpT_EEENSC_IJDpT0_EEE, symObjAddr: 0x14E24, symBinAddr: 0x100018D4C, symSize: 0x3C }
  - { offsetInCU: 0x3F975, offset: 0x3F975, size: 0x8, addend: 0x0, symName: __ZNSt3__14pairIKNS_12basic_stringIcNS_11char_traitsIcEENS_9allocatorIcEEEEiEC1B8ue170006IJRS7_EJEJLm0EEJEEENS_21piecewise_construct_tERNS_5tupleIJDpT_EEERNSC_IJDpT0_EEENS_15__tuple_indicesIJXspT1_EEEENSL_IJXspT2_EEEE, symObjAddr: 0x14E60, symBinAddr: 0x100018D88, symSize: 0x3C }
  - { offsetInCU: 0x3FA05, offset: 0x3FA05, size: 0x8, addend: 0x0, symName: __ZNSt3__14pairIKNS_12basic_stringIcNS_11char_traitsIcEENS_9allocatorIcEEEEiEC2B8ue170006IJRS7_EJEJLm0EEJEEENS_21piecewise_construct_tERNS_5tupleIJDpT_EEERNSC_IJDpT0_EEENS_15__tuple_indicesIJXspT1_EEEENSL_IJXspT2_EEEE, symObjAddr: 0x14E9C, symBinAddr: 0x100018DC4, symSize: 0x48 }
  - { offsetInCU: 0x3FA95, offset: 0x3FA95, size: 0x8, addend: 0x0, symName: __ZNSt3__112__tuple_leafILm0ERKNS_12basic_stringIcNS_11char_traitsIcEENS_9allocatorIcEEEELb0EE3getB8ue170006Ev, symObjAddr: 0x14F08, symBinAddr: 0x100018E30, symSize: 0x18 }
  - { offsetInCU: 0x3FABB, offset: 0x3FABB, size: 0x8, addend: 0x0, symName: __ZNSt3__15tupleIJRKNS_12basic_stringIcNS_11char_traitsIcEENS_9allocatorIcEEEEEEC1B8ue170006INS_4_AndELi0EEES8_, symObjAddr: 0x14F20, symBinAddr: 0x100018E48, symSize: 0x34 }
  - { offsetInCU: 0x3FB03, offset: 0x3FB03, size: 0x8, addend: 0x0, symName: __ZNSt3__15tupleIJRKNS_12basic_stringIcNS_11char_traitsIcEENS_9allocatorIcEEEEEEC2B8ue170006INS_4_AndELi0EEES8_, symObjAddr: 0x14F54, symBinAddr: 0x100018E7C, symSize: 0x34 }
  - { offsetInCU: 0x3FB4B, offset: 0x3FB4B, size: 0x8, addend: 0x0, symName: __ZNSt3__112__tuple_implINS_15__tuple_indicesIJLm0EEEEJRKNS_12basic_stringIcNS_11char_traitsIcEENS_9allocatorIcEEEEEEC1B8ue170006IJLm0EEJSA_EJEJEJSA_EEENS1_IJXspT_EEEENS_13__tuple_typesIJDpT0_EEENS1_IJXspT1_EEEENSE_IJDpT2_EEEDpOT3_, symObjAddr: 0x14F88, symBinAddr: 0x100018EB0, symSize: 0x34 }
  - { offsetInCU: 0x3FBE0, offset: 0x3FBE0, size: 0x8, addend: 0x0, symName: __ZNSt3__112__tuple_implINS_15__tuple_indicesIJLm0EEEEJRKNS_12basic_stringIcNS_11char_traitsIcEENS_9allocatorIcEEEEEEC2B8ue170006IJLm0EEJSA_EJEJEJSA_EEENS1_IJXspT_EEEENS_13__tuple_typesIJDpT0_EEENS1_IJXspT1_EEEENSE_IJDpT2_EEEDpOT3_, symObjAddr: 0x14FBC, symBinAddr: 0x100018EE4, symSize: 0x34 }
  - { offsetInCU: 0x3FC75, offset: 0x3FC75, size: 0x8, addend: 0x0, symName: __ZNSt3__112__tuple_leafILm0ERKNS_12basic_stringIcNS_11char_traitsIcEENS_9allocatorIcEEEELb0EEC2B8ue170006IS8_vEEOT_, symObjAddr: 0x14FF0, symBinAddr: 0x100018F18, symSize: 0x20 }
  - { offsetInCU: 0x3FCB8, offset: 0x3FCB8, size: 0x8, addend: 0x0, symName: __ZNSt3__16__treeINS_12__value_typeINS_12basic_stringIcNS_11char_traitsIcEENS_9allocatorIcEEEE8CellTypeEENS_19__map_value_compareIS7_S9_NS_4lessIS7_EELb1EEENS5_IS9_EEE5beginB8ue170006Ev, symObjAddr: 0x15010, symBinAddr: 0x100018F38, symSize: 0x34 }
  - { offsetInCU: 0x3FCDE, offset: 0x3FCDE, size: 0x8, addend: 0x0, symName: __ZNSt3__115__tree_iteratorINS_12__value_typeINS_12basic_stringIcNS_11char_traitsIcEENS_9allocatorIcEEEE8CellTypeEEPNS_11__tree_nodeIS9_PvEElEppB8ue170006Ev, symObjAddr: 0x15044, symBinAddr: 0x100018F6C, symSize: 0x38 }
  - { offsetInCU: 0x3FD04, offset: 0x3FD04, size: 0x8, addend: 0x0, symName: __ZNSt3__16vectorI4CellNS_9allocatorIS1_EEEC2B8ue170006Ev, symObjAddr: 0x1507C, symBinAddr: 0x100018FA4, symSize: 0x4C }
  - { offsetInCU: 0x3FD2E, offset: 0x3FD2E, size: 0x8, addend: 0x0, symName: __ZNSt3__117__compressed_pairIP4CellNS_9allocatorIS1_EEEC1B8ue170006IDnNS_18__default_init_tagEEEOT_OT0_, symObjAddr: 0x150C8, symBinAddr: 0x100018FF0, symSize: 0x3C }
  - { offsetInCU: 0x3FD86, offset: 0x3FD86, size: 0x8, addend: 0x0, symName: __ZNSt3__117__compressed_pairIP4CellNS_9allocatorIS1_EEEC2B8ue170006IDnNS_18__default_init_tagEEEOT_OT0_, symObjAddr: 0x15104, symBinAddr: 0x10001902C, symSize: 0x40 }
  - { offsetInCU: 0x3FDDE, offset: 0x3FDDE, size: 0x8, addend: 0x0, symName: __ZNSt3__122__compressed_pair_elemIP4CellLi0ELb0EEC2B8ue170006IDnvEEOT_, symObjAddr: 0x15144, symBinAddr: 0x10001906C, symSize: 0x1C }
  - { offsetInCU: 0x3FE20, offset: 0x3FE20, size: 0x8, addend: 0x0, symName: __ZNSt3__122__compressed_pair_elemINS_9allocatorI4CellEELi1ELb1EEC2B8ue170006ENS_18__default_init_tagE, symObjAddr: 0x15160, symBinAddr: 0x100019088, symSize: 0x2C }
  - { offsetInCU: 0x3FE54, offset: 0x3FE54, size: 0x8, addend: 0x0, symName: __ZNSt3__19allocatorI4CellEC2B8ue170006Ev, symObjAddr: 0x1518C, symBinAddr: 0x1000190B4, symSize: 0x2C }
  - { offsetInCU: 0x3FE7E, offset: 0x3FE7E, size: 0x8, addend: 0x0, symName: __ZNSt3__116__non_trivial_ifILb1ENS_9allocatorI4CellEEEC2B8ue170006Ev, symObjAddr: 0x151B8, symBinAddr: 0x1000190E0, symSize: 0x14 }
  - { offsetInCU: 0x3FEA8, offset: 0x3FEA8, size: 0x8, addend: 0x0, symName: __ZNSt3__16vectorI4CellNS_9allocatorIS1_EEED2B8ue170006Ev, symObjAddr: 0x151CC, symBinAddr: 0x1000190F4, symSize: 0x44 }
  - { offsetInCU: 0x3FED2, offset: 0x3FED2, size: 0x8, addend: 0x0, symName: __ZNSt3__16vectorI4CellNS_9allocatorIS1_EEE16__destroy_vectorC1B8ue170006ERS4_, symObjAddr: 0x15210, symBinAddr: 0x100019138, symSize: 0x34 }
  - { offsetInCU: 0x3FF0B, offset: 0x3FF0B, size: 0x8, addend: 0x0, symName: __ZNSt3__16vectorI4CellNS_9allocatorIS1_EEE16__destroy_vectorclB8ue170006Ev, symObjAddr: 0x15244, symBinAddr: 0x10001916C, symSize: 0x90 }
  - { offsetInCU: 0x3FF31, offset: 0x3FF31, size: 0x8, addend: 0x0, symName: __ZNSt3__16vectorI4CellNS_9allocatorIS1_EEE16__destroy_vectorC2B8ue170006ERS4_, symObjAddr: 0x152D4, symBinAddr: 0x1000191FC, symSize: 0x20 }
  - { offsetInCU: 0x3FF6A, offset: 0x3FF6A, size: 0x8, addend: 0x0, symName: __ZNSt3__16vectorI4CellNS_9allocatorIS1_EEE7__clearB8ue170006Ev, symObjAddr: 0x152F4, symBinAddr: 0x10001921C, symSize: 0x28 }
  - { offsetInCU: 0x3FF90, offset: 0x3FF90, size: 0x8, addend: 0x0, symName: __ZNKSt3__16vectorI4CellNS_9allocatorIS1_EEE17__annotate_deleteB8ue170006Ev, symObjAddr: 0x1531C, symBinAddr: 0x100019244, symSize: 0xD4 }
  - { offsetInCU: 0x3FFB6, offset: 0x3FFB6, size: 0x8, addend: 0x0, symName: __ZNSt3__116allocator_traitsINS_9allocatorI4CellEEE10deallocateB8ue170006ERS3_PS2_m, symObjAddr: 0x153F0, symBinAddr: 0x100019318, symSize: 0x34 }
  - { offsetInCU: 0x3FFF8, offset: 0x3FFF8, size: 0x8, addend: 0x0, symName: __ZNSt3__16vectorI4CellNS_9allocatorIS1_EEE7__allocB8ue170006Ev, symObjAddr: 0x15424, symBinAddr: 0x10001934C, symSize: 0x28 }
  - { offsetInCU: 0x4001E, offset: 0x4001E, size: 0x8, addend: 0x0, symName: __ZNKSt3__16vectorI4CellNS_9allocatorIS1_EEE8capacityB8ue170006Ev, symObjAddr: 0x1544C, symBinAddr: 0x100019374, symSize: 0x40 }
  - { offsetInCU: 0x40044, offset: 0x40044, size: 0x8, addend: 0x0, symName: __ZNSt3__16vectorI4CellNS_9allocatorIS1_EEE22__base_destruct_at_endB8ue170006EPS1_, symObjAddr: 0x1548C, symBinAddr: 0x1000193B4, symSize: 0x8C }
  - { offsetInCU: 0x40088, offset: 0x40088, size: 0x8, addend: 0x0, symName: __ZNSt3__116allocator_traitsINS_9allocatorI4CellEEE7destroyB8ue170006IS2_vEEvRS3_PT_, symObjAddr: 0x15518, symBinAddr: 0x100019440, symSize: 0x2C }
  - { offsetInCU: 0x400C5, offset: 0x400C5, size: 0x8, addend: 0x0, symName: __ZNSt3__19allocatorI4CellE7destroyB8ue170006EPS1_, symObjAddr: 0x15544, symBinAddr: 0x10001946C, symSize: 0x28 }
  - { offsetInCU: 0x400F9, offset: 0x400F9, size: 0x8, addend: 0x0, symName: __ZNKSt3__16vectorI4CellNS_9allocatorIS1_EEE31__annotate_contiguous_containerB8ue170006EPKvS6_S6_S6_, symObjAddr: 0x1556C, symBinAddr: 0x100019494, symSize: 0x20 }
  - { offsetInCU: 0x4014F, offset: 0x4014F, size: 0x8, addend: 0x0, symName: __ZNKSt3__16vectorI4CellNS_9allocatorIS1_EEE4dataB8ue170006Ev, symObjAddr: 0x1558C, symBinAddr: 0x1000194B4, symSize: 0x28 }
  - { offsetInCU: 0x40175, offset: 0x40175, size: 0x8, addend: 0x0, symName: __ZNKSt3__16vectorI4CellNS_9allocatorIS1_EEE4sizeB8ue170006Ev, symObjAddr: 0x155B4, symBinAddr: 0x1000194DC, symSize: 0x28 }
  - { offsetInCU: 0x4019B, offset: 0x4019B, size: 0x8, addend: 0x0, symName: __ZNSt3__19allocatorI4CellE10deallocateB8ue170006EPS1_m, symObjAddr: 0x155DC, symBinAddr: 0x100019504, symSize: 0x44 }
  - { offsetInCU: 0x401DD, offset: 0x401DD, size: 0x8, addend: 0x0, symName: __ZNSt3__117__compressed_pairIP4CellNS_9allocatorIS1_EEE6secondB8ue170006Ev, symObjAddr: 0x15620, symBinAddr: 0x100019548, symSize: 0x24 }
  - { offsetInCU: 0x40203, offset: 0x40203, size: 0x8, addend: 0x0, symName: __ZNSt3__122__compressed_pair_elemINS_9allocatorI4CellEELi1ELb1EE5__getB8ue170006Ev, symObjAddr: 0x15644, symBinAddr: 0x10001956C, symSize: 0x14 }
  - { offsetInCU: 0x40229, offset: 0x40229, size: 0x8, addend: 0x0, symName: __ZNKSt3__16vectorI4CellNS_9allocatorIS1_EEE9__end_capB8ue170006Ev, symObjAddr: 0x15658, symBinAddr: 0x100019580, symSize: 0x28 }
  - { offsetInCU: 0x4024F, offset: 0x4024F, size: 0x8, addend: 0x0, symName: __ZNKSt3__117__compressed_pairIP4CellNS_9allocatorIS1_EEE5firstB8ue170006Ev, symObjAddr: 0x15680, symBinAddr: 0x1000195A8, symSize: 0x24 }
  - { offsetInCU: 0x40275, offset: 0x40275, size: 0x8, addend: 0x0, symName: __ZNKSt3__122__compressed_pair_elemIP4CellLi0ELb0EE5__getB8ue170006Ev, symObjAddr: 0x156A4, symBinAddr: 0x1000195CC, symSize: 0x14 }
  - { offsetInCU: 0x4029B, offset: 0x4029B, size: 0x8, addend: 0x0, symName: __ZNSt3__16vectorIP4CellNS_9allocatorIS2_EEE11__make_iterB8ue170006EPS2_, symObjAddr: 0x156B8, symBinAddr: 0x1000195E0, symSize: 0x30 }
  - { offsetInCU: 0x402D0, offset: 0x402D0, size: 0x8, addend: 0x0, symName: __ZNSt3__111__wrap_iterIPP4CellEC1B8ue170006ES3_, symObjAddr: 0x156E8, symBinAddr: 0x100019610, symSize: 0x34 }
  - { offsetInCU: 0x40308, offset: 0x40308, size: 0x8, addend: 0x0, symName: __ZNSt3__111__wrap_iterIPP4CellEC2B8ue170006ES3_, symObjAddr: 0x1571C, symBinAddr: 0x100019644, symSize: 0x20 }
  - { offsetInCU: 0x40340, offset: 0x40340, size: 0x8, addend: 0x0, symName: __ZNSt3__13mapINS_12basic_stringIcNS_11char_traitsIcEENS_9allocatorIcEEEEP4CellNS_4lessIS6_EENS4_INS_4pairIKS6_S8_EEEEEC2B8ue170006Ev, symObjAddr: 0x1573C, symBinAddr: 0x100019664, symSize: 0x40 }
  - { offsetInCU: 0x4036A, offset: 0x4036A, size: 0x8, addend: 0x0, symName: __ZNSt3__119__map_value_compareINS_12basic_stringIcNS_11char_traitsIcEENS_9allocatorIcEEEENS_12__value_typeIS6_P4CellEENS_4lessIS6_EELb1EEC1B8ue170006ESC_, symObjAddr: 0x1577C, symBinAddr: 0x1000196A4, symSize: 0x2C }
  - { offsetInCU: 0x403A3, offset: 0x403A3, size: 0x8, addend: 0x0, symName: __ZNSt3__16__treeINS_12__value_typeINS_12basic_stringIcNS_11char_traitsIcEENS_9allocatorIcEEEEP4CellEENS_19__map_value_compareIS7_SA_NS_4lessIS7_EELb1EEENS5_ISA_EEEC1ERKSE_, symObjAddr: 0x157A8, symBinAddr: 0x1000196D0, symSize: 0x34 }
  - { offsetInCU: 0x403DE, offset: 0x403DE, size: 0x8, addend: 0x0, symName: __ZNSt3__119__map_value_compareINS_12basic_stringIcNS_11char_traitsIcEENS_9allocatorIcEEEENS_12__value_typeIS6_P4CellEENS_4lessIS6_EELb1EEC2B8ue170006ESC_, symObjAddr: 0x157DC, symBinAddr: 0x100019704, symSize: 0x14 }
  - { offsetInCU: 0x40417, offset: 0x40417, size: 0x8, addend: 0x0, symName: __ZNSt3__16__treeINS_12__value_typeINS_12basic_stringIcNS_11char_traitsIcEENS_9allocatorIcEEEEP4CellEENS_19__map_value_compareIS7_SA_NS_4lessIS7_EELb1EEENS5_ISA_EEEC2ERKSE_, symObjAddr: 0x157F0, symBinAddr: 0x100019718, symSize: 0x7C }
  - { offsetInCU: 0x40452, offset: 0x40452, size: 0x8, addend: 0x0, symName: __ZNSt3__117__compressed_pairINS_15__tree_end_nodeIPNS_16__tree_node_baseIPvEEEENS_9allocatorINS_11__tree_nodeINS_12__value_typeINS_12basic_stringIcNS_11char_traitsIcEENS7_IcEEEEP4CellEES3_EEEEEC1B8ue170006ILb1EvEEv, symObjAddr: 0x1586C, symBinAddr: 0x100019794, symSize: 0x2C }
  - { offsetInCU: 0x40487, offset: 0x40487, size: 0x8, addend: 0x0, symName: __ZNSt3__117__compressed_pairImNS_19__map_value_compareINS_12basic_stringIcNS_11char_traitsIcEENS_9allocatorIcEEEENS_12__value_typeIS7_P4CellEENS_4lessIS7_EELb1EEEEC1B8ue170006IiRKSE_EEOT_OT0_, symObjAddr: 0x15898, symBinAddr: 0x1000197C0, symSize: 0x3C }
  - { offsetInCU: 0x404DF, offset: 0x404DF, size: 0x8, addend: 0x0, symName: __ZNSt3__16__treeINS_12__value_typeINS_12basic_stringIcNS_11char_traitsIcEENS_9allocatorIcEEEEP4CellEENS_19__map_value_compareIS7_SA_NS_4lessIS7_EELb1EEENS5_ISA_EEE10__end_nodeB8ue170006Ev, symObjAddr: 0x158D4, symBinAddr: 0x1000197FC, symSize: 0x2C }
  - { offsetInCU: 0x40505, offset: 0x40505, size: 0x8, addend: 0x0, symName: __ZNSt3__16__treeINS_12__value_typeINS_12basic_stringIcNS_11char_traitsIcEENS_9allocatorIcEEEEP4CellEENS_19__map_value_compareIS7_SA_NS_4lessIS7_EELb1EEENS5_ISA_EEE12__begin_nodeB8ue170006Ev, symObjAddr: 0x15900, symBinAddr: 0x100019828, symSize: 0x14 }
  - { offsetInCU: 0x4052B, offset: 0x4052B, size: 0x8, addend: 0x0, symName: __ZNSt3__117__compressed_pairINS_15__tree_end_nodeIPNS_16__tree_node_baseIPvEEEENS_9allocatorINS_11__tree_nodeINS_12__value_typeINS_12basic_stringIcNS_11char_traitsIcEENS7_IcEEEEP4CellEES3_EEEEEC2B8ue170006ILb1EvEEv, symObjAddr: 0x15914, symBinAddr: 0x10001983C, symSize: 0x34 }
  - { offsetInCU: 0x40560, offset: 0x40560, size: 0x8, addend: 0x0, symName: __ZNSt3__122__compressed_pair_elemINS_9allocatorINS_11__tree_nodeINS_12__value_typeINS_12basic_stringIcNS_11char_traitsIcEENS1_IcEEEEP4CellEEPvEEEELi1ELb1EEC2B8ue170006ENS_16__value_init_tagE, symObjAddr: 0x15948, symBinAddr: 0x100019870, symSize: 0x2C }
  - { offsetInCU: 0x40594, offset: 0x40594, size: 0x8, addend: 0x0, symName: __ZNSt3__19allocatorINS_11__tree_nodeINS_12__value_typeINS_12basic_stringIcNS_11char_traitsIcEENS0_IcEEEEP4CellEEPvEEEC2B8ue170006Ev, symObjAddr: 0x15974, symBinAddr: 0x10001989C, symSize: 0x2C }
  - { offsetInCU: 0x405BE, offset: 0x405BE, size: 0x8, addend: 0x0, symName: __ZNSt3__116__non_trivial_ifILb1ENS_9allocatorINS_11__tree_nodeINS_12__value_typeINS_12basic_stringIcNS_11char_traitsIcEENS1_IcEEEEP4CellEEPvEEEEEC2B8ue170006Ev, symObjAddr: 0x159A0, symBinAddr: 0x1000198C8, symSize: 0x14 }
  - { offsetInCU: 0x405E8, offset: 0x405E8, size: 0x8, addend: 0x0, symName: __ZNSt3__117__compressed_pairImNS_19__map_value_compareINS_12basic_stringIcNS_11char_traitsIcEENS_9allocatorIcEEEENS_12__value_typeIS7_P4CellEENS_4lessIS7_EELb1EEEEC2B8ue170006IiRKSE_EEOT_OT0_, symObjAddr: 0x159B4, symBinAddr: 0x1000198DC, symSize: 0x44 }
  - { offsetInCU: 0x40640, offset: 0x40640, size: 0x8, addend: 0x0, symName: __ZNSt3__122__compressed_pair_elemINS_19__map_value_compareINS_12basic_stringIcNS_11char_traitsIcEENS_9allocatorIcEEEENS_12__value_typeIS7_P4CellEENS_4lessIS7_EELb1EEELi1ELb1EEC2B8ue170006IRKSE_vEEOT_, symObjAddr: 0x159F8, symBinAddr: 0x100019920, symSize: 0x18 }
  - { offsetInCU: 0x40682, offset: 0x40682, size: 0x8, addend: 0x0, symName: __ZNSt3__117__compressed_pairINS_15__tree_end_nodeIPNS_16__tree_node_baseIPvEEEENS_9allocatorINS_11__tree_nodeINS_12__value_typeINS_12basic_stringIcNS_11char_traitsIcEENS7_IcEEEEP4CellEES3_EEEEE5firstB8ue170006Ev, symObjAddr: 0x15A10, symBinAddr: 0x100019938, symSize: 0x24 }
  - { offsetInCU: 0x406A8, offset: 0x406A8, size: 0x8, addend: 0x0, symName: __ZNSt3__13mapINS_12basic_stringIcNS_11char_traitsIcEENS_9allocatorIcEEEEP4CellNS_4lessIS6_EENS4_INS_4pairIKS6_S8_EEEEED2B8ue170006Ev, symObjAddr: 0x15A34, symBinAddr: 0x10001995C, symSize: 0x2C }
  - { offsetInCU: 0x406D2, offset: 0x406D2, size: 0x8, addend: 0x0, symName: __ZNSt3__16__treeINS_12__value_typeINS_12basic_stringIcNS_11char_traitsIcEENS_9allocatorIcEEEEP4CellEENS_19__map_value_compareIS7_SA_NS_4lessIS7_EELb1EEENS5_ISA_EEED1Ev, symObjAddr: 0x15A60, symBinAddr: 0x100019988, symSize: 0x2C }
  - { offsetInCU: 0x406FE, offset: 0x406FE, size: 0x8, addend: 0x0, symName: __ZNSt3__16__treeINS_12__value_typeINS_12basic_stringIcNS_11char_traitsIcEENS_9allocatorIcEEEEP4CellEENS_19__map_value_compareIS7_SA_NS_4lessIS7_EELb1EEENS5_ISA_EEED2Ev, symObjAddr: 0x15A8C, symBinAddr: 0x1000199B4, symSize: 0x38 }
  - { offsetInCU: 0x4072A, offset: 0x4072A, size: 0x8, addend: 0x0, symName: __ZNSt3__16__treeINS_12__value_typeINS_12basic_stringIcNS_11char_traitsIcEENS_9allocatorIcEEEEP4CellEENS_19__map_value_compareIS7_SA_NS_4lessIS7_EELb1EEENS5_ISA_EEE7destroyEPNS_11__tree_nodeISA_PvEE, symObjAddr: 0x15AC4, symBinAddr: 0x1000199EC, symSize: 0xAC }
  - { offsetInCU: 0x40776, offset: 0x40776, size: 0x8, addend: 0x0, symName: __ZNKSt3__16__treeINS_12__value_typeINS_12basic_stringIcNS_11char_traitsIcEENS_9allocatorIcEEEEP4CellEENS_19__map_value_compareIS7_SA_NS_4lessIS7_EELb1EEENS5_ISA_EEE6__rootB8ue170006Ev, symObjAddr: 0x15B70, symBinAddr: 0x100019A98, symSize: 0x28 }
  - { offsetInCU: 0x4079C, offset: 0x4079C, size: 0x8, addend: 0x0, symName: __ZNSt3__16__treeINS_12__value_typeINS_12basic_stringIcNS_11char_traitsIcEENS_9allocatorIcEEEEP4CellEENS_19__map_value_compareIS7_SA_NS_4lessIS7_EELb1EEENS5_ISA_EEE12__node_allocB8ue170006Ev, symObjAddr: 0x15B98, symBinAddr: 0x100019AC0, symSize: 0x28 }
  - { offsetInCU: 0x407C2, offset: 0x407C2, size: 0x8, addend: 0x0, symName: __ZNSt3__116allocator_traitsINS_9allocatorINS_11__tree_nodeINS_12__value_typeINS_12basic_stringIcNS_11char_traitsIcEENS1_IcEEEEP4CellEEPvEEEEE7destroyB8ue170006INS_4pairIKS8_SA_EEvvEEvRSE_PT_, symObjAddr: 0x15BC0, symBinAddr: 0x100019AE8, symSize: 0x28 }
  - { offsetInCU: 0x407FD, offset: 0x407FD, size: 0x8, addend: 0x0, symName: __ZNSt3__122__tree_key_value_typesINS_12__value_typeINS_12basic_stringIcNS_11char_traitsIcEENS_9allocatorIcEEEEP4CellEEE9__get_ptrB8ue170006ERSA_, symObjAddr: 0x15BE8, symBinAddr: 0x100019B10, symSize: 0x24 }
  - { offsetInCU: 0x40821, offset: 0x40821, size: 0x8, addend: 0x0, symName: __ZNSt3__116allocator_traitsINS_9allocatorINS_11__tree_nodeINS_12__value_typeINS_12basic_stringIcNS_11char_traitsIcEENS1_IcEEEEP4CellEEPvEEEEE10deallocateB8ue170006ERSE_PSD_m, symObjAddr: 0x15C0C, symBinAddr: 0x100019B34, symSize: 0x34 }
  - { offsetInCU: 0x40863, offset: 0x40863, size: 0x8, addend: 0x0, symName: __ZNSt3__117__compressed_pairINS_15__tree_end_nodeIPNS_16__tree_node_baseIPvEEEENS_9allocatorINS_11__tree_nodeINS_12__value_typeINS_12basic_stringIcNS_11char_traitsIcEENS7_IcEEEEP4CellEES3_EEEEE6secondB8ue170006Ev, symObjAddr: 0x15C40, symBinAddr: 0x100019B68, symSize: 0x24 }
  - { offsetInCU: 0x40889, offset: 0x40889, size: 0x8, addend: 0x0, symName: __ZNSt3__122__compressed_pair_elemINS_9allocatorINS_11__tree_nodeINS_12__value_typeINS_12basic_stringIcNS_11char_traitsIcEENS1_IcEEEEP4CellEEPvEEEELi1ELb1EE5__getB8ue170006Ev, symObjAddr: 0x15C64, symBinAddr: 0x100019B8C, symSize: 0x14 }
  - { offsetInCU: 0x408AF, offset: 0x408AF, size: 0x8, addend: 0x0, symName: __ZNSt3__14pairIKNS_12basic_stringIcNS_11char_traitsIcEENS_9allocatorIcEEEEP4CellED1Ev, symObjAddr: 0x15C78, symBinAddr: 0x100019BA0, symSize: 0x2C }
  - { offsetInCU: 0x408DB, offset: 0x408DB, size: 0x8, addend: 0x0, symName: __ZNSt3__14pairIKNS_12basic_stringIcNS_11char_traitsIcEENS_9allocatorIcEEEEP4CellED2Ev, symObjAddr: 0x15CA4, symBinAddr: 0x100019BCC, symSize: 0x2C }
  - { offsetInCU: 0x40907, offset: 0x40907, size: 0x8, addend: 0x0, symName: __ZNSt3__112__value_typeINS_12basic_stringIcNS_11char_traitsIcEENS_9allocatorIcEEEEP4CellE11__get_valueB8ue170006Ev, symObjAddr: 0x15CD0, symBinAddr: 0x100019BF8, symSize: 0x14 }
  - { offsetInCU: 0x4092D, offset: 0x4092D, size: 0x8, addend: 0x0, symName: __ZNSt3__19allocatorINS_11__tree_nodeINS_12__value_typeINS_12basic_stringIcNS_11char_traitsIcEENS0_IcEEEEP4CellEEPvEEE10deallocateB8ue170006EPSC_m, symObjAddr: 0x15CE4, symBinAddr: 0x100019C0C, symSize: 0x40 }
  - { offsetInCU: 0x4096F, offset: 0x4096F, size: 0x8, addend: 0x0, symName: __ZNKSt3__16__treeINS_12__value_typeINS_12basic_stringIcNS_11char_traitsIcEENS_9allocatorIcEEEEP4CellEENS_19__map_value_compareIS7_SA_NS_4lessIS7_EELb1EEENS5_ISA_EEE10__end_nodeB8ue170006Ev, symObjAddr: 0x15D24, symBinAddr: 0x100019C4C, symSize: 0x2C }
  - { offsetInCU: 0x40995, offset: 0x40995, size: 0x8, addend: 0x0, symName: __ZNKSt3__117__compressed_pairINS_15__tree_end_nodeIPNS_16__tree_node_baseIPvEEEENS_9allocatorINS_11__tree_nodeINS_12__value_typeINS_12basic_stringIcNS_11char_traitsIcEENS7_IcEEEEP4CellEES3_EEEEE5firstB8ue170006Ev, symObjAddr: 0x15D50, symBinAddr: 0x100019C78, symSize: 0x24 }
  - { offsetInCU: 0x409BB, offset: 0x409BB, size: 0x8, addend: 0x0, symName: __ZNSt3__16vectorI4CellNS_9allocatorIS1_EEE11__make_iterB8ue170006EPS1_, symObjAddr: 0x15D74, symBinAddr: 0x100019C9C, symSize: 0x30 }
  - { offsetInCU: 0x409F0, offset: 0x409F0, size: 0x8, addend: 0x0, symName: __ZNSt3__111__wrap_iterIP4CellEC1B8ue170006ES2_, symObjAddr: 0x15DA4, symBinAddr: 0x100019CCC, symSize: 0x34 }
  - { offsetInCU: 0x40A28, offset: 0x40A28, size: 0x8, addend: 0x0, symName: __ZNSt3__111__wrap_iterIP4CellEC2B8ue170006ES2_, symObjAddr: 0x15DD8, symBinAddr: 0x100019D00, symSize: 0x20 }
  - { offsetInCU: 0x40A60, offset: 0x40A60, size: 0x8, addend: 0x0, symName: __ZNSt3__16__treeINS_12__value_typeINS_12basic_stringIcNS_11char_traitsIcEENS_9allocatorIcEEEE8CellTypeEENS_19__map_value_compareIS7_S9_NS_4lessIS7_EELb1EEENS5_IS9_EEE25__emplace_unique_key_argsIS7_JRKNS_21piecewise_construct_tENS_5tupleIJRKS7_EEENSK_IJEEEEEENS_4pairINS_15__tree_iteratorIS9_PNS_11__tree_nodeIS9_PvEElEEbEERKT_DpOT0_, symObjAddr: 0x15DF8, symBinAddr: 0x100019D20, symSize: 0x100 }
  - { offsetInCU: 0x40B36, offset: 0x40B36, size: 0x8, addend: 0x0, symName: __ZNSt3__16__treeINS_12__value_typeINS_12basic_stringIcNS_11char_traitsIcEENS_9allocatorIcEEEE8CellTypeEENS_19__map_value_compareIS7_S9_NS_4lessIS7_EELb1EEENS5_IS9_EEE12__find_equalIS7_EERPNS_16__tree_node_baseIPvEERPNS_15__tree_end_nodeISK_EERKT_, symObjAddr: 0x15EF8, symBinAddr: 0x100019E20, symSize: 0x184 }
  - { offsetInCU: 0x40BA3, offset: 0x40BA3, size: 0x8, addend: 0x0, symName: __ZNSt3__16__treeINS_12__value_typeINS_12basic_stringIcNS_11char_traitsIcEENS_9allocatorIcEEEE8CellTypeEENS_19__map_value_compareIS7_S9_NS_4lessIS7_EELb1EEENS5_IS9_EEE16__construct_nodeIJRKNS_21piecewise_construct_tENS_5tupleIJRKS7_EEENSK_IJEEEEEENS_10unique_ptrINS_11__tree_nodeIS9_PvEENS_22__tree_node_destructorINS5_ISS_EEEEEEDpOT_, symObjAddr: 0x1607C, symBinAddr: 0x100019FA4, symSize: 0x120 }
  - { offsetInCU: 0x40C2C, offset: 0x40C2C, size: 0x8, addend: 0x0, symName: __ZNSt3__16__treeINS_12__value_typeINS_12basic_stringIcNS_11char_traitsIcEENS_9allocatorIcEEEE8CellTypeEENS_19__map_value_compareIS7_S9_NS_4lessIS7_EELb1EEENS5_IS9_EEE16__insert_node_atEPNS_15__tree_end_nodeIPNS_16__tree_node_baseIPvEEEERSK_SK_, symObjAddr: 0x1619C, symBinAddr: 0x10001A0C4, symSize: 0xCC }
  - { offsetInCU: 0x40C81, offset: 0x40C81, size: 0x8, addend: 0x0, symName: __ZNKSt3__110unique_ptrINS_11__tree_nodeINS_12__value_typeINS_12basic_stringIcNS_11char_traitsIcEENS_9allocatorIcEEEE8CellTypeEEPvEENS_22__tree_node_destructorINS6_ISC_EEEEE3getB8ue170006Ev, symObjAddr: 0x16268, symBinAddr: 0x10001A190, symSize: 0x28 }
  - { offsetInCU: 0x40CA7, offset: 0x40CA7, size: 0x8, addend: 0x0, symName: __ZNSt3__110unique_ptrINS_11__tree_nodeINS_12__value_typeINS_12basic_stringIcNS_11char_traitsIcEENS_9allocatorIcEEEE8CellTypeEEPvEENS_22__tree_node_destructorINS6_ISC_EEEEE7releaseB8ue170006Ev, symObjAddr: 0x16290, symBinAddr: 0x10001A1B8, symSize: 0x44 }
  - { offsetInCU: 0x40CDC, offset: 0x40CDC, size: 0x8, addend: 0x0, symName: __ZNSt3__110unique_ptrINS_11__tree_nodeINS_12__value_typeINS_12basic_stringIcNS_11char_traitsIcEENS_9allocatorIcEEEE8CellTypeEEPvEENS_22__tree_node_destructorINS6_ISC_EEEEED1B8ue170006Ev, symObjAddr: 0x162D4, symBinAddr: 0x10001A1FC, symSize: 0x2C }
  - { offsetInCU: 0x40D06, offset: 0x40D06, size: 0x8, addend: 0x0, symName: __ZNSt3__115__tree_iteratorINS_12__value_typeINS_12basic_stringIcNS_11char_traitsIcEENS_9allocatorIcEEEE8CellTypeEEPNS_11__tree_nodeIS9_PvEElEC1B8ue170006ESD_, symObjAddr: 0x16300, symBinAddr: 0x10001A228, symSize: 0x34 }
  - { offsetInCU: 0x40D45, offset: 0x40D45, size: 0x8, addend: 0x0, symName: __ZNSt3__14pairINS_15__tree_iteratorINS_12__value_typeINS_12basic_stringIcNS_11char_traitsIcEENS_9allocatorIcEEEE8CellTypeEEPNS_11__tree_nodeISA_PvEElEEbEC1B8ue170006ISF_RbLSC_0EEEOT_OT0_, symObjAddr: 0x16334, symBinAddr: 0x10001A25C, symSize: 0x3C }
  - { offsetInCU: 0x40DA3, offset: 0x40DA3, size: 0x8, addend: 0x0, symName: __ZNKSt3__16__treeINS_12__value_typeINS_12basic_stringIcNS_11char_traitsIcEENS_9allocatorIcEEEE8CellTypeEENS_19__map_value_compareIS7_S9_NS_4lessIS7_EELb1EEENS5_IS9_EEE10__root_ptrB8ue170006Ev, symObjAddr: 0x16370, symBinAddr: 0x10001A298, symSize: 0x24 }
  - { offsetInCU: 0x40DC9, offset: 0x40DC9, size: 0x8, addend: 0x0, symName: __ZNSt3__116allocator_traitsINS_9allocatorINS_11__tree_nodeINS_12__value_typeINS_12basic_stringIcNS_11char_traitsIcEENS1_IcEEEE8CellTypeEEPvEEEEE8allocateB8ue170006ERSD_m, symObjAddr: 0x16394, symBinAddr: 0x10001A2BC, symSize: 0x2C }
  - { offsetInCU: 0x40DFC, offset: 0x40DFC, size: 0x8, addend: 0x0, symName: __ZNSt3__122__tree_node_destructorINS_9allocatorINS_11__tree_nodeINS_12__value_typeINS_12basic_stringIcNS_11char_traitsIcEENS1_IcEEEE8CellTypeEEPvEEEEEC1B8ue170006ERSD_b, symObjAddr: 0x163C0, symBinAddr: 0x10001A2E8, symSize: 0x48 }
  - { offsetInCU: 0x40E4A, offset: 0x40E4A, size: 0x8, addend: 0x0, symName: __ZNSt3__110unique_ptrINS_11__tree_nodeINS_12__value_typeINS_12basic_stringIcNS_11char_traitsIcEENS_9allocatorIcEEEE8CellTypeEEPvEENS_22__tree_node_destructorINS6_ISC_EEEEEC1B8ue170006ILb1EvEEPSC_NS_16__dependent_typeINS_27__unique_ptr_deleter_sfinaeISF_EEXT_EE20__good_rval_ref_typeE, symObjAddr: 0x16408, symBinAddr: 0x10001A330, symSize: 0x3C }
  - { offsetInCU: 0x40E9B, offset: 0x40E9B, size: 0x8, addend: 0x0, symName: __ZNSt3__116allocator_traitsINS_9allocatorINS_11__tree_nodeINS_12__value_typeINS_12basic_stringIcNS_11char_traitsIcEENS1_IcEEEE8CellTypeEEPvEEEEE9constructB8ue170006INS_4pairIKS8_S9_EEJRKNS_21piecewise_construct_tENS_5tupleIJRSH_EEENSM_IJEEEEvEEvRSD_PT_DpOT0_, symObjAddr: 0x16444, symBinAddr: 0x10001A36C, symSize: 0x44 }
  - { offsetInCU: 0x40F1A, offset: 0x40F1A, size: 0x8, addend: 0x0, symName: __ZNKSt3__110unique_ptrINS_11__tree_nodeINS_12__value_typeINS_12basic_stringIcNS_11char_traitsIcEENS_9allocatorIcEEEE8CellTypeEEPvEENS_22__tree_node_destructorINS6_ISC_EEEEEptB8ue170006Ev, symObjAddr: 0x16488, symBinAddr: 0x10001A3B0, symSize: 0x28 }
  - { offsetInCU: 0x40F40, offset: 0x40F40, size: 0x8, addend: 0x0, symName: __ZNSt3__110unique_ptrINS_11__tree_nodeINS_12__value_typeINS_12basic_stringIcNS_11char_traitsIcEENS_9allocatorIcEEEE8CellTypeEEPvEENS_22__tree_node_destructorINS6_ISC_EEEEE11get_deleterB8ue170006Ev, symObjAddr: 0x164B0, symBinAddr: 0x10001A3D8, symSize: 0x24 }
  - { offsetInCU: 0x40F66, offset: 0x40F66, size: 0x8, addend: 0x0, symName: __ZNSt3__19allocatorINS_11__tree_nodeINS_12__value_typeINS_12basic_stringIcNS_11char_traitsIcEENS0_IcEEEE8CellTypeEEPvEEE8allocateB8ue170006Em, symObjAddr: 0x164D4, symBinAddr: 0x10001A3FC, symSize: 0x58 }
  - { offsetInCU: 0x40FA6, offset: 0x40FA6, size: 0x8, addend: 0x0, symName: __ZNSt3__116allocator_traitsINS_9allocatorINS_11__tree_nodeINS_12__value_typeINS_12basic_stringIcNS_11char_traitsIcEENS1_IcEEEE8CellTypeEEPvEEEEE8max_sizeB8ue170006ISD_vEEmRKSD_, symObjAddr: 0x1652C, symBinAddr: 0x10001A454, symSize: 0x24 }
  - { offsetInCU: 0x40FD4, offset: 0x40FD4, size: 0x8, addend: 0x0, symName: __ZNKSt3__19allocatorINS_11__tree_nodeINS_12__value_typeINS_12basic_stringIcNS_11char_traitsIcEENS0_IcEEEE8CellTypeEEPvEEE8max_sizeB8ue170006Ev, symObjAddr: 0x16550, symBinAddr: 0x10001A478, symSize: 0x14 }
  - { offsetInCU: 0x40FFA, offset: 0x40FFA, size: 0x8, addend: 0x0, symName: __ZNSt3__122__tree_node_destructorINS_9allocatorINS_11__tree_nodeINS_12__value_typeINS_12basic_stringIcNS_11char_traitsIcEENS1_IcEEEE8CellTypeEEPvEEEEEC2B8ue170006ERSD_b, symObjAddr: 0x16564, symBinAddr: 0x10001A48C, symSize: 0x38 }
  - { offsetInCU: 0x41042, offset: 0x41042, size: 0x8, addend: 0x0, symName: __ZNSt3__110unique_ptrINS_11__tree_nodeINS_12__value_typeINS_12basic_stringIcNS_11char_traitsIcEENS_9allocatorIcEEEE8CellTypeEEPvEENS_22__tree_node_destructorINS6_ISC_EEEEEC2B8ue170006ILb1EvEEPSC_NS_16__dependent_typeINS_27__unique_ptr_deleter_sfinaeISF_EEXT_EE20__good_rval_ref_typeE, symObjAddr: 0x1659C, symBinAddr: 0x10001A4C4, symSize: 0x48 }
  - { offsetInCU: 0x41093, offset: 0x41093, size: 0x8, addend: 0x0, symName: __ZNSt3__117__compressed_pairIPNS_11__tree_nodeINS_12__value_typeINS_12basic_stringIcNS_11char_traitsIcEENS_9allocatorIcEEEE8CellTypeEEPvEENS_22__tree_node_destructorINS6_ISC_EEEEEC1B8ue170006IRSD_SG_EEOT_OT0_, symObjAddr: 0x165E4, symBinAddr: 0x10001A50C, symSize: 0x3C }
  - { offsetInCU: 0x410EB, offset: 0x410EB, size: 0x8, addend: 0x0, symName: __ZNSt3__117__compressed_pairIPNS_11__tree_nodeINS_12__value_typeINS_12basic_stringIcNS_11char_traitsIcEENS_9allocatorIcEEEE8CellTypeEEPvEENS_22__tree_node_destructorINS6_ISC_EEEEEC2B8ue170006IRSD_SG_EEOT_OT0_, symObjAddr: 0x16620, symBinAddr: 0x10001A548, symSize: 0x48 }
  - { offsetInCU: 0x41143, offset: 0x41143, size: 0x8, addend: 0x0, symName: __ZNSt3__122__compressed_pair_elemIPNS_11__tree_nodeINS_12__value_typeINS_12basic_stringIcNS_11char_traitsIcEENS_9allocatorIcEEEE8CellTypeEEPvEELi0ELb0EEC2B8ue170006IRSD_vEEOT_, symObjAddr: 0x16668, symBinAddr: 0x10001A590, symSize: 0x24 }
  - { offsetInCU: 0x41185, offset: 0x41185, size: 0x8, addend: 0x0, symName: __ZNSt3__122__compressed_pair_elemINS_22__tree_node_destructorINS_9allocatorINS_11__tree_nodeINS_12__value_typeINS_12basic_stringIcNS_11char_traitsIcEENS2_IcEEEE8CellTypeEEPvEEEEEELi1ELb0EEC2B8ue170006ISF_vEEOT_, symObjAddr: 0x1668C, symBinAddr: 0x10001A5B4, symSize: 0x24 }
  - { offsetInCU: 0x411C7, offset: 0x411C7, size: 0x8, addend: 0x0, symName: __ZNSt3__19allocatorINS_11__tree_nodeINS_12__value_typeINS_12basic_stringIcNS_11char_traitsIcEENS0_IcEEEE8CellTypeEEPvEEE9constructB8ue170006INS_4pairIKS7_S8_EEJRKNS_21piecewise_construct_tENS_5tupleIJRSF_EEENSK_IJEEEEEEvPT_DpOT0_, symObjAddr: 0x166B0, symBinAddr: 0x10001A5D8, symSize: 0x44 }
  - { offsetInCU: 0x41243, offset: 0x41243, size: 0x8, addend: 0x0, symName: __ZNSt3__14pairIKNS_12basic_stringIcNS_11char_traitsIcEENS_9allocatorIcEEEE8CellTypeEC1B8ue170006IJRS7_EJEEENS_21piecewise_construct_tENS_5tupleIJDpT_EEENSD_IJDpT0_EEE, symObjAddr: 0x166F4, symBinAddr: 0x10001A61C, symSize: 0x3C }
  - { offsetInCU: 0x412AA, offset: 0x412AA, size: 0x8, addend: 0x0, symName: __ZNSt3__14pairIKNS_12basic_stringIcNS_11char_traitsIcEENS_9allocatorIcEEEE8CellTypeEC1B8ue170006IJRS7_EJEJLm0EEJEEENS_21piecewise_construct_tERNS_5tupleIJDpT_EEERNSD_IJDpT0_EEENS_15__tuple_indicesIJXspT1_EEEENSM_IJXspT2_EEEE, symObjAddr: 0x16730, symBinAddr: 0x10001A658, symSize: 0x3C }
  - { offsetInCU: 0x4133A, offset: 0x4133A, size: 0x8, addend: 0x0, symName: __ZNSt3__14pairIKNS_12basic_stringIcNS_11char_traitsIcEENS_9allocatorIcEEEE8CellTypeEC2B8ue170006IJRS7_EJEJLm0EEJEEENS_21piecewise_construct_tERNS_5tupleIJDpT_EEERNSD_IJDpT0_EEENS_15__tuple_indicesIJXspT1_EEEENSM_IJXspT2_EEEE, symObjAddr: 0x1676C, symBinAddr: 0x10001A694, symSize: 0x64 }
  - { offsetInCU: 0x413CA, offset: 0x413CA, size: 0x8, addend: 0x0, symName: __ZN8CellTypeC1Ev, symObjAddr: 0x167D0, symBinAddr: 0x10001A6F8, symSize: 0x2C }
  - { offsetInCU: 0x413F6, offset: 0x413F6, size: 0x8, addend: 0x0, symName: __ZN8CellTypeC2Ev, symObjAddr: 0x167FC, symBinAddr: 0x10001A724, symSize: 0x40 }
  - { offsetInCU: 0x41422, offset: 0x41422, size: 0x8, addend: 0x0, symName: __ZNSt3__16vectorINS_4pairINS_12basic_stringIcNS_11char_traitsIcEENS_9allocatorIcEEEEdEENS5_IS8_EEEC1B8ue170006Ev, symObjAddr: 0x1683C, symBinAddr: 0x10001A764, symSize: 0x2C }
  - { offsetInCU: 0x4144C, offset: 0x4144C, size: 0x8, addend: 0x0, symName: __ZNSt3__16vectorINS_4pairINS_12basic_stringIcNS_11char_traitsIcEENS_9allocatorIcEEEEdEENS5_IS8_EEEC2B8ue170006Ev, symObjAddr: 0x16868, symBinAddr: 0x10001A790, symSize: 0x4C }
  - { offsetInCU: 0x41476, offset: 0x41476, size: 0x8, addend: 0x0, symName: __ZNSt3__117__compressed_pairIPNS_4pairINS_12basic_stringIcNS_11char_traitsIcEENS_9allocatorIcEEEEdEENS5_IS8_EEEC1B8ue170006IDnNS_18__default_init_tagEEEOT_OT0_, symObjAddr: 0x168B4, symBinAddr: 0x10001A7DC, symSize: 0x3C }
  - { offsetInCU: 0x414CE, offset: 0x414CE, size: 0x8, addend: 0x0, symName: __ZNSt3__117__compressed_pairIPNS_4pairINS_12basic_stringIcNS_11char_traitsIcEENS_9allocatorIcEEEEdEENS5_IS8_EEEC2B8ue170006IDnNS_18__default_init_tagEEEOT_OT0_, symObjAddr: 0x168F0, symBinAddr: 0x10001A818, symSize: 0x40 }
  - { offsetInCU: 0x41526, offset: 0x41526, size: 0x8, addend: 0x0, symName: __ZNSt3__122__compressed_pair_elemIPNS_4pairINS_12basic_stringIcNS_11char_traitsIcEENS_9allocatorIcEEEEdEELi0ELb0EEC2B8ue170006IDnvEEOT_, symObjAddr: 0x16930, symBinAddr: 0x10001A858, symSize: 0x1C }
  - { offsetInCU: 0x41568, offset: 0x41568, size: 0x8, addend: 0x0, symName: __ZNSt3__122__compressed_pair_elemINS_9allocatorINS_4pairINS_12basic_stringIcNS_11char_traitsIcEENS1_IcEEEEdEEEELi1ELb1EEC2B8ue170006ENS_18__default_init_tagE, symObjAddr: 0x1694C, symBinAddr: 0x10001A874, symSize: 0x2C }
  - { offsetInCU: 0x4159C, offset: 0x4159C, size: 0x8, addend: 0x0, symName: __ZNSt3__19allocatorINS_4pairINS_12basic_stringIcNS_11char_traitsIcEENS0_IcEEEEdEEEC2B8ue170006Ev, symObjAddr: 0x16978, symBinAddr: 0x10001A8A0, symSize: 0x2C }
  - { offsetInCU: 0x415C6, offset: 0x415C6, size: 0x8, addend: 0x0, symName: __ZNSt3__116__non_trivial_ifILb1ENS_9allocatorINS_4pairINS_12basic_stringIcNS_11char_traitsIcEENS1_IcEEEEdEEEEEC2B8ue170006Ev, symObjAddr: 0x169A4, symBinAddr: 0x10001A8CC, symSize: 0x14 }
  - { offsetInCU: 0x415F0, offset: 0x415F0, size: 0x8, addend: 0x0, symName: __ZNKSt3__117__compressed_pairIPNS_11__tree_nodeINS_12__value_typeINS_12basic_stringIcNS_11char_traitsIcEENS_9allocatorIcEEEE8CellTypeEEPvEENS_22__tree_node_destructorINS6_ISC_EEEEE5firstB8ue170006Ev, symObjAddr: 0x169B8, symBinAddr: 0x10001A8E0, symSize: 0x24 }
  - { offsetInCU: 0x41616, offset: 0x41616, size: 0x8, addend: 0x0, symName: __ZNKSt3__122__compressed_pair_elemIPNS_11__tree_nodeINS_12__value_typeINS_12basic_stringIcNS_11char_traitsIcEENS_9allocatorIcEEEE8CellTypeEEPvEELi0ELb0EE5__getB8ue170006Ev, symObjAddr: 0x169DC, symBinAddr: 0x10001A904, symSize: 0x14 }
  - { offsetInCU: 0x4163C, offset: 0x4163C, size: 0x8, addend: 0x0, symName: __ZNSt3__117__compressed_pairIPNS_11__tree_nodeINS_12__value_typeINS_12basic_stringIcNS_11char_traitsIcEENS_9allocatorIcEEEE8CellTypeEEPvEENS_22__tree_node_destructorINS6_ISC_EEEEE6secondB8ue170006Ev, symObjAddr: 0x169F0, symBinAddr: 0x10001A918, symSize: 0x28 }
  - { offsetInCU: 0x41662, offset: 0x41662, size: 0x8, addend: 0x0, symName: __ZNSt3__122__compressed_pair_elemINS_22__tree_node_destructorINS_9allocatorINS_11__tree_nodeINS_12__value_typeINS_12basic_stringIcNS_11char_traitsIcEENS2_IcEEEE8CellTypeEEPvEEEEEELi1ELb0EE5__getB8ue170006Ev, symObjAddr: 0x16A18, symBinAddr: 0x10001A940, symSize: 0x14 }
  - { offsetInCU: 0x41688, offset: 0x41688, size: 0x8, addend: 0x0, symName: __ZNSt3__16__treeINS_12__value_typeINS_12basic_stringIcNS_11char_traitsIcEENS_9allocatorIcEEEE8CellTypeEENS_19__map_value_compareIS7_S9_NS_4lessIS7_EELb1EEENS5_IS9_EEE4sizeB8ue170006Ev, symObjAddr: 0x16A2C, symBinAddr: 0x10001A954, symSize: 0x28 }
  - { offsetInCU: 0x416AE, offset: 0x416AE, size: 0x8, addend: 0x0, symName: __ZNSt3__117__compressed_pairImNS_19__map_value_compareINS_12basic_stringIcNS_11char_traitsIcEENS_9allocatorIcEEEENS_12__value_typeIS7_8CellTypeEENS_4lessIS7_EELb1EEEE5firstB8ue170006Ev, symObjAddr: 0x16A54, symBinAddr: 0x10001A97C, symSize: 0x24 }
  - { offsetInCU: 0x416D4, offset: 0x416D4, size: 0x8, addend: 0x0, symName: __ZNSt3__117__compressed_pairIPNS_11__tree_nodeINS_12__value_typeINS_12basic_stringIcNS_11char_traitsIcEENS_9allocatorIcEEEE8CellTypeEEPvEENS_22__tree_node_destructorINS6_ISC_EEEEE5firstB8ue170006Ev, symObjAddr: 0x16A78, symBinAddr: 0x10001A9A0, symSize: 0x24 }
  - { offsetInCU: 0x416FA, offset: 0x416FA, size: 0x8, addend: 0x0, symName: __ZNSt3__122__compressed_pair_elemIPNS_11__tree_nodeINS_12__value_typeINS_12basic_stringIcNS_11char_traitsIcEENS_9allocatorIcEEEE8CellTypeEEPvEELi0ELb0EE5__getB8ue170006Ev, symObjAddr: 0x16A9C, symBinAddr: 0x10001A9C4, symSize: 0x14 }
  - { offsetInCU: 0x41720, offset: 0x41720, size: 0x8, addend: 0x0, symName: __ZNSt3__110unique_ptrINS_11__tree_nodeINS_12__value_typeINS_12basic_stringIcNS_11char_traitsIcEENS_9allocatorIcEEEE8CellTypeEEPvEENS_22__tree_node_destructorINS6_ISC_EEEEED2B8ue170006Ev, symObjAddr: 0x16AB0, symBinAddr: 0x10001A9D8, symSize: 0x30 }
  - { offsetInCU: 0x4174A, offset: 0x4174A, size: 0x8, addend: 0x0, symName: __ZNSt3__110unique_ptrINS_11__tree_nodeINS_12__value_typeINS_12basic_stringIcNS_11char_traitsIcEENS_9allocatorIcEEEE8CellTypeEEPvEENS_22__tree_node_destructorINS6_ISC_EEEEE5resetB8ue170006EPSC_, symObjAddr: 0x16AE0, symBinAddr: 0x10001AA08, symSize: 0x78 }
  - { offsetInCU: 0x4178E, offset: 0x4178E, size: 0x8, addend: 0x0, symName: __ZNSt3__122__tree_node_destructorINS_9allocatorINS_11__tree_nodeINS_12__value_typeINS_12basic_stringIcNS_11char_traitsIcEENS1_IcEEEE8CellTypeEEPvEEEEEclB8ue170006EPSC_, symObjAddr: 0x16B58, symBinAddr: 0x10001AA80, symSize: 0x94 }
  - { offsetInCU: 0x417C3, offset: 0x417C3, size: 0x8, addend: 0x0, symName: __ZNSt3__115__tree_iteratorINS_12__value_typeINS_12basic_stringIcNS_11char_traitsIcEENS_9allocatorIcEEEE8CellTypeEEPNS_11__tree_nodeIS9_PvEElEC2B8ue170006ESD_, symObjAddr: 0x16BEC, symBinAddr: 0x10001AB14, symSize: 0x20 }
  - { offsetInCU: 0x417FC, offset: 0x417FC, size: 0x8, addend: 0x0, symName: __ZNSt3__14pairINS_15__tree_iteratorINS_12__value_typeINS_12basic_stringIcNS_11char_traitsIcEENS_9allocatorIcEEEE8CellTypeEEPNS_11__tree_nodeISA_PvEElEEbEC2B8ue170006ISF_RbLSC_0EEEOT_OT0_, symObjAddr: 0x16C0C, symBinAddr: 0x10001AB34, symSize: 0x38 }
  - { offsetInCU: 0x41866, offset: 0x41866, size: 0x8, addend: 0x0, symName: __ZNSt3__116allocator_traitsINS_9allocatorIcEEE37select_on_container_copy_constructionB8ue170006IS2_vvEES2_RKS2_, symObjAddr: 0x16C44, symBinAddr: 0x10001AB6C, symSize: 0x10 }
  - { offsetInCU: 0x41895, offset: 0x41895, size: 0x8, addend: 0x0, symName: __ZNKSt3__112basic_stringIcNS_11char_traitsIcEENS_9allocatorIcEEE13get_allocatorB8ue170006Ev, symObjAddr: 0x16C54, symBinAddr: 0x10001AB7C, symSize: 0x24 }
  - { offsetInCU: 0x418BB, offset: 0x418BB, size: 0x8, addend: 0x0, symName: __ZNSt3__112basic_stringIcNS_11char_traitsIcEENS_9allocatorIcEEEC1B8ue170006ENS_24__uninitialized_size_tagEmRKS4_, symObjAddr: 0x16C78, symBinAddr: 0x10001ABA0, symSize: 0x3C }
  - { offsetInCU: 0x4190F, offset: 0x4190F, size: 0x8, addend: 0x0, symName: __ZNSt3__112basic_stringIcNS_11char_traitsIcEENS_9allocatorIcEEE13__get_pointerB8ue170006Ev, symObjAddr: 0x16CC8, symBinAddr: 0x10001ABF0, symSize: 0x54 }
  - { offsetInCU: 0x41935, offset: 0x41935, size: 0x8, addend: 0x0, symName: __ZNSt3__111char_traitsIcE4copyB8ue170006EPcPKcm, symObjAddr: 0x16D1C, symBinAddr: 0x10001AC44, symSize: 0x40 }
  - { offsetInCU: 0x41974, offset: 0x41974, size: 0x8, addend: 0x0, symName: __ZNSt3__111char_traitsIcE6assignB8ue170006EPcmc, symObjAddr: 0x16D5C, symBinAddr: 0x10001AC84, symSize: 0x44 }
  - { offsetInCU: 0x419B3, offset: 0x419B3, size: 0x8, addend: 0x0, symName: __ZNKSt3__112basic_stringIcNS_11char_traitsIcEENS_9allocatorIcEEE7__allocB8ue170006Ev, symObjAddr: 0x16DA0, symBinAddr: 0x10001ACC8, symSize: 0x24 }
  - { offsetInCU: 0x419D9, offset: 0x419D9, size: 0x8, addend: 0x0, symName: __ZNKSt3__117__compressed_pairINS_12basic_stringIcNS_11char_traitsIcEENS_9allocatorIcEEE5__repES5_E6secondB8ue170006Ev, symObjAddr: 0x16DC4, symBinAddr: 0x10001ACEC, symSize: 0x24 }
  - { offsetInCU: 0x419FF, offset: 0x419FF, size: 0x8, addend: 0x0, symName: __ZNKSt3__122__compressed_pair_elemINS_9allocatorIcEELi1ELb1EE5__getB8ue170006Ev, symObjAddr: 0x16DE8, symBinAddr: 0x10001AD10, symSize: 0x14 }
  - { offsetInCU: 0x41A25, offset: 0x41A25, size: 0x8, addend: 0x0, symName: __ZNSt3__112basic_stringIcNS_11char_traitsIcEENS_9allocatorIcEEEC2B8ue170006ENS_24__uninitialized_size_tagEmRKS4_, symObjAddr: 0x16DFC, symBinAddr: 0x10001AD24, symSize: 0x110 }
  - { offsetInCU: 0x41AA5, offset: 0x41AA5, size: 0x8, addend: 0x0, symName: __ZNSt3__117__compressed_pairINS_12basic_stringIcNS_11char_traitsIcEENS_9allocatorIcEEE5__repES5_EC1B8ue170006INS_18__default_init_tagERKS5_EEOT_OT0_, symObjAddr: 0x16F0C, symBinAddr: 0x10001AE34, symSize: 0x3C }
  - { offsetInCU: 0x41AFD, offset: 0x41AFD, size: 0x8, addend: 0x0, symName: __ZNKSt3__112basic_stringIcNS_11char_traitsIcEENS_9allocatorIcEEE8max_sizeB8ue170006Ev, symObjAddr: 0x16F48, symBinAddr: 0x10001AE70, symSize: 0xAC }
  - { offsetInCU: 0x41B4F, offset: 0x41B4F, size: 0x8, addend: 0x0, symName: __ZNKSt3__112basic_stringIcNS_11char_traitsIcEENS_9allocatorIcEEE20__throw_length_errorB8ue170006Ev, symObjAddr: 0x16FF4, symBinAddr: 0x10001AF1C, symSize: 0x1C }
  - { offsetInCU: 0x41B75, offset: 0x41B75, size: 0x8, addend: 0x0, symName: __ZNSt3__112basic_stringIcNS_11char_traitsIcEENS_9allocatorIcEEE13__fits_in_ssoB8ue170006Em, symObjAddr: 0x17010, symBinAddr: 0x10001AF38, symSize: 0x20 }
  - { offsetInCU: 0x41B99, offset: 0x41B99, size: 0x8, addend: 0x0, symName: __ZNSt3__112basic_stringIcNS_11char_traitsIcEENS_9allocatorIcEEE11__recommendB8ue170006Em, symObjAddr: 0x17030, symBinAddr: 0x10001AF58, symSize: 0x84 }
  - { offsetInCU: 0x41BCC, offset: 0x41BCC, size: 0x8, addend: 0x0, symName: __ZNSt3__116allocator_traitsINS_9allocatorIcEEE8allocateB8ue170006ERS2_m, symObjAddr: 0x170B4, symBinAddr: 0x10001AFDC, symSize: 0x2C }
  - { offsetInCU: 0x41BFF, offset: 0x41BFF, size: 0x8, addend: 0x0, symName: __ZNSt3__112basic_stringIcNS_11char_traitsIcEENS_9allocatorIcEEE7__allocB8ue170006Ev, symObjAddr: 0x170E0, symBinAddr: 0x10001B008, symSize: 0x24 }
  - { offsetInCU: 0x41C25, offset: 0x41C25, size: 0x8, addend: 0x0, symName: __ZNSt3__112basic_stringIcNS_11char_traitsIcEENS_9allocatorIcEEE16__begin_lifetimeB8ue170006EPcm, symObjAddr: 0x17104, symBinAddr: 0x10001B02C, symSize: 0x14 }
  - { offsetInCU: 0x41C58, offset: 0x41C58, size: 0x8, addend: 0x0, symName: __ZNSt3__112basic_stringIcNS_11char_traitsIcEENS_9allocatorIcEEE14__set_long_capB8ue170006Em, symObjAddr: 0x17118, symBinAddr: 0x10001B040, symSize: 0x70 }
  - { offsetInCU: 0x41C8D, offset: 0x41C8D, size: 0x8, addend: 0x0, symName: __ZNSt3__112basic_stringIcNS_11char_traitsIcEENS_9allocatorIcEEE18__set_long_pointerB8ue170006EPc, symObjAddr: 0x17188, symBinAddr: 0x10001B0B0, symSize: 0x38 }
  - { offsetInCU: 0x41CC2, offset: 0x41CC2, size: 0x8, addend: 0x0, symName: __ZNSt3__117__compressed_pairINS_12basic_stringIcNS_11char_traitsIcEENS_9allocatorIcEEE5__repES5_EC2B8ue170006INS_18__default_init_tagERKS5_EEOT_OT0_, symObjAddr: 0x171C0, symBinAddr: 0x10001B0E8, symSize: 0x40 }
  - { offsetInCU: 0x41D1A, offset: 0x41D1A, size: 0x8, addend: 0x0, symName: __ZNSt3__122__compressed_pair_elemINS_9allocatorIcEELi1ELb1EEC2B8ue170006IRKS2_vEEOT_, symObjAddr: 0x17200, symBinAddr: 0x10001B128, symSize: 0x18 }
  - { offsetInCU: 0x41D5C, offset: 0x41D5C, size: 0x8, addend: 0x0, symName: __ZNSt3__116allocator_traitsINS_9allocatorIcEEE8max_sizeB8ue170006IS2_vEEmRKS2_, symObjAddr: 0x17218, symBinAddr: 0x10001B140, symSize: 0x24 }
  - { offsetInCU: 0x41D8A, offset: 0x41D8A, size: 0x8, addend: 0x0, symName: __ZNSt3__114numeric_limitsImE3maxB8ue170006Ev, symObjAddr: 0x1723C, symBinAddr: 0x10001B164, symSize: 0x14 }
  - { offsetInCU: 0x41D9E, offset: 0x41D9E, size: 0x8, addend: 0x0, symName: __ZNKSt3__19allocatorIcE8max_sizeB8ue170006Ev, symObjAddr: 0x17250, symBinAddr: 0x10001B178, symSize: 0x14 }
  - { offsetInCU: 0x41DC4, offset: 0x41DC4, size: 0x8, addend: 0x0, symName: __ZNSt3__123__libcpp_numeric_limitsImLb1EE3maxB8ue170006Ev, symObjAddr: 0x17264, symBinAddr: 0x10001B18C, symSize: 0x8 }
  - { offsetInCU: 0x41DD8, offset: 0x41DD8, size: 0x8, addend: 0x0, symName: __ZNSt3__112basic_stringIcNS_11char_traitsIcEENS_9allocatorIcEEE10__align_itB8ue170006ILm16EEEmm, symObjAddr: 0x1726C, symBinAddr: 0x10001B194, symSize: 0x1C }
  - { offsetInCU: 0x41E06, offset: 0x41E06, size: 0x8, addend: 0x0, symName: __ZNSt3__19allocatorIcE8allocateB8ue170006Em, symObjAddr: 0x17288, symBinAddr: 0x10001B1B0, symSize: 0x58 }
  - { offsetInCU: 0x41E3A, offset: 0x41E3A, size: 0x8, addend: 0x0, symName: __ZNSt3__117__compressed_pairINS_12basic_stringIcNS_11char_traitsIcEENS_9allocatorIcEEE5__repES5_E6secondB8ue170006Ev, symObjAddr: 0x172E0, symBinAddr: 0x10001B208, symSize: 0x24 }
  - { offsetInCU: 0x41E60, offset: 0x41E60, size: 0x8, addend: 0x0, symName: __ZNSt3__122__compressed_pair_elemINS_9allocatorIcEELi1ELb1EE5__getB8ue170006Ev, symObjAddr: 0x17304, symBinAddr: 0x10001B22C, symSize: 0x14 }
  - { offsetInCU: 0x41EB0, offset: 0x41EB0, size: 0x8, addend: 0x0, symName: __ZNKSt3__114__copy_trivialclB8ue170006IKccLi0EEENS_4pairIPT_PT0_EES5_S5_S7_, symObjAddr: 0x17538, symBinAddr: 0x10001B460, symSize: 0x48 }
  - { offsetInCU: 0x41F3C, offset: 0x41F3C, size: 0x8, addend: 0x0, symName: __ZNSt3__14pairIPKcS2_EC1B8ue170006IS2_S2_LPv0EEEOT_OT0_, symObjAddr: 0x176A0, symBinAddr: 0x10001B5C8, symSize: 0x3C }
  - { offsetInCU: 0x41F9A, offset: 0x41F9A, size: 0x8, addend: 0x0, symName: __ZNSt3__14pairIPKcS2_EC2B8ue170006IS2_S2_LPv0EEEOT_OT0_, symObjAddr: 0x176DC, symBinAddr: 0x10001B604, symSize: 0x34 }
  - { offsetInCU: 0x41FF8, offset: 0x41FF8, size: 0x8, addend: 0x0, symName: __ZNSt3__118__unwrap_iter_implIPKcLb1EE8__unwrapB8ue170006ES2_, symObjAddr: 0x17710, symBinAddr: 0x10001B638, symSize: 0x24 }
  - { offsetInCU: 0x42027, offset: 0x42027, size: 0x8, addend: 0x0, symName: __ZNSt3__14pairIPKcPcEC1B8ue170006IRS2_S3_LPv0EEEOT_OT0_, symObjAddr: 0x17848, symBinAddr: 0x10001B770, symSize: 0x3C }
  - { offsetInCU: 0x42085, offset: 0x42085, size: 0x8, addend: 0x0, symName: __ZNSt3__14pairIPKcPcEC2B8ue170006IRS2_S3_LPv0EEEOT_OT0_, symObjAddr: 0x17884, symBinAddr: 0x10001B7AC, symSize: 0x34 }
  - { offsetInCU: 0x420E3, offset: 0x420E3, size: 0x8, addend: 0x0, symName: __ZNSt3__118__unwrap_iter_implIPcLb1EE8__unwrapB8ue170006ES1_, symObjAddr: 0x178B8, symBinAddr: 0x10001B7E0, symSize: 0x24 }
  - { offsetInCU: 0x42106, offset: 0x42106, size: 0x8, addend: 0x0, symName: __ZNSt3__14pairIPKcPcEC1B8ue170006IS2_S3_LPv0EEEOT_OT0_, symObjAddr: 0x178DC, symBinAddr: 0x10001B804, symSize: 0x3C }
  - { offsetInCU: 0x42164, offset: 0x42164, size: 0x8, addend: 0x0, symName: __ZNSt3__14pairIPKcPcEC2B8ue170006IS2_S3_LPv0EEEOT_OT0_, symObjAddr: 0x17918, symBinAddr: 0x10001B840, symSize: 0x34 }
  - { offsetInCU: 0x421C2, offset: 0x421C2, size: 0x8, addend: 0x0, symName: __ZNSt3__118__unwrap_iter_implIPKcLb1EE8__rewrapB8ue170006ES2_S2_, symObjAddr: 0x17988, symBinAddr: 0x10001B8B0, symSize: 0x48 }
  - { offsetInCU: 0x421F3, offset: 0x421F3, size: 0x8, addend: 0x0, symName: __ZNSt3__118__unwrap_iter_implIPcLb1EE8__rewrapB8ue170006ES1_S1_, symObjAddr: 0x179D0, symBinAddr: 0x10001B8F8, symSize: 0x48 }
  - { offsetInCU: 0x42224, offset: 0x42224, size: 0x8, addend: 0x0, symName: __ZNSt3__112basic_stringIcNS_11char_traitsIcEENS_9allocatorIcEEE6appendB8ue170006ERKS5_, symObjAddr: 0x17AD4, symBinAddr: 0x10001B9FC, symSize: 0x4C }
  - { offsetInCU: 0x42259, offset: 0x42259, size: 0x8, addend: 0x0, symName: __ZNSt3__16__treeINS_12__value_typeINS_12basic_stringIcNS_11char_traitsIcEENS_9allocatorIcEEEEP4CellEENS_19__map_value_compareIS7_SA_NS_4lessIS7_EELb1EEENS5_ISA_EEE4findIS7_EENS_15__tree_iteratorISA_PNS_11__tree_nodeISA_PvEElEERKT_, symObjAddr: 0x17B20, symBinAddr: 0x10001BA48, symSize: 0xF8 }
  - { offsetInCU: 0x422A8, offset: 0x422A8, size: 0x8, addend: 0x0, symName: __ZNSt3__114__map_iteratorINS_15__tree_iteratorINS_12__value_typeINS_12basic_stringIcNS_11char_traitsIcEENS_9allocatorIcEEEEP4CellEEPNS_11__tree_nodeISB_PvEElEEEC1B8ue170006ESG_, symObjAddr: 0x17C18, symBinAddr: 0x10001BB40, symSize: 0x34 }
  - { offsetInCU: 0x422E1, offset: 0x422E1, size: 0x8, addend: 0x0, symName: __ZNSt3__16__treeINS_12__value_typeINS_12basic_stringIcNS_11char_traitsIcEENS_9allocatorIcEEEEP4CellEENS_19__map_value_compareIS7_SA_NS_4lessIS7_EELb1EEENS5_ISA_EEE13__lower_boundIS7_EENS_15__tree_iteratorISA_PNS_11__tree_nodeISA_PvEElEERKT_SM_PNS_15__tree_end_nodeIPNS_16__tree_node_baseISK_EEEE, symObjAddr: 0x17C4C, symBinAddr: 0x10001BB74, symSize: 0xA4 }
  - { offsetInCU: 0x4233F, offset: 0x4233F, size: 0x8, addend: 0x0, symName: __ZNSt3__16__treeINS_12__value_typeINS_12basic_stringIcNS_11char_traitsIcEENS_9allocatorIcEEEEP4CellEENS_19__map_value_compareIS7_SA_NS_4lessIS7_EELb1EEENS5_ISA_EEE3endB8ue170006Ev, symObjAddr: 0x17D24, symBinAddr: 0x10001BC4C, symSize: 0x34 }
  - { offsetInCU: 0x42365, offset: 0x42365, size: 0x8, addend: 0x0, symName: __ZNSt3__16__treeINS_12__value_typeINS_12basic_stringIcNS_11char_traitsIcEENS_9allocatorIcEEEEP4CellEENS_19__map_value_compareIS7_SA_NS_4lessIS7_EELb1EEENS5_ISA_EEE10value_compB8ue170006Ev, symObjAddr: 0x17D58, symBinAddr: 0x10001BC80, symSize: 0x28 }
  - { offsetInCU: 0x4238B, offset: 0x4238B, size: 0x8, addend: 0x0, symName: __ZNKSt3__119__map_value_compareINS_12basic_stringIcNS_11char_traitsIcEENS_9allocatorIcEEEENS_12__value_typeIS6_P4CellEENS_4lessIS6_EELb1EEclB8ue170006ERKS6_RKSA_, symObjAddr: 0x17D80, symBinAddr: 0x10001BCA8, symSize: 0x50 }
  - { offsetInCU: 0x423CF, offset: 0x423CF, size: 0x8, addend: 0x0, symName: __ZNKSt3__115__tree_iteratorINS_12__value_typeINS_12basic_stringIcNS_11char_traitsIcEENS_9allocatorIcEEEEP4CellEEPNS_11__tree_nodeISA_PvEElEdeB8ue170006Ev, symObjAddr: 0x17DD0, symBinAddr: 0x10001BCF8, symSize: 0x28 }
  - { offsetInCU: 0x423F5, offset: 0x423F5, size: 0x8, addend: 0x0, symName: __ZNKSt3__119__map_value_compareINS_12basic_stringIcNS_11char_traitsIcEENS_9allocatorIcEEEENS_12__value_typeIS6_P4CellEENS_4lessIS6_EELb1EEclB8ue170006ERKSA_RKS6_, symObjAddr: 0x17DF8, symBinAddr: 0x10001BD20, symSize: 0x48 }
  - { offsetInCU: 0x42439, offset: 0x42439, size: 0x8, addend: 0x0, symName: __ZNSt3__115__tree_iteratorINS_12__value_typeINS_12basic_stringIcNS_11char_traitsIcEENS_9allocatorIcEEEEP4CellEEPNS_11__tree_nodeISA_PvEElEC1B8ue170006EPNS_15__tree_end_nodeIPNS_16__tree_node_baseISC_EEEE, symObjAddr: 0x17E40, symBinAddr: 0x10001BD68, symSize: 0x34 }
  - { offsetInCU: 0x42472, offset: 0x42472, size: 0x8, addend: 0x0, symName: __ZNKSt3__112__value_typeINS_12basic_stringIcNS_11char_traitsIcEENS_9allocatorIcEEEEP4CellE11__get_valueB8ue170006Ev, symObjAddr: 0x17E74, symBinAddr: 0x10001BD9C, symSize: 0x14 }
  - { offsetInCU: 0x42498, offset: 0x42498, size: 0x8, addend: 0x0, symName: __ZNSt3__115__tree_iteratorINS_12__value_typeINS_12basic_stringIcNS_11char_traitsIcEENS_9allocatorIcEEEEP4CellEEPNS_11__tree_nodeISA_PvEElEC2B8ue170006EPNS_15__tree_end_nodeIPNS_16__tree_node_baseISC_EEEE, symObjAddr: 0x17E88, symBinAddr: 0x10001BDB0, symSize: 0x20 }
  - { offsetInCU: 0x424D1, offset: 0x424D1, size: 0x8, addend: 0x0, symName: __ZNSt3__117__compressed_pairImNS_19__map_value_compareINS_12basic_stringIcNS_11char_traitsIcEENS_9allocatorIcEEEENS_12__value_typeIS7_P4CellEENS_4lessIS7_EELb1EEEE6secondB8ue170006Ev, symObjAddr: 0x17ED8, symBinAddr: 0x10001BE00, symSize: 0x24 }
  - { offsetInCU: 0x424F7, offset: 0x424F7, size: 0x8, addend: 0x0, symName: __ZNSt3__122__compressed_pair_elemINS_19__map_value_compareINS_12basic_stringIcNS_11char_traitsIcEENS_9allocatorIcEEEENS_12__value_typeIS7_P4CellEENS_4lessIS7_EELb1EEELi1ELb1EE5__getB8ue170006Ev, symObjAddr: 0x17EFC, symBinAddr: 0x10001BE24, symSize: 0x14 }
  - { offsetInCU: 0x4251D, offset: 0x4251D, size: 0x8, addend: 0x0, symName: __ZNKSt3__115__tree_iteratorINS_12__value_typeINS_12basic_stringIcNS_11char_traitsIcEENS_9allocatorIcEEEEP4CellEEPNS_11__tree_nodeISA_PvEElE8__get_npB8ue170006Ev, symObjAddr: 0x17F10, symBinAddr: 0x10001BE38, symSize: 0x18 }
  - { offsetInCU: 0x42543, offset: 0x42543, size: 0x8, addend: 0x0, symName: __ZNSt3__114__map_iteratorINS_15__tree_iteratorINS_12__value_typeINS_12basic_stringIcNS_11char_traitsIcEENS_9allocatorIcEEEEP4CellEEPNS_11__tree_nodeISB_PvEElEEEC2B8ue170006ESG_, symObjAddr: 0x17F28, symBinAddr: 0x10001BE50, symSize: 0x20 }
  - { offsetInCU: 0x4257C, offset: 0x4257C, size: 0x8, addend: 0x0, symName: __ZNSt3__16vectorIP4CellNS_9allocatorIS2_EEE9__end_capB8ue170006Ev, symObjAddr: 0x17F48, symBinAddr: 0x10001BE70, symSize: 0x28 }
  - { offsetInCU: 0x425A2, offset: 0x425A2, size: 0x8, addend: 0x0, symName: __ZNSt3__16vectorIP4CellNS_9allocatorIS2_EEE22__construct_one_at_endB8ue170006IJRS2_EEEvDpOT_, symObjAddr: 0x17F70, symBinAddr: 0x10001BE98, symSize: 0x90 }
  - { offsetInCU: 0x425F1, offset: 0x425F1, size: 0x8, addend: 0x0, symName: __ZNSt3__16vectorIP4CellNS_9allocatorIS2_EEE24__emplace_back_slow_pathIJRS2_EEEvDpOT_, symObjAddr: 0x18000, symBinAddr: 0x10001BF28, symSize: 0xD8 }
  - { offsetInCU: 0x42651, offset: 0x42651, size: 0x8, addend: 0x0, symName: __ZNSt3__117__compressed_pairIPP4CellNS_9allocatorIS2_EEE5firstB8ue170006Ev, symObjAddr: 0x180D8, symBinAddr: 0x10001C000, symSize: 0x24 }
  - { offsetInCU: 0x42677, offset: 0x42677, size: 0x8, addend: 0x0, symName: __ZNSt3__122__compressed_pair_elemIPP4CellLi0ELb0EE5__getB8ue170006Ev, symObjAddr: 0x180FC, symBinAddr: 0x10001C024, symSize: 0x14 }
  - { offsetInCU: 0x426BB, offset: 0x426BB, size: 0x8, addend: 0x0, symName: __ZNSt3__16vectorIP4CellNS_9allocatorIS2_EEE21_ConstructTransactionC1B8ue170006ERS5_m, symObjAddr: 0x18110, symBinAddr: 0x10001C038, symSize: 0x3C }
  - { offsetInCU: 0x42703, offset: 0x42703, size: 0x8, addend: 0x0, symName: __ZNSt3__116allocator_traitsINS_9allocatorIP4CellEEE9constructB8ue170006IS3_JRS3_EvEEvRS4_PT_DpOT0_, symObjAddr: 0x1814C, symBinAddr: 0x10001C074, symSize: 0x34 }
  - { offsetInCU: 0x4275A, offset: 0x4275A, size: 0x8, addend: 0x0, symName: __ZNSt3__16vectorIP4CellNS_9allocatorIS2_EEE7__allocB8ue170006Ev, symObjAddr: 0x18180, symBinAddr: 0x10001C0A8, symSize: 0x28 }
  - { offsetInCU: 0x42780, offset: 0x42780, size: 0x8, addend: 0x0, symName: __ZNSt3__16vectorIP4CellNS_9allocatorIS2_EEE21_ConstructTransactionD1B8ue170006Ev, symObjAddr: 0x181BC, symBinAddr: 0x10001C0E4, symSize: 0x2C }
  - { offsetInCU: 0x427AA, offset: 0x427AA, size: 0x8, addend: 0x0, symName: __ZNSt3__16vectorIP4CellNS_9allocatorIS2_EEE21_ConstructTransactionC2B8ue170006ERS5_m, symObjAddr: 0x181E8, symBinAddr: 0x10001C110, symSize: 0x44 }
  - { offsetInCU: 0x427F2, offset: 0x427F2, size: 0x8, addend: 0x0, symName: __ZNSt3__19allocatorIP4CellE9constructB8ue170006IS2_JRS2_EEEvPT_DpOT0_, symObjAddr: 0x1822C, symBinAddr: 0x10001C154, symSize: 0x28 }
  - { offsetInCU: 0x42848, offset: 0x42848, size: 0x8, addend: 0x0, symName: __ZNSt3__117__compressed_pairIPP4CellNS_9allocatorIS2_EEE6secondB8ue170006Ev, symObjAddr: 0x18254, symBinAddr: 0x10001C17C, symSize: 0x24 }
  - { offsetInCU: 0x4286E, offset: 0x4286E, size: 0x8, addend: 0x0, symName: __ZNSt3__122__compressed_pair_elemINS_9allocatorIP4CellEELi1ELb1EE5__getB8ue170006Ev, symObjAddr: 0x18278, symBinAddr: 0x10001C1A0, symSize: 0x14 }
  - { offsetInCU: 0x42894, offset: 0x42894, size: 0x8, addend: 0x0, symName: __ZNSt3__16vectorIP4CellNS_9allocatorIS2_EEE21_ConstructTransactionD2B8ue170006Ev, symObjAddr: 0x1828C, symBinAddr: 0x10001C1B4, symSize: 0x20 }
  - { offsetInCU: 0x428BE, offset: 0x428BE, size: 0x8, addend: 0x0, symName: __ZNKSt3__16vectorIP4CellNS_9allocatorIS2_EEE11__recommendB8ue170006Em, symObjAddr: 0x182AC, symBinAddr: 0x10001C1D4, symSize: 0xB4 }
  - { offsetInCU: 0x42913, offset: 0x42913, size: 0x8, addend: 0x0, symName: __ZNSt3__114__split_bufferIP4CellRNS_9allocatorIS2_EEEC1EmmS5_, symObjAddr: 0x18360, symBinAddr: 0x10001C288, symSize: 0x44 }
  - { offsetInCU: 0x42969, offset: 0x42969, size: 0x8, addend: 0x0, symName: __ZNSt3__114__split_bufferIP4CellRNS_9allocatorIS2_EEED1Ev, symObjAddr: 0x184B4, symBinAddr: 0x10001C3DC, symSize: 0x2C }
  - { offsetInCU: 0x42995, offset: 0x42995, size: 0x8, addend: 0x0, symName: __ZNKSt3__16vectorIP4CellNS_9allocatorIS2_EEE8max_sizeEv, symObjAddr: 0x184E0, symBinAddr: 0x10001C408, symSize: 0x60 }
  - { offsetInCU: 0x429BD, offset: 0x429BD, size: 0x8, addend: 0x0, symName: __ZNKSt3__16vectorIP4CellNS_9allocatorIS2_EEE20__throw_length_errorB8ue170006Ev, symObjAddr: 0x18540, symBinAddr: 0x10001C468, symSize: 0x1C }
  - { offsetInCU: 0x429E3, offset: 0x429E3, size: 0x8, addend: 0x0, symName: __ZNKSt3__16vectorIP4CellNS_9allocatorIS2_EEE8capacityB8ue170006Ev, symObjAddr: 0x1855C, symBinAddr: 0x10001C484, symSize: 0x40 }
  - { offsetInCU: 0x42A15, offset: 0x42A15, size: 0x8, addend: 0x0, symName: __ZNSt3__116allocator_traitsINS_9allocatorIP4CellEEE8max_sizeB8ue170006IS4_vEEmRKS4_, symObjAddr: 0x1859C, symBinAddr: 0x10001C4C4, symSize: 0x24 }
  - { offsetInCU: 0x42A43, offset: 0x42A43, size: 0x8, addend: 0x0, symName: __ZNKSt3__16vectorIP4CellNS_9allocatorIS2_EEE7__allocB8ue170006Ev, symObjAddr: 0x185C0, symBinAddr: 0x10001C4E8, symSize: 0x28 }
  - { offsetInCU: 0x42A69, offset: 0x42A69, size: 0x8, addend: 0x0, symName: __ZNKSt3__19allocatorIP4CellE8max_sizeB8ue170006Ev, symObjAddr: 0x185E8, symBinAddr: 0x10001C510, symSize: 0x14 }
  - { offsetInCU: 0x42A8F, offset: 0x42A8F, size: 0x8, addend: 0x0, symName: __ZNKSt3__117__compressed_pairIPP4CellNS_9allocatorIS2_EEE6secondB8ue170006Ev, symObjAddr: 0x185FC, symBinAddr: 0x10001C524, symSize: 0x24 }
  - { offsetInCU: 0x42AB5, offset: 0x42AB5, size: 0x8, addend: 0x0, symName: __ZNKSt3__122__compressed_pair_elemINS_9allocatorIP4CellEELi1ELb1EE5__getB8ue170006Ev, symObjAddr: 0x18620, symBinAddr: 0x10001C548, symSize: 0x14 }
  - { offsetInCU: 0x42ADB, offset: 0x42ADB, size: 0x8, addend: 0x0, symName: __ZNKSt3__16vectorIP4CellNS_9allocatorIS2_EEE9__end_capB8ue170006Ev, symObjAddr: 0x18634, symBinAddr: 0x10001C55C, symSize: 0x28 }
  - { offsetInCU: 0x42B01, offset: 0x42B01, size: 0x8, addend: 0x0, symName: __ZNKSt3__117__compressed_pairIPP4CellNS_9allocatorIS2_EEE5firstB8ue170006Ev, symObjAddr: 0x1865C, symBinAddr: 0x10001C584, symSize: 0x24 }
  - { offsetInCU: 0x42B27, offset: 0x42B27, size: 0x8, addend: 0x0, symName: __ZNKSt3__122__compressed_pair_elemIPP4CellLi0ELb0EE5__getB8ue170006Ev, symObjAddr: 0x18680, symBinAddr: 0x10001C5A8, symSize: 0x14 }
  - { offsetInCU: 0x42B4D, offset: 0x42B4D, size: 0x8, addend: 0x0, symName: __ZNSt3__114__split_bufferIP4CellRNS_9allocatorIS2_EEEC2EmmS5_, symObjAddr: 0x18694, symBinAddr: 0x10001C5BC, symSize: 0xD4 }
  - { offsetInCU: 0x42BC0, offset: 0x42BC0, size: 0x8, addend: 0x0, symName: __ZNSt3__117__compressed_pairIPP4CellRNS_9allocatorIS2_EEEC1B8ue170006IDnS6_EEOT_OT0_, symObjAddr: 0x18768, symBinAddr: 0x10001C690, symSize: 0x3C }
  - { offsetInCU: 0x42C18, offset: 0x42C18, size: 0x8, addend: 0x0, symName: __ZNSt3__114__split_bufferIP4CellRNS_9allocatorIS2_EEE7__allocB8ue170006Ev, symObjAddr: 0x187E4, symBinAddr: 0x10001C70C, symSize: 0x28 }
  - { offsetInCU: 0x42C3E, offset: 0x42C3E, size: 0x8, addend: 0x0, symName: __ZNSt3__114__split_bufferIP4CellRNS_9allocatorIS2_EEE9__end_capB8ue170006Ev, symObjAddr: 0x1880C, symBinAddr: 0x10001C734, symSize: 0x28 }
  - { offsetInCU: 0x42C64, offset: 0x42C64, size: 0x8, addend: 0x0, symName: __ZNSt3__117__compressed_pairIPP4CellRNS_9allocatorIS2_EEEC2B8ue170006IDnS6_EEOT_OT0_, symObjAddr: 0x18834, symBinAddr: 0x10001C75C, symSize: 0x48 }
  - { offsetInCU: 0x42CBC, offset: 0x42CBC, size: 0x8, addend: 0x0, symName: __ZNSt3__122__compressed_pair_elemIPP4CellLi0ELb0EEC2B8ue170006IDnvEEOT_, symObjAddr: 0x1887C, symBinAddr: 0x10001C7A4, symSize: 0x1C }
  - { offsetInCU: 0x42CFE, offset: 0x42CFE, size: 0x8, addend: 0x0, symName: __ZNSt3__122__compressed_pair_elemIRNS_9allocatorIP4CellEELi1ELb0EEC2B8ue170006IS5_vEEOT_, symObjAddr: 0x18898, symBinAddr: 0x10001C7C0, symSize: 0x20 }
  - { offsetInCU: 0x42D40, offset: 0x42D40, size: 0x8, addend: 0x0, symName: __ZNSt3__19allocatorIP4CellE8allocateB8ue170006Em, symObjAddr: 0x188B8, symBinAddr: 0x10001C7E0, symSize: 0x58 }
  - { offsetInCU: 0x42D74, offset: 0x42D74, size: 0x8, addend: 0x0, symName: __ZNSt3__117__compressed_pairIPP4CellRNS_9allocatorIS2_EEE6secondB8ue170006Ev, symObjAddr: 0x18910, symBinAddr: 0x10001C838, symSize: 0x28 }
  - { offsetInCU: 0x42D9A, offset: 0x42D9A, size: 0x8, addend: 0x0, symName: __ZNSt3__122__compressed_pair_elemIRNS_9allocatorIP4CellEELi1ELb0EE5__getB8ue170006Ev, symObjAddr: 0x18938, symBinAddr: 0x10001C860, symSize: 0x18 }
  - { offsetInCU: 0x42DC0, offset: 0x42DC0, size: 0x8, addend: 0x0, symName: __ZNSt3__117__compressed_pairIPP4CellRNS_9allocatorIS2_EEE5firstB8ue170006Ev, symObjAddr: 0x18950, symBinAddr: 0x10001C878, symSize: 0x24 }
  - { offsetInCU: 0x42DE6, offset: 0x42DE6, size: 0x8, addend: 0x0, symName: __ZNKSt3__16vectorIP4CellNS_9allocatorIS2_EEE17__annotate_deleteB8ue170006Ev, symObjAddr: 0x18974, symBinAddr: 0x10001C89C, symSize: 0xB8 }
  - { offsetInCU: 0x42E0C, offset: 0x42E0C, size: 0x8, addend: 0x0, symName: __ZNSt3__116reverse_iteratorIPP4CellEC1B8ue170006ES3_, symObjAddr: 0x18AA4, symBinAddr: 0x10001C9CC, symSize: 0x34 }
  - { offsetInCU: 0x42E44, offset: 0x42E44, size: 0x8, addend: 0x0, symName: __ZNKSt3__116reverse_iteratorIPP4CellE4baseB8ue170006Ev, symObjAddr: 0x18AD8, symBinAddr: 0x10001CA00, symSize: 0x18 }
  - { offsetInCU: 0x42E6A, offset: 0x42E6A, size: 0x8, addend: 0x0, symName: __ZNKSt3__16vectorIP4CellNS_9allocatorIS2_EEE14__annotate_newB8ue170006Em, symObjAddr: 0x18B2C, symBinAddr: 0x10001CA54, symSize: 0xAC }
  - { offsetInCU: 0x42E9F, offset: 0x42E9F, size: 0x8, addend: 0x0, symName: __ZNKSt3__16vectorIP4CellNS_9allocatorIS2_EEE31__annotate_contiguous_containerB8ue170006EPKvS7_S7_S7_, symObjAddr: 0x18BD8, symBinAddr: 0x10001CB00, symSize: 0x20 }
  - { offsetInCU: 0x42EF5, offset: 0x42EF5, size: 0x8, addend: 0x0, symName: __ZNKSt3__16vectorIP4CellNS_9allocatorIS2_EEE4dataB8ue170006Ev, symObjAddr: 0x18BF8, symBinAddr: 0x10001CB20, symSize: 0x28 }
  - { offsetInCU: 0x42F45, offset: 0x42F45, size: 0x8, addend: 0x0, symName: __ZNKSt3__111__move_loopINS_17_ClassicAlgPolicyEEclB8ue170006INS_16reverse_iteratorIPP4CellEES8_S8_EENS_4pairIT_T1_EESA_T0_SB_, symObjAddr: 0x18F10, symBinAddr: 0x10001CE38, symSize: 0xA0 }
  - { offsetInCU: 0x42FB0, offset: 0x42FB0, size: 0x8, addend: 0x0, symName: __ZNSt3__18_IterOpsINS_17_ClassicAlgPolicyEE11__iter_moveB8ue170006IRNS_16reverse_iteratorIPP4CellEEEENS_9enable_ifIXsr12is_referenceIDTdeclsr3stdE7declvalIRT_EEEEE5valueEDTclsr3stdE4movedeclsr3stdE7declvalISC_EEEEE4typeEOSB_, symObjAddr: 0x19144, symBinAddr: 0x10001D06C, symSize: 0x28 }
  - { offsetInCU: 0x42FDC, offset: 0x42FDC, size: 0x8, addend: 0x0, symName: __ZNKSt3__116reverse_iteratorIPP4CellEdeB8ue170006Ev, symObjAddr: 0x1916C, symBinAddr: 0x10001D094, symSize: 0x28 }
  - { offsetInCU: 0x43010, offset: 0x43010, size: 0x8, addend: 0x0, symName: __ZNSt3__116reverse_iteratorIPP4CellEppB8ue170006Ev, symObjAddr: 0x19194, symBinAddr: 0x10001D0BC, symSize: 0x20 }
  - { offsetInCU: 0x43036, offset: 0x43036, size: 0x8, addend: 0x0, symName: __ZNSt3__18_IterOpsINS_17_ClassicAlgPolicyEE25__validate_iter_referenceB8ue170006IRNS_16reverse_iteratorIPP4CellEEEEvv, symObjAddr: 0x191B4, symBinAddr: 0x10001D0DC, symSize: 0x4 }
  - { offsetInCU: 0x43054, offset: 0x43054, size: 0x8, addend: 0x0, symName: __ZNSt3__118__unwrap_iter_implINS_16reverse_iteratorIPP4CellEELb0EE8__unwrapB8ue170006ES5_, symObjAddr: 0x191B8, symBinAddr: 0x10001D0E0, symSize: 0x24 }
  - { offsetInCU: 0x4307D, offset: 0x4307D, size: 0x8, addend: 0x0, symName: __ZNSt3__14pairINS_16reverse_iteratorIPP4CellEES5_EC1B8ue170006IS5_S5_LPv0EEEOT_OT0_, symObjAddr: 0x191DC, symBinAddr: 0x10001D104, symSize: 0x3C }
  - { offsetInCU: 0x430DB, offset: 0x430DB, size: 0x8, addend: 0x0, symName: __ZNSt3__14pairINS_16reverse_iteratorIPP4CellEES5_EC2B8ue170006IS5_S5_LPv0EEEOT_OT0_, symObjAddr: 0x19218, symBinAddr: 0x10001D140, symSize: 0x34 }
  - { offsetInCU: 0x43139, offset: 0x43139, size: 0x8, addend: 0x0, symName: __ZNSt3__118__unwrap_iter_implINS_16reverse_iteratorIPP4CellEELb0EE8__rewrapB8ue170006ES5_S5_, symObjAddr: 0x1924C, symBinAddr: 0x10001D174, symSize: 0x2C }
  - { offsetInCU: 0x43166, offset: 0x43166, size: 0x8, addend: 0x0, symName: __ZNSt3__116reverse_iteratorIPP4CellEC2B8ue170006ES3_, symObjAddr: 0x19278, symBinAddr: 0x10001D1A0, symSize: 0x28 }
  - { offsetInCU: 0x4319E, offset: 0x4319E, size: 0x8, addend: 0x0, symName: __ZNSt3__114__split_bufferIP4CellRNS_9allocatorIS2_EEED2Ev, symObjAddr: 0x192A0, symBinAddr: 0x10001D1C8, symSize: 0x8C }
  - { offsetInCU: 0x431CA, offset: 0x431CA, size: 0x8, addend: 0x0, symName: __ZNSt3__114__split_bufferIP4CellRNS_9allocatorIS2_EEE5clearB8ue170006Ev, symObjAddr: 0x1932C, symBinAddr: 0x10001D254, symSize: 0x28 }
  - { offsetInCU: 0x431F0, offset: 0x431F0, size: 0x8, addend: 0x0, symName: __ZNSt3__116allocator_traitsINS_9allocatorIP4CellEEE10deallocateB8ue170006ERS4_PS3_m, symObjAddr: 0x19354, symBinAddr: 0x10001D27C, symSize: 0x34 }
  - { offsetInCU: 0x43232, offset: 0x43232, size: 0x8, addend: 0x0, symName: __ZNKSt3__114__split_bufferIP4CellRNS_9allocatorIS2_EEE8capacityB8ue170006Ev, symObjAddr: 0x19388, symBinAddr: 0x10001D2B0, symSize: 0x40 }
  - { offsetInCU: 0x43258, offset: 0x43258, size: 0x8, addend: 0x0, symName: __ZNSt3__114__split_bufferIP4CellRNS_9allocatorIS2_EEE17__destruct_at_endB8ue170006EPS2_, symObjAddr: 0x193C8, symBinAddr: 0x10001D2F0, symSize: 0x2C }
  - { offsetInCU: 0x4328C, offset: 0x4328C, size: 0x8, addend: 0x0, symName: __ZNSt3__114__split_bufferIP4CellRNS_9allocatorIS2_EEE17__destruct_at_endB8ue170006EPS2_NS_17integral_constantIbLb0EEE, symObjAddr: 0x193F4, symBinAddr: 0x10001D31C, symSize: 0x80 }
  - { offsetInCU: 0x432CC, offset: 0x432CC, size: 0x8, addend: 0x0, symName: __ZNSt3__116allocator_traitsINS_9allocatorIP4CellEEE7destroyB8ue170006IS3_vEEvRS4_PT_, symObjAddr: 0x19474, symBinAddr: 0x10001D39C, symSize: 0x2C }
  - { offsetInCU: 0x43309, offset: 0x43309, size: 0x8, addend: 0x0, symName: __ZNSt3__19allocatorIP4CellE7destroyB8ue170006EPS2_, symObjAddr: 0x194A0, symBinAddr: 0x10001D3C8, symSize: 0x14 }
  - { offsetInCU: 0x4333D, offset: 0x4333D, size: 0x8, addend: 0x0, symName: __ZNSt3__19allocatorIP4CellE10deallocateB8ue170006EPS2_m, symObjAddr: 0x194B4, symBinAddr: 0x10001D3DC, symSize: 0x40 }
  - { offsetInCU: 0x4337F, offset: 0x4337F, size: 0x8, addend: 0x0, symName: __ZNKSt3__114__split_bufferIP4CellRNS_9allocatorIS2_EEE9__end_capB8ue170006Ev, symObjAddr: 0x194F4, symBinAddr: 0x10001D41C, symSize: 0x28 }
  - { offsetInCU: 0x433A5, offset: 0x433A5, size: 0x8, addend: 0x0, symName: __ZNKSt3__117__compressed_pairIPP4CellRNS_9allocatorIS2_EEE5firstB8ue170006Ev, symObjAddr: 0x1951C, symBinAddr: 0x10001D444, symSize: 0x24 }
  - { offsetInCU: 0x433CB, offset: 0x433CB, size: 0x8, addend: 0x0, symName: __ZNSt3__16__treeINS_12__value_typeINS_12basic_stringIcNS_11char_traitsIcEENS_9allocatorIcEEEEP4CellEENS_19__map_value_compareIS7_SA_NS_4lessIS7_EELb1EEENS5_ISA_EEE25__emplace_unique_key_argsIS7_JRKNS_21piecewise_construct_tENS_5tupleIJRKS7_EEENSL_IJEEEEEENS_4pairINS_15__tree_iteratorISA_PNS_11__tree_nodeISA_PvEElEEbEERKT_DpOT0_, symObjAddr: 0x19540, symBinAddr: 0x10001D468, symSize: 0x100 }
  - { offsetInCU: 0x434A1, offset: 0x434A1, size: 0x8, addend: 0x0, symName: __ZNKSt3__115__tree_iteratorINS_12__value_typeINS_12basic_stringIcNS_11char_traitsIcEENS_9allocatorIcEEEEP4CellEEPNS_11__tree_nodeISA_PvEElEptB8ue170006Ev, symObjAddr: 0x19640, symBinAddr: 0x10001D568, symSize: 0x2C }
  - { offsetInCU: 0x434C7, offset: 0x434C7, size: 0x8, addend: 0x0, symName: __ZNSt3__16__treeINS_12__value_typeINS_12basic_stringIcNS_11char_traitsIcEENS_9allocatorIcEEEEP4CellEENS_19__map_value_compareIS7_SA_NS_4lessIS7_EELb1EEENS5_ISA_EEE12__find_equalIS7_EERPNS_16__tree_node_baseIPvEERPNS_15__tree_end_nodeISL_EERKT_, symObjAddr: 0x1966C, symBinAddr: 0x10001D594, symSize: 0x184 }
  - { offsetInCU: 0x43534, offset: 0x43534, size: 0x8, addend: 0x0, symName: __ZNSt3__16__treeINS_12__value_typeINS_12basic_stringIcNS_11char_traitsIcEENS_9allocatorIcEEEEP4CellEENS_19__map_value_compareIS7_SA_NS_4lessIS7_EELb1EEENS5_ISA_EEE16__construct_nodeIJRKNS_21piecewise_construct_tENS_5tupleIJRKS7_EEENSL_IJEEEEEENS_10unique_ptrINS_11__tree_nodeISA_PvEENS_22__tree_node_destructorINS5_IST_EEEEEEDpOT_, symObjAddr: 0x197F0, symBinAddr: 0x10001D718, symSize: 0x120 }
  - { offsetInCU: 0x435BD, offset: 0x435BD, size: 0x8, addend: 0x0, symName: __ZNSt3__16__treeINS_12__value_typeINS_12basic_stringIcNS_11char_traitsIcEENS_9allocatorIcEEEEP4CellEENS_19__map_value_compareIS7_SA_NS_4lessIS7_EELb1EEENS5_ISA_EEE16__insert_node_atEPNS_15__tree_end_nodeIPNS_16__tree_node_baseIPvEEEERSL_SL_, symObjAddr: 0x19910, symBinAddr: 0x10001D838, symSize: 0xCC }
  - { offsetInCU: 0x43612, offset: 0x43612, size: 0x8, addend: 0x0, symName: __ZNKSt3__110unique_ptrINS_11__tree_nodeINS_12__value_typeINS_12basic_stringIcNS_11char_traitsIcEENS_9allocatorIcEEEEP4CellEEPvEENS_22__tree_node_destructorINS6_ISD_EEEEE3getB8ue170006Ev, symObjAddr: 0x199DC, symBinAddr: 0x10001D904, symSize: 0x28 }
  - { offsetInCU: 0x43638, offset: 0x43638, size: 0x8, addend: 0x0, symName: __ZNSt3__110unique_ptrINS_11__tree_nodeINS_12__value_typeINS_12basic_stringIcNS_11char_traitsIcEENS_9allocatorIcEEEEP4CellEEPvEENS_22__tree_node_destructorINS6_ISD_EEEEE7releaseB8ue170006Ev, symObjAddr: 0x19A04, symBinAddr: 0x10001D92C, symSize: 0x44 }
  - { offsetInCU: 0x4366D, offset: 0x4366D, size: 0x8, addend: 0x0, symName: __ZNSt3__110unique_ptrINS_11__tree_nodeINS_12__value_typeINS_12basic_stringIcNS_11char_traitsIcEENS_9allocatorIcEEEEP4CellEEPvEENS_22__tree_node_destructorINS6_ISD_EEEEED1B8ue170006Ev, symObjAddr: 0x19A48, symBinAddr: 0x10001D970, symSize: 0x2C }
  - { offsetInCU: 0x43697, offset: 0x43697, size: 0x8, addend: 0x0, symName: __ZNSt3__115__tree_iteratorINS_12__value_typeINS_12basic_stringIcNS_11char_traitsIcEENS_9allocatorIcEEEEP4CellEEPNS_11__tree_nodeISA_PvEElEC1B8ue170006ESE_, symObjAddr: 0x19A74, symBinAddr: 0x10001D99C, symSize: 0x34 }
  - { offsetInCU: 0x436D6, offset: 0x436D6, size: 0x8, addend: 0x0, symName: __ZNSt3__14pairINS_15__tree_iteratorINS_12__value_typeINS_12basic_stringIcNS_11char_traitsIcEENS_9allocatorIcEEEEP4CellEEPNS_11__tree_nodeISB_PvEElEEbEC1B8ue170006ISG_RbLSD_0EEEOT_OT0_, symObjAddr: 0x19AA8, symBinAddr: 0x10001D9D0, symSize: 0x3C }
  - { offsetInCU: 0x43734, offset: 0x43734, size: 0x8, addend: 0x0, symName: __ZNKSt3__16__treeINS_12__value_typeINS_12basic_stringIcNS_11char_traitsIcEENS_9allocatorIcEEEEP4CellEENS_19__map_value_compareIS7_SA_NS_4lessIS7_EELb1EEENS5_ISA_EEE10__root_ptrB8ue170006Ev, symObjAddr: 0x19AE4, symBinAddr: 0x10001DA0C, symSize: 0x24 }
  - { offsetInCU: 0x4375A, offset: 0x4375A, size: 0x8, addend: 0x0, symName: __ZNSt3__116allocator_traitsINS_9allocatorINS_11__tree_nodeINS_12__value_typeINS_12basic_stringIcNS_11char_traitsIcEENS1_IcEEEEP4CellEEPvEEEEE8allocateB8ue170006ERSE_m, symObjAddr: 0x19B08, symBinAddr: 0x10001DA30, symSize: 0x2C }
  - { offsetInCU: 0x4378D, offset: 0x4378D, size: 0x8, addend: 0x0, symName: __ZNSt3__122__tree_node_destructorINS_9allocatorINS_11__tree_nodeINS_12__value_typeINS_12basic_stringIcNS_11char_traitsIcEENS1_IcEEEEP4CellEEPvEEEEEC1B8ue170006ERSE_b, symObjAddr: 0x19B34, symBinAddr: 0x10001DA5C, symSize: 0x48 }
  - { offsetInCU: 0x437DB, offset: 0x437DB, size: 0x8, addend: 0x0, symName: __ZNSt3__110unique_ptrINS_11__tree_nodeINS_12__value_typeINS_12basic_stringIcNS_11char_traitsIcEENS_9allocatorIcEEEEP4CellEEPvEENS_22__tree_node_destructorINS6_ISD_EEEEEC1B8ue170006ILb1EvEEPSD_NS_16__dependent_typeINS_27__unique_ptr_deleter_sfinaeISG_EEXT_EE20__good_rval_ref_typeE, symObjAddr: 0x19B7C, symBinAddr: 0x10001DAA4, symSize: 0x3C }
  - { offsetInCU: 0x4382C, offset: 0x4382C, size: 0x8, addend: 0x0, symName: __ZNSt3__116allocator_traitsINS_9allocatorINS_11__tree_nodeINS_12__value_typeINS_12basic_stringIcNS_11char_traitsIcEENS1_IcEEEEP4CellEEPvEEEEE9constructB8ue170006INS_4pairIKS8_SA_EEJRKNS_21piecewise_construct_tENS_5tupleIJRSI_EEENSN_IJEEEEvEEvRSE_PT_DpOT0_, symObjAddr: 0x19BB8, symBinAddr: 0x10001DAE0, symSize: 0x44 }
  - { offsetInCU: 0x438AB, offset: 0x438AB, size: 0x8, addend: 0x0, symName: __ZNKSt3__110unique_ptrINS_11__tree_nodeINS_12__value_typeINS_12basic_stringIcNS_11char_traitsIcEENS_9allocatorIcEEEEP4CellEEPvEENS_22__tree_node_destructorINS6_ISD_EEEEEptB8ue170006Ev, symObjAddr: 0x19BFC, symBinAddr: 0x10001DB24, symSize: 0x28 }
  - { offsetInCU: 0x438D1, offset: 0x438D1, size: 0x8, addend: 0x0, symName: __ZNSt3__110unique_ptrINS_11__tree_nodeINS_12__value_typeINS_12basic_stringIcNS_11char_traitsIcEENS_9allocatorIcEEEEP4CellEEPvEENS_22__tree_node_destructorINS6_ISD_EEEEE11get_deleterB8ue170006Ev, symObjAddr: 0x19C24, symBinAddr: 0x10001DB4C, symSize: 0x24 }
  - { offsetInCU: 0x438F7, offset: 0x438F7, size: 0x8, addend: 0x0, symName: __ZNSt3__19allocatorINS_11__tree_nodeINS_12__value_typeINS_12basic_stringIcNS_11char_traitsIcEENS0_IcEEEEP4CellEEPvEEE8allocateB8ue170006Em, symObjAddr: 0x19C48, symBinAddr: 0x10001DB70, symSize: 0x58 }
  - { offsetInCU: 0x43937, offset: 0x43937, size: 0x8, addend: 0x0, symName: __ZNSt3__116allocator_traitsINS_9allocatorINS_11__tree_nodeINS_12__value_typeINS_12basic_stringIcNS_11char_traitsIcEENS1_IcEEEEP4CellEEPvEEEEE8max_sizeB8ue170006ISE_vEEmRKSE_, symObjAddr: 0x19CA0, symBinAddr: 0x10001DBC8, symSize: 0x24 }
  - { offsetInCU: 0x43965, offset: 0x43965, size: 0x8, addend: 0x0, symName: __ZNKSt3__19allocatorINS_11__tree_nodeINS_12__value_typeINS_12basic_stringIcNS_11char_traitsIcEENS0_IcEEEEP4CellEEPvEEE8max_sizeB8ue170006Ev, symObjAddr: 0x19CC4, symBinAddr: 0x10001DBEC, symSize: 0x14 }
  - { offsetInCU: 0x4398B, offset: 0x4398B, size: 0x8, addend: 0x0, symName: __ZNSt3__122__tree_node_destructorINS_9allocatorINS_11__tree_nodeINS_12__value_typeINS_12basic_stringIcNS_11char_traitsIcEENS1_IcEEEEP4CellEEPvEEEEEC2B8ue170006ERSE_b, symObjAddr: 0x19CD8, symBinAddr: 0x10001DC00, symSize: 0x38 }
  - { offsetInCU: 0x439D3, offset: 0x439D3, size: 0x8, addend: 0x0, symName: __ZNSt3__110unique_ptrINS_11__tree_nodeINS_12__value_typeINS_12basic_stringIcNS_11char_traitsIcEENS_9allocatorIcEEEEP4CellEEPvEENS_22__tree_node_destructorINS6_ISD_EEEEEC2B8ue170006ILb1EvEEPSD_NS_16__dependent_typeINS_27__unique_ptr_deleter_sfinaeISG_EEXT_EE20__good_rval_ref_typeE, symObjAddr: 0x19D10, symBinAddr: 0x10001DC38, symSize: 0x48 }
  - { offsetInCU: 0x43A24, offset: 0x43A24, size: 0x8, addend: 0x0, symName: __ZNSt3__117__compressed_pairIPNS_11__tree_nodeINS_12__value_typeINS_12basic_stringIcNS_11char_traitsIcEENS_9allocatorIcEEEEP4CellEEPvEENS_22__tree_node_destructorINS6_ISD_EEEEEC1B8ue170006IRSE_SH_EEOT_OT0_, symObjAddr: 0x19D58, symBinAddr: 0x10001DC80, symSize: 0x3C }
  - { offsetInCU: 0x43A7C, offset: 0x43A7C, size: 0x8, addend: 0x0, symName: __ZNSt3__117__compressed_pairIPNS_11__tree_nodeINS_12__value_typeINS_12basic_stringIcNS_11char_traitsIcEENS_9allocatorIcEEEEP4CellEEPvEENS_22__tree_node_destructorINS6_ISD_EEEEEC2B8ue170006IRSE_SH_EEOT_OT0_, symObjAddr: 0x19D94, symBinAddr: 0x10001DCBC, symSize: 0x48 }
  - { offsetInCU: 0x43AD4, offset: 0x43AD4, size: 0x8, addend: 0x0, symName: __ZNSt3__122__compressed_pair_elemIPNS_11__tree_nodeINS_12__value_typeINS_12basic_stringIcNS_11char_traitsIcEENS_9allocatorIcEEEEP4CellEEPvEELi0ELb0EEC2B8ue170006IRSE_vEEOT_, symObjAddr: 0x19DDC, symBinAddr: 0x10001DD04, symSize: 0x24 }
  - { offsetInCU: 0x43B16, offset: 0x43B16, size: 0x8, addend: 0x0, symName: __ZNSt3__122__compressed_pair_elemINS_22__tree_node_destructorINS_9allocatorINS_11__tree_nodeINS_12__value_typeINS_12basic_stringIcNS_11char_traitsIcEENS2_IcEEEEP4CellEEPvEEEEEELi1ELb0EEC2B8ue170006ISG_vEEOT_, symObjAddr: 0x19E00, symBinAddr: 0x10001DD28, symSize: 0x24 }
  - { offsetInCU: 0x43B58, offset: 0x43B58, size: 0x8, addend: 0x0, symName: __ZNSt3__19allocatorINS_11__tree_nodeINS_12__value_typeINS_12basic_stringIcNS_11char_traitsIcEENS0_IcEEEEP4CellEEPvEEE9constructB8ue170006INS_4pairIKS7_S9_EEJRKNS_21piecewise_construct_tENS_5tupleIJRSG_EEENSL_IJEEEEEEvPT_DpOT0_, symObjAddr: 0x19E24, symBinAddr: 0x10001DD4C, symSize: 0x44 }
  - { offsetInCU: 0x43BD4, offset: 0x43BD4, size: 0x8, addend: 0x0, symName: __ZNSt3__14pairIKNS_12basic_stringIcNS_11char_traitsIcEENS_9allocatorIcEEEEP4CellEC1B8ue170006IJRS7_EJEEENS_21piecewise_construct_tENS_5tupleIJDpT_EEENSE_IJDpT0_EEE, symObjAddr: 0x19E68, symBinAddr: 0x10001DD90, symSize: 0x3C }
  - { offsetInCU: 0x43C3B, offset: 0x43C3B, size: 0x8, addend: 0x0, symName: __ZNSt3__14pairIKNS_12basic_stringIcNS_11char_traitsIcEENS_9allocatorIcEEEEP4CellEC1B8ue170006IJRS7_EJEJLm0EEJEEENS_21piecewise_construct_tERNS_5tupleIJDpT_EEERNSE_IJDpT0_EEENS_15__tuple_indicesIJXspT1_EEEENSN_IJXspT2_EEEE, symObjAddr: 0x19EA4, symBinAddr: 0x10001DDCC, symSize: 0x3C }
  - { offsetInCU: 0x43CCB, offset: 0x43CCB, size: 0x8, addend: 0x0, symName: __ZNSt3__14pairIKNS_12basic_stringIcNS_11char_traitsIcEENS_9allocatorIcEEEEP4CellEC2B8ue170006IJRS7_EJEJLm0EEJEEENS_21piecewise_construct_tERNS_5tupleIJDpT_EEERNSE_IJDpT0_EEENS_15__tuple_indicesIJXspT1_EEEENSN_IJXspT2_EEEE, symObjAddr: 0x19EE0, symBinAddr: 0x10001DE08, symSize: 0x48 }
  - { offsetInCU: 0x43D5B, offset: 0x43D5B, size: 0x8, addend: 0x0, symName: __ZNKSt3__117__compressed_pairIPNS_11__tree_nodeINS_12__value_typeINS_12basic_stringIcNS_11char_traitsIcEENS_9allocatorIcEEEEP4CellEEPvEENS_22__tree_node_destructorINS6_ISD_EEEEE5firstB8ue170006Ev, symObjAddr: 0x19F28, symBinAddr: 0x10001DE50, symSize: 0x24 }
  - { offsetInCU: 0x43D81, offset: 0x43D81, size: 0x8, addend: 0x0, symName: __ZNKSt3__122__compressed_pair_elemIPNS_11__tree_nodeINS_12__value_typeINS_12basic_stringIcNS_11char_traitsIcEENS_9allocatorIcEEEEP4CellEEPvEELi0ELb0EE5__getB8ue170006Ev, symObjAddr: 0x19F4C, symBinAddr: 0x10001DE74, symSize: 0x14 }
  - { offsetInCU: 0x43DA7, offset: 0x43DA7, size: 0x8, addend: 0x0, symName: __ZNSt3__117__compressed_pairIPNS_11__tree_nodeINS_12__value_typeINS_12basic_stringIcNS_11char_traitsIcEENS_9allocatorIcEEEEP4CellEEPvEENS_22__tree_node_destructorINS6_ISD_EEEEE6secondB8ue170006Ev, symObjAddr: 0x19F60, symBinAddr: 0x10001DE88, symSize: 0x28 }
  - { offsetInCU: 0x43DCD, offset: 0x43DCD, size: 0x8, addend: 0x0, symName: __ZNSt3__122__compressed_pair_elemINS_22__tree_node_destructorINS_9allocatorINS_11__tree_nodeINS_12__value_typeINS_12basic_stringIcNS_11char_traitsIcEENS2_IcEEEEP4CellEEPvEEEEEELi1ELb0EE5__getB8ue170006Ev, symObjAddr: 0x19F88, symBinAddr: 0x10001DEB0, symSize: 0x14 }
  - { offsetInCU: 0x43DF3, offset: 0x43DF3, size: 0x8, addend: 0x0, symName: __ZNSt3__16__treeINS_12__value_typeINS_12basic_stringIcNS_11char_traitsIcEENS_9allocatorIcEEEEP4CellEENS_19__map_value_compareIS7_SA_NS_4lessIS7_EELb1EEENS5_ISA_EEE4sizeB8ue170006Ev, symObjAddr: 0x19F9C, symBinAddr: 0x10001DEC4, symSize: 0x28 }
  - { offsetInCU: 0x43E19, offset: 0x43E19, size: 0x8, addend: 0x0, symName: __ZNSt3__117__compressed_pairImNS_19__map_value_compareINS_12basic_stringIcNS_11char_traitsIcEENS_9allocatorIcEEEENS_12__value_typeIS7_P4CellEENS_4lessIS7_EELb1EEEE5firstB8ue170006Ev, symObjAddr: 0x19FC4, symBinAddr: 0x10001DEEC, symSize: 0x24 }
  - { offsetInCU: 0x43E3F, offset: 0x43E3F, size: 0x8, addend: 0x0, symName: __ZNSt3__117__compressed_pairIPNS_11__tree_nodeINS_12__value_typeINS_12basic_stringIcNS_11char_traitsIcEENS_9allocatorIcEEEEP4CellEEPvEENS_22__tree_node_destructorINS6_ISD_EEEEE5firstB8ue170006Ev, symObjAddr: 0x19FE8, symBinAddr: 0x10001DF10, symSize: 0x24 }
  - { offsetInCU: 0x43E65, offset: 0x43E65, size: 0x8, addend: 0x0, symName: __ZNSt3__122__compressed_pair_elemIPNS_11__tree_nodeINS_12__value_typeINS_12basic_stringIcNS_11char_traitsIcEENS_9allocatorIcEEEEP4CellEEPvEELi0ELb0EE5__getB8ue170006Ev, symObjAddr: 0x1A00C, symBinAddr: 0x10001DF34, symSize: 0x14 }
  - { offsetInCU: 0x43E8B, offset: 0x43E8B, size: 0x8, addend: 0x0, symName: __ZNSt3__110unique_ptrINS_11__tree_nodeINS_12__value_typeINS_12basic_stringIcNS_11char_traitsIcEENS_9allocatorIcEEEEP4CellEEPvEENS_22__tree_node_destructorINS6_ISD_EEEEED2B8ue170006Ev, symObjAddr: 0x1A020, symBinAddr: 0x10001DF48, symSize: 0x30 }
  - { offsetInCU: 0x43EB5, offset: 0x43EB5, size: 0x8, addend: 0x0, symName: __ZNSt3__110unique_ptrINS_11__tree_nodeINS_12__value_typeINS_12basic_stringIcNS_11char_traitsIcEENS_9allocatorIcEEEEP4CellEEPvEENS_22__tree_node_destructorINS6_ISD_EEEEE5resetB8ue170006EPSD_, symObjAddr: 0x1A050, symBinAddr: 0x10001DF78, symSize: 0x78 }
  - { offsetInCU: 0x43EF9, offset: 0x43EF9, size: 0x8, addend: 0x0, symName: __ZNSt3__122__tree_node_destructorINS_9allocatorINS_11__tree_nodeINS_12__value_typeINS_12basic_stringIcNS_11char_traitsIcEENS1_IcEEEEP4CellEEPvEEEEEclB8ue170006EPSD_, symObjAddr: 0x1A0C8, symBinAddr: 0x10001DFF0, symSize: 0x94 }
  - { offsetInCU: 0x43F2E, offset: 0x43F2E, size: 0x8, addend: 0x0, symName: __ZNSt3__115__tree_iteratorINS_12__value_typeINS_12basic_stringIcNS_11char_traitsIcEENS_9allocatorIcEEEEP4CellEEPNS_11__tree_nodeISA_PvEElEC2B8ue170006ESE_, symObjAddr: 0x1A15C, symBinAddr: 0x10001E084, symSize: 0x20 }
  - { offsetInCU: 0x43F67, offset: 0x43F67, size: 0x8, addend: 0x0, symName: __ZNSt3__14pairINS_15__tree_iteratorINS_12__value_typeINS_12basic_stringIcNS_11char_traitsIcEENS_9allocatorIcEEEEP4CellEEPNS_11__tree_nodeISB_PvEElEEbEC2B8ue170006ISG_RbLSD_0EEEOT_OT0_, symObjAddr: 0x1A17C, symBinAddr: 0x10001E0A4, symSize: 0x38 }
  - { offsetInCU: 0x43FC5, offset: 0x43FC5, size: 0x8, addend: 0x0, symName: __ZNSt3__114pointer_traitsIPNS_12__value_typeINS_12basic_stringIcNS_11char_traitsIcEENS_9allocatorIcEEEEP4CellEEE10pointer_toB8ue170006ERSA_, symObjAddr: 0x1A1B4, symBinAddr: 0x10001E0DC, symSize: 0x14 }
  - { offsetInCU: 0x43FE8, offset: 0x43FE8, size: 0x8, addend: 0x0, symName: __ZNSt3__114pointer_traitsIPNS_4pairIKNS_12basic_stringIcNS_11char_traitsIcEENS_9allocatorIcEEEEP4CellEEE10pointer_toB8ue170006ERSB_, symObjAddr: 0x1A1C8, symBinAddr: 0x10001E0F0, symSize: 0x14 }
  - { offsetInCU: 0x4400B, offset: 0x4400B, size: 0x8, addend: 0x0, symName: __ZNSt3__16__treeINS_12__value_typeINS_12basic_stringIcNS_11char_traitsIcEENS_9allocatorIcEEEEP4CellEENS_19__map_value_compareIS7_SA_NS_4lessIS7_EELb1EEENS5_ISA_EEE14__erase_uniqueIS7_EEmRKT_, symObjAddr: 0x1A1DC, symBinAddr: 0x10001E104, symSize: 0xA0 }
  - { offsetInCU: 0x4405A, offset: 0x4405A, size: 0x8, addend: 0x0, symName: __ZNSt3__16__treeINS_12__value_typeINS_12basic_stringIcNS_11char_traitsIcEENS_9allocatorIcEEEEP4CellEENS_19__map_value_compareIS7_SA_NS_4lessIS7_EELb1EEENS5_ISA_EEE5eraseENS_21__tree_const_iteratorISA_PNS_11__tree_nodeISA_PvEElEE, symObjAddr: 0x1A27C, symBinAddr: 0x10001E1A4, symSize: 0x98 }
  - { offsetInCU: 0x440BE, offset: 0x440BE, size: 0x8, addend: 0x0, symName: __ZNSt3__121__tree_const_iteratorINS_12__value_typeINS_12basic_stringIcNS_11char_traitsIcEENS_9allocatorIcEEEEP4CellEEPNS_11__tree_nodeISA_PvEElEC1B8ue170006ENS_15__tree_iteratorISA_SE_lEE, symObjAddr: 0x1A314, symBinAddr: 0x10001E23C, symSize: 0x34 }
  - { offsetInCU: 0x440F7, offset: 0x440F7, size: 0x8, addend: 0x0, symName: __ZNKSt3__121__tree_const_iteratorINS_12__value_typeINS_12basic_stringIcNS_11char_traitsIcEENS_9allocatorIcEEEEP4CellEEPNS_11__tree_nodeISA_PvEElE8__get_npB8ue170006Ev, symObjAddr: 0x1A348, symBinAddr: 0x10001E270, symSize: 0x18 }
  - { offsetInCU: 0x4411D, offset: 0x4411D, size: 0x8, addend: 0x0, symName: __ZNSt3__16__treeINS_12__value_typeINS_12basic_stringIcNS_11char_traitsIcEENS_9allocatorIcEEEEP4CellEENS_19__map_value_compareIS7_SA_NS_4lessIS7_EELb1EEENS5_ISA_EEE21__remove_node_pointerEPNS_11__tree_nodeISA_PvEE, symObjAddr: 0x1A360, symBinAddr: 0x10001E288, symSize: 0xB4 }
  - { offsetInCU: 0x44163, offset: 0x44163, size: 0x8, addend: 0x0, symName: __ZNKSt3__121__tree_const_iteratorINS_12__value_typeINS_12basic_stringIcNS_11char_traitsIcEENS_9allocatorIcEEEEP4CellEEPNS_11__tree_nodeISA_PvEElEdeB8ue170006Ev, symObjAddr: 0x1A414, symBinAddr: 0x10001E33C, symSize: 0x28 }
  - { offsetInCU: 0x44189, offset: 0x44189, size: 0x8, addend: 0x0, symName: __ZNSt3__115__tree_iteratorINS_12__value_typeINS_12basic_stringIcNS_11char_traitsIcEENS_9allocatorIcEEEEP4CellEEPNS_11__tree_nodeISA_PvEElEppB8ue170006Ev, symObjAddr: 0x1A43C, symBinAddr: 0x10001E364, symSize: 0x38 }
  - { offsetInCU: 0x441AF, offset: 0x441AF, size: 0x8, addend: 0x0, symName: __ZNSt3__121__tree_const_iteratorINS_12__value_typeINS_12basic_stringIcNS_11char_traitsIcEENS_9allocatorIcEEEEP4CellEEPNS_11__tree_nodeISA_PvEElEC2B8ue170006ENS_15__tree_iteratorISA_SE_lEE, symObjAddr: 0x1ABD4, symBinAddr: 0x10001EAFC, symSize: 0x20 }
  - { offsetInCU: 0x441E8, offset: 0x441E8, size: 0x8, addend: 0x0, symName: __ZNSt3__16vectorIP4CellNS_9allocatorIS2_EEE22__construct_one_at_endB8ue170006IJS2_EEEvDpOT_, symObjAddr: 0x1ABF4, symBinAddr: 0x10001EB1C, symSize: 0x90 }
  - { offsetInCU: 0x44237, offset: 0x44237, size: 0x8, addend: 0x0, symName: __ZNSt3__16vectorIP4CellNS_9allocatorIS2_EEE24__emplace_back_slow_pathIJS2_EEEvDpOT_, symObjAddr: 0x1AC84, symBinAddr: 0x10001EBAC, symSize: 0xD8 }
  - { offsetInCU: 0x44297, offset: 0x44297, size: 0x8, addend: 0x0, symName: __ZNSt3__116allocator_traitsINS_9allocatorIP4CellEEE9constructB8ue170006IS3_JS3_EvEEvRS4_PT_DpOT0_, symObjAddr: 0x1AD5C, symBinAddr: 0x10001EC84, symSize: 0x34 }
  - { offsetInCU: 0x442EE, offset: 0x442EE, size: 0x8, addend: 0x0, symName: __ZNSt3__19allocatorIP4CellE9constructB8ue170006IS2_JS2_EEEvPT_DpOT0_, symObjAddr: 0x1AD90, symBinAddr: 0x10001ECB8, symSize: 0x28 }
  - { offsetInCU: 0x44344, offset: 0x44344, size: 0x8, addend: 0x0, symName: __ZNKSt3__16vectorI4CellNS_9allocatorIS1_EEE17__annotate_shrinkB8ue170006Em, symObjAddr: 0x1ADB8, symBinAddr: 0x10001ECE0, symSize: 0xD0 }
  - { offsetInCU: 0x44379, offset: 0x44379, size: 0x8, addend: 0x0, symName: __ZNKSt3__16vectorIP4CellNS_9allocatorIS2_EEE6cbeginB8ue170006Ev, symObjAddr: 0x1AED0, symBinAddr: 0x10001EDF8, symSize: 0x2C }
  - { offsetInCU: 0x4439F, offset: 0x4439F, size: 0x8, addend: 0x0, symName: __ZNSt3__16vectorIP4CellNS_9allocatorIS2_EEE17__destruct_at_endB8ue170006EPS2_, symObjAddr: 0x1AEFC, symBinAddr: 0x10001EE24, symSize: 0x4C }
  - { offsetInCU: 0x443E3, offset: 0x443E3, size: 0x8, addend: 0x0, symName: __ZNSt3__16vectorIP4CellNS_9allocatorIS2_EEE22__base_destruct_at_endB8ue170006EPS2_, symObjAddr: 0x1AF88, symBinAddr: 0x10001EEB0, symSize: 0x8C }
  - { offsetInCU: 0x44427, offset: 0x44427, size: 0x8, addend: 0x0, symName: __ZNKSt3__16vectorIP4CellNS_9allocatorIS2_EEE17__annotate_shrinkB8ue170006Em, symObjAddr: 0x1B014, symBinAddr: 0x10001EF3C, symSize: 0xB4 }
  - { offsetInCU: 0x44486, offset: 0x44486, size: 0x8, addend: 0x0, symName: __ZNKSt3__114__move_trivialclB8ue170006IP4CellS3_Li0EEENS_4pairIPT_PT0_EES6_S6_S8_, symObjAddr: 0x1B264, symBinAddr: 0x10001F18C, symSize: 0x48 }
  - { offsetInCU: 0x444F4, offset: 0x444F4, size: 0x8, addend: 0x0, symName: __ZNSt3__14pairIPP4CellS3_EC1B8ue170006IRS3_S3_LPv0EEEOT_OT0_, symObjAddr: 0x1B48C, symBinAddr: 0x10001F3B4, symSize: 0x3C }
  - { offsetInCU: 0x44552, offset: 0x44552, size: 0x8, addend: 0x0, symName: __ZNSt3__14pairIPP4CellS3_EC2B8ue170006IRS3_S3_LPv0EEEOT_OT0_, symObjAddr: 0x1B4C8, symBinAddr: 0x10001F3F0, symSize: 0x34 }
  - { offsetInCU: 0x445B0, offset: 0x445B0, size: 0x8, addend: 0x0, symName: __ZNSt3__118__unwrap_iter_implIPP4CellLb1EE8__unwrapB8ue170006ES3_, symObjAddr: 0x1B4FC, symBinAddr: 0x10001F424, symSize: 0x24 }
  - { offsetInCU: 0x445D3, offset: 0x445D3, size: 0x8, addend: 0x0, symName: __ZNSt3__14pairIPP4CellS3_EC1B8ue170006IS3_S3_LPv0EEEOT_OT0_, symObjAddr: 0x1B520, symBinAddr: 0x10001F448, symSize: 0x3C }
  - { offsetInCU: 0x44631, offset: 0x44631, size: 0x8, addend: 0x0, symName: __ZNSt3__14pairIPP4CellS3_EC2B8ue170006IS3_S3_LPv0EEEOT_OT0_, symObjAddr: 0x1B55C, symBinAddr: 0x10001F484, symSize: 0x34 }
  - { offsetInCU: 0x4468F, offset: 0x4468F, size: 0x8, addend: 0x0, symName: __ZNSt3__118__unwrap_iter_implIPP4CellLb1EE8__rewrapB8ue170006ES3_S3_, symObjAddr: 0x1B590, symBinAddr: 0x10001F4B8, symSize: 0x50 }
  - { offsetInCU: 0x446C0, offset: 0x446C0, size: 0x8, addend: 0x0, symName: __ZNSt3__16vectorINS_6threadENS_9allocatorIS1_EEEC2B8ue170006Ev, symObjAddr: 0x1B5E0, symBinAddr: 0x10001F508, symSize: 0x4C }
  - { offsetInCU: 0x446EA, offset: 0x446EA, size: 0x8, addend: 0x0, symName: __ZNSt3__117__compressed_pairIPNS_6threadENS_9allocatorIS1_EEEC1B8ue170006IDnNS_18__default_init_tagEEEOT_OT0_, symObjAddr: 0x1B62C, symBinAddr: 0x10001F554, symSize: 0x3C }
  - { offsetInCU: 0x44742, offset: 0x44742, size: 0x8, addend: 0x0, symName: __ZNSt3__117__compressed_pairIPNS_6threadENS_9allocatorIS1_EEEC2B8ue170006IDnNS_18__default_init_tagEEEOT_OT0_, symObjAddr: 0x1B668, symBinAddr: 0x10001F590, symSize: 0x40 }
  - { offsetInCU: 0x4479A, offset: 0x4479A, size: 0x8, addend: 0x0, symName: __ZNSt3__122__compressed_pair_elemIPNS_6threadELi0ELb0EEC2B8ue170006IDnvEEOT_, symObjAddr: 0x1B6A8, symBinAddr: 0x10001F5D0, symSize: 0x1C }
  - { offsetInCU: 0x447DC, offset: 0x447DC, size: 0x8, addend: 0x0, symName: __ZNSt3__122__compressed_pair_elemINS_9allocatorINS_6threadEEELi1ELb1EEC2B8ue170006ENS_18__default_init_tagE, symObjAddr: 0x1B6C4, symBinAddr: 0x10001F5EC, symSize: 0x2C }
  - { offsetInCU: 0x44810, offset: 0x44810, size: 0x8, addend: 0x0, symName: __ZNSt3__19allocatorINS_6threadEEC2B8ue170006Ev, symObjAddr: 0x1B6F0, symBinAddr: 0x10001F618, symSize: 0x2C }
  - { offsetInCU: 0x4483A, offset: 0x4483A, size: 0x8, addend: 0x0, symName: __ZNSt3__116__non_trivial_ifILb1ENS_9allocatorINS_6threadEEEEC2B8ue170006Ev, symObjAddr: 0x1B71C, symBinAddr: 0x10001F644, symSize: 0x14 }
  - { offsetInCU: 0x44864, offset: 0x44864, size: 0x8, addend: 0x0, symName: __ZNSt3__16vectorINS_6threadENS_9allocatorIS1_EEED2B8ue170006Ev, symObjAddr: 0x1B730, symBinAddr: 0x10001F658, symSize: 0x44 }
  - { offsetInCU: 0x4488E, offset: 0x4488E, size: 0x8, addend: 0x0, symName: __ZNSt3__16vectorINS_6threadENS_9allocatorIS1_EEE16__destroy_vectorC1B8ue170006ERS4_, symObjAddr: 0x1B774, symBinAddr: 0x10001F69C, symSize: 0x34 }
  - { offsetInCU: 0x448C7, offset: 0x448C7, size: 0x8, addend: 0x0, symName: __ZNSt3__16vectorINS_6threadENS_9allocatorIS1_EEE16__destroy_vectorclB8ue170006Ev, symObjAddr: 0x1B7A8, symBinAddr: 0x10001F6D0, symSize: 0x90 }
  - { offsetInCU: 0x448ED, offset: 0x448ED, size: 0x8, addend: 0x0, symName: __ZNSt3__16vectorINS_6threadENS_9allocatorIS1_EEE16__destroy_vectorC2B8ue170006ERS4_, symObjAddr: 0x1B838, symBinAddr: 0x10001F760, symSize: 0x20 }
  - { offsetInCU: 0x44926, offset: 0x44926, size: 0x8, addend: 0x0, symName: __ZNSt3__16vectorINS_6threadENS_9allocatorIS1_EEE7__clearB8ue170006Ev, symObjAddr: 0x1B858, symBinAddr: 0x10001F780, symSize: 0x28 }
  - { offsetInCU: 0x4494C, offset: 0x4494C, size: 0x8, addend: 0x0, symName: __ZNKSt3__16vectorINS_6threadENS_9allocatorIS1_EEE17__annotate_deleteB8ue170006Ev, symObjAddr: 0x1B880, symBinAddr: 0x10001F7A8, symSize: 0xB8 }
  - { offsetInCU: 0x44972, offset: 0x44972, size: 0x8, addend: 0x0, symName: __ZNSt3__116allocator_traitsINS_9allocatorINS_6threadEEEE10deallocateB8ue170006ERS3_PS2_m, symObjAddr: 0x1B938, symBinAddr: 0x10001F860, symSize: 0x34 }
  - { offsetInCU: 0x449B4, offset: 0x449B4, size: 0x8, addend: 0x0, symName: __ZNSt3__16vectorINS_6threadENS_9allocatorIS1_EEE7__allocB8ue170006Ev, symObjAddr: 0x1B96C, symBinAddr: 0x10001F894, symSize: 0x28 }
  - { offsetInCU: 0x449DA, offset: 0x449DA, size: 0x8, addend: 0x0, symName: __ZNKSt3__16vectorINS_6threadENS_9allocatorIS1_EEE8capacityB8ue170006Ev, symObjAddr: 0x1B994, symBinAddr: 0x10001F8BC, symSize: 0x40 }
  - { offsetInCU: 0x44A00, offset: 0x44A00, size: 0x8, addend: 0x0, symName: __ZNSt3__16vectorINS_6threadENS_9allocatorIS1_EEE22__base_destruct_at_endB8ue170006EPS1_, symObjAddr: 0x1B9D4, symBinAddr: 0x10001F8FC, symSize: 0x8C }
  - { offsetInCU: 0x44A44, offset: 0x44A44, size: 0x8, addend: 0x0, symName: __ZNSt3__116allocator_traitsINS_9allocatorINS_6threadEEEE7destroyB8ue170006IS2_vEEvRS3_PT_, symObjAddr: 0x1BA60, symBinAddr: 0x10001F988, symSize: 0x2C }
  - { offsetInCU: 0x44A81, offset: 0x44A81, size: 0x8, addend: 0x0, symName: __ZNSt3__19allocatorINS_6threadEE7destroyB8ue170006EPS1_, symObjAddr: 0x1BAA0, symBinAddr: 0x10001F9C8, symSize: 0x28 }
  - { offsetInCU: 0x44AB5, offset: 0x44AB5, size: 0x8, addend: 0x0, symName: __ZNKSt3__16vectorINS_6threadENS_9allocatorIS1_EEE31__annotate_contiguous_containerB8ue170006EPKvS6_S6_S6_, symObjAddr: 0x1BAC8, symBinAddr: 0x10001F9F0, symSize: 0x20 }
  - { offsetInCU: 0x44B0B, offset: 0x44B0B, size: 0x8, addend: 0x0, symName: __ZNKSt3__16vectorINS_6threadENS_9allocatorIS1_EEE4dataB8ue170006Ev, symObjAddr: 0x1BAE8, symBinAddr: 0x10001FA10, symSize: 0x28 }
  - { offsetInCU: 0x44B31, offset: 0x44B31, size: 0x8, addend: 0x0, symName: __ZNKSt3__16vectorINS_6threadENS_9allocatorIS1_EEE4sizeB8ue170006Ev, symObjAddr: 0x1BB10, symBinAddr: 0x10001FA38, symSize: 0x28 }
  - { offsetInCU: 0x44B57, offset: 0x44B57, size: 0x8, addend: 0x0, symName: __ZNSt3__19allocatorINS_6threadEE10deallocateB8ue170006EPS1_m, symObjAddr: 0x1BB38, symBinAddr: 0x10001FA60, symSize: 0x40 }
  - { offsetInCU: 0x44B99, offset: 0x44B99, size: 0x8, addend: 0x0, symName: __ZNSt3__117__compressed_pairIPNS_6threadENS_9allocatorIS1_EEE6secondB8ue170006Ev, symObjAddr: 0x1BB78, symBinAddr: 0x10001FAA0, symSize: 0x24 }
  - { offsetInCU: 0x44BBF, offset: 0x44BBF, size: 0x8, addend: 0x0, symName: __ZNSt3__122__compressed_pair_elemINS_9allocatorINS_6threadEEELi1ELb1EE5__getB8ue170006Ev, symObjAddr: 0x1BB9C, symBinAddr: 0x10001FAC4, symSize: 0x14 }
  - { offsetInCU: 0x44BE5, offset: 0x44BE5, size: 0x8, addend: 0x0, symName: __ZNKSt3__16vectorINS_6threadENS_9allocatorIS1_EEE9__end_capB8ue170006Ev, symObjAddr: 0x1BBB0, symBinAddr: 0x10001FAD8, symSize: 0x28 }
  - { offsetInCU: 0x44C0B, offset: 0x44C0B, size: 0x8, addend: 0x0, symName: __ZNKSt3__117__compressed_pairIPNS_6threadENS_9allocatorIS1_EEE5firstB8ue170006Ev, symObjAddr: 0x1BBD8, symBinAddr: 0x10001FB00, symSize: 0x24 }
  - { offsetInCU: 0x44C31, offset: 0x44C31, size: 0x8, addend: 0x0, symName: __ZNKSt3__122__compressed_pair_elemIPNS_6threadELi0ELb0EE5__getB8ue170006Ev, symObjAddr: 0x1BBFC, symBinAddr: 0x10001FB24, symSize: 0x14 }
  - { offsetInCU: 0x44C57, offset: 0x44C57, size: 0x8, addend: 0x0, symName: __ZNSt3__16vectorINS_3mapINS_12basic_stringIcNS_11char_traitsIcEENS_9allocatorIcEEEEiNS_4lessIS7_EENS5_INS_4pairIKS7_iEEEEEENS5_ISE_EEEC2Em, symObjAddr: 0x1BC10, symBinAddr: 0x10001FB38, symSize: 0xD4 }
  - { offsetInCU: 0x44CA7, offset: 0x44CA7, size: 0x8, addend: 0x0, symName: __ZNSt3__117__compressed_pairIPNS_3mapINS_12basic_stringIcNS_11char_traitsIcEENS_9allocatorIcEEEEiNS_4lessIS7_EENS5_INS_4pairIKS7_iEEEEEENS5_ISE_EEEC1B8ue170006IDnNS_18__default_init_tagEEEOT_OT0_, symObjAddr: 0x1BCE4, symBinAddr: 0x10001FC0C, symSize: 0x3C }
  - { offsetInCU: 0x44CFF, offset: 0x44CFF, size: 0x8, addend: 0x0, symName: __ZNSt3__16vectorINS_3mapINS_12basic_stringIcNS_11char_traitsIcEENS_9allocatorIcEEEEiNS_4lessIS7_EENS5_INS_4pairIKS7_iEEEEEENS5_ISE_EEE16__destroy_vectorC1B8ue170006ERSG_, symObjAddr: 0x1BD60, symBinAddr: 0x10001FC88, symSize: 0x34 }
  - { offsetInCU: 0x44D38, offset: 0x44D38, size: 0x8, addend: 0x0, symName: __ZNSt3__16vectorINS_3mapINS_12basic_stringIcNS_11char_traitsIcEENS_9allocatorIcEEEEiNS_4lessIS7_EENS5_INS_4pairIKS7_iEEEEEENS5_ISE_EEE11__vallocateB8ue170006Em, symObjAddr: 0x1BD94, symBinAddr: 0x10001FCBC, symSize: 0xB4 }
  - { offsetInCU: 0x44D7C, offset: 0x44D7C, size: 0x8, addend: 0x0, symName: __ZNSt3__16vectorINS_3mapINS_12basic_stringIcNS_11char_traitsIcEENS_9allocatorIcEEEEiNS_4lessIS7_EENS5_INS_4pairIKS7_iEEEEEENS5_ISE_EEE18__construct_at_endEm, symObjAddr: 0x1BE48, symBinAddr: 0x10001FD70, symSize: 0xC8 }
  - { offsetInCU: 0x44DEE, offset: 0x44DEE, size: 0x8, addend: 0x0, symName: __ZNSt3__128__exception_guard_exceptionsINS_6vectorINS_3mapINS_12basic_stringIcNS_11char_traitsIcEENS_9allocatorIcEEEEiNS_4lessIS8_EENS6_INS_4pairIKS8_iEEEEEENS6_ISF_EEE16__destroy_vectorEE10__completeB8ue170006Ev, symObjAddr: 0x1BF10, symBinAddr: 0x10001FE38, symSize: 0x1C }
  - { offsetInCU: 0x44E14, offset: 0x44E14, size: 0x8, addend: 0x0, symName: __ZNSt3__128__exception_guard_exceptionsINS_6vectorINS_3mapINS_12basic_stringIcNS_11char_traitsIcEENS_9allocatorIcEEEEiNS_4lessIS8_EENS6_INS_4pairIKS8_iEEEEEENS6_ISF_EEE16__destroy_vectorEED1B8ue170006Ev, symObjAddr: 0x1BF2C, symBinAddr: 0x10001FE54, symSize: 0x2C }
  - { offsetInCU: 0x44E3E, offset: 0x44E3E, size: 0x8, addend: 0x0, symName: __ZNSt3__117__compressed_pairIPNS_3mapINS_12basic_stringIcNS_11char_traitsIcEENS_9allocatorIcEEEEiNS_4lessIS7_EENS5_INS_4pairIKS7_iEEEEEENS5_ISE_EEEC2B8ue170006IDnNS_18__default_init_tagEEEOT_OT0_, symObjAddr: 0x1BF58, symBinAddr: 0x10001FE80, symSize: 0x40 }
  - { offsetInCU: 0x44E96, offset: 0x44E96, size: 0x8, addend: 0x0, symName: __ZNSt3__122__compressed_pair_elemIPNS_3mapINS_12basic_stringIcNS_11char_traitsIcEENS_9allocatorIcEEEEiNS_4lessIS7_EENS5_INS_4pairIKS7_iEEEEEELi0ELb0EEC2B8ue170006IDnvEEOT_, symObjAddr: 0x1BF98, symBinAddr: 0x10001FEC0, symSize: 0x1C }
  - { offsetInCU: 0x44ED8, offset: 0x44ED8, size: 0x8, addend: 0x0, symName: __ZNSt3__122__compressed_pair_elemINS_9allocatorINS_3mapINS_12basic_stringIcNS_11char_traitsIcEENS1_IcEEEEiNS_4lessIS7_EENS1_INS_4pairIKS7_iEEEEEEEELi1ELb1EEC2B8ue170006ENS_18__default_init_tagE, symObjAddr: 0x1BFB4, symBinAddr: 0x10001FEDC, symSize: 0x2C }
  - { offsetInCU: 0x44F0C, offset: 0x44F0C, size: 0x8, addend: 0x0, symName: __ZNSt3__19allocatorINS_3mapINS_12basic_stringIcNS_11char_traitsIcEENS0_IcEEEEiNS_4lessIS6_EENS0_INS_4pairIKS6_iEEEEEEEC2B8ue170006Ev, symObjAddr: 0x1BFE0, symBinAddr: 0x10001FF08, symSize: 0x2C }
  - { offsetInCU: 0x44F36, offset: 0x44F36, size: 0x8, addend: 0x0, symName: __ZNSt3__116__non_trivial_ifILb1ENS_9allocatorINS_3mapINS_12basic_stringIcNS_11char_traitsIcEENS1_IcEEEEiNS_4lessIS7_EENS1_INS_4pairIKS7_iEEEEEEEEEC2B8ue170006Ev, symObjAddr: 0x1C00C, symBinAddr: 0x10001FF34, symSize: 0x14 }
  - { offsetInCU: 0x44F60, offset: 0x44F60, size: 0x8, addend: 0x0, symName: __ZNSt3__128__exception_guard_exceptionsINS_6vectorINS_3mapINS_12basic_stringIcNS_11char_traitsIcEENS_9allocatorIcEEEEiNS_4lessIS8_EENS6_INS_4pairIKS8_iEEEEEENS6_ISF_EEE16__destroy_vectorEEC1B8ue170006ESI_, symObjAddr: 0x1C020, symBinAddr: 0x10001FF48, symSize: 0x34 }
  - { offsetInCU: 0x44F98, offset: 0x44F98, size: 0x8, addend: 0x0, symName: __ZNSt3__128__exception_guard_exceptionsINS_6vectorINS_3mapINS_12basic_stringIcNS_11char_traitsIcEENS_9allocatorIcEEEEiNS_4lessIS8_EENS6_INS_4pairIKS8_iEEEEEENS6_ISF_EEE16__destroy_vectorEEC2B8ue170006ESI_, symObjAddr: 0x1C054, symBinAddr: 0x10001FF7C, symSize: 0x24 }
  - { offsetInCU: 0x44FD0, offset: 0x44FD0, size: 0x8, addend: 0x0, symName: __ZNSt3__16vectorINS_3mapINS_12basic_stringIcNS_11char_traitsIcEENS_9allocatorIcEEEEiNS_4lessIS7_EENS5_INS_4pairIKS7_iEEEEEENS5_ISE_EEE16__destroy_vectorC2B8ue170006ERSG_, symObjAddr: 0x1C078, symBinAddr: 0x10001FFA0, symSize: 0x20 }
  - { offsetInCU: 0x45009, offset: 0x45009, size: 0x8, addend: 0x0, symName: __ZNKSt3__16vectorINS_3mapINS_12basic_stringIcNS_11char_traitsIcEENS_9allocatorIcEEEEiNS_4lessIS7_EENS5_INS_4pairIKS7_iEEEEEENS5_ISE_EEE8max_sizeEv, symObjAddr: 0x1C098, symBinAddr: 0x10001FFC0, symSize: 0x60 }
  - { offsetInCU: 0x45031, offset: 0x45031, size: 0x8, addend: 0x0, symName: __ZNKSt3__16vectorINS_3mapINS_12basic_stringIcNS_11char_traitsIcEENS_9allocatorIcEEEEiNS_4lessIS7_EENS5_INS_4pairIKS7_iEEEEEENS5_ISE_EEE20__throw_length_errorB8ue170006Ev, symObjAddr: 0x1C0F8, symBinAddr: 0x100020020, symSize: 0x1C }
  - { offsetInCU: 0x45057, offset: 0x45057, size: 0x8, addend: 0x0, symName: __ZNSt3__16vectorINS_3mapINS_12basic_stringIcNS_11char_traitsIcEENS_9allocatorIcEEEEiNS_4lessIS7_EENS5_INS_4pairIKS7_iEEEEEENS5_ISE_EEE7__allocB8ue170006Ev, symObjAddr: 0x1C154, symBinAddr: 0x10002007C, symSize: 0x28 }
  - { offsetInCU: 0x4507D, offset: 0x4507D, size: 0x8, addend: 0x0, symName: __ZNSt3__16vectorINS_3mapINS_12basic_stringIcNS_11char_traitsIcEENS_9allocatorIcEEEEiNS_4lessIS7_EENS5_INS_4pairIKS7_iEEEEEENS5_ISE_EEE9__end_capB8ue170006Ev, symObjAddr: 0x1C17C, symBinAddr: 0x1000200A4, symSize: 0x28 }
  - { offsetInCU: 0x450A3, offset: 0x450A3, size: 0x8, addend: 0x0, symName: __ZNKSt3__16vectorINS_3mapINS_12basic_stringIcNS_11char_traitsIcEENS_9allocatorIcEEEEiNS_4lessIS7_EENS5_INS_4pairIKS7_iEEEEEENS5_ISE_EEE14__annotate_newB8ue170006Em, symObjAddr: 0x1C1A4, symBinAddr: 0x1000200CC, symSize: 0xC8 }
  - { offsetInCU: 0x450E4, offset: 0x450E4, size: 0x8, addend: 0x0, symName: __ZNSt3__116allocator_traitsINS_9allocatorINS_3mapINS_12basic_stringIcNS_11char_traitsIcEENS1_IcEEEEiNS_4lessIS7_EENS1_INS_4pairIKS7_iEEEEEEEEE8max_sizeB8ue170006ISF_vEEmRKSF_, symObjAddr: 0x1C26C, symBinAddr: 0x100020194, symSize: 0x24 }
  - { offsetInCU: 0x45112, offset: 0x45112, size: 0x8, addend: 0x0, symName: __ZNKSt3__16vectorINS_3mapINS_12basic_stringIcNS_11char_traitsIcEENS_9allocatorIcEEEEiNS_4lessIS7_EENS5_INS_4pairIKS7_iEEEEEENS5_ISE_EEE7__allocB8ue170006Ev, symObjAddr: 0x1C290, symBinAddr: 0x1000201B8, symSize: 0x28 }
  - { offsetInCU: 0x45138, offset: 0x45138, size: 0x8, addend: 0x0, symName: __ZNKSt3__19allocatorINS_3mapINS_12basic_stringIcNS_11char_traitsIcEENS0_IcEEEEiNS_4lessIS6_EENS0_INS_4pairIKS6_iEEEEEEE8max_sizeB8ue170006Ev, symObjAddr: 0x1C2B8, symBinAddr: 0x1000201E0, symSize: 0x18 }
  - { offsetInCU: 0x4515E, offset: 0x4515E, size: 0x8, addend: 0x0, symName: __ZNKSt3__117__compressed_pairIPNS_3mapINS_12basic_stringIcNS_11char_traitsIcEENS_9allocatorIcEEEEiNS_4lessIS7_EENS5_INS_4pairIKS7_iEEEEEENS5_ISE_EEE6secondB8ue170006Ev, symObjAddr: 0x1C2D0, symBinAddr: 0x1000201F8, symSize: 0x24 }
  - { offsetInCU: 0x45184, offset: 0x45184, size: 0x8, addend: 0x0, symName: __ZNKSt3__122__compressed_pair_elemINS_9allocatorINS_3mapINS_12basic_stringIcNS_11char_traitsIcEENS1_IcEEEEiNS_4lessIS7_EENS1_INS_4pairIKS7_iEEEEEEEELi1ELb1EE5__getB8ue170006Ev, symObjAddr: 0x1C2F4, symBinAddr: 0x10002021C, symSize: 0x14 }
  - { offsetInCU: 0x451AA, offset: 0x451AA, size: 0x8, addend: 0x0, symName: __ZNSt3__19allocatorINS_3mapINS_12basic_stringIcNS_11char_traitsIcEENS0_IcEEEEiNS_4lessIS6_EENS0_INS_4pairIKS6_iEEEEEEE8allocateB8ue170006Em, symObjAddr: 0x1C308, symBinAddr: 0x100020230, symSize: 0x5C }
  - { offsetInCU: 0x451DE, offset: 0x451DE, size: 0x8, addend: 0x0, symName: __ZNSt3__117__compressed_pairIPNS_3mapINS_12basic_stringIcNS_11char_traitsIcEENS_9allocatorIcEEEEiNS_4lessIS7_EENS5_INS_4pairIKS7_iEEEEEENS5_ISE_EEE6secondB8ue170006Ev, symObjAddr: 0x1C364, symBinAddr: 0x10002028C, symSize: 0x24 }
  - { offsetInCU: 0x45204, offset: 0x45204, size: 0x8, addend: 0x0, symName: __ZNSt3__122__compressed_pair_elemINS_9allocatorINS_3mapINS_12basic_stringIcNS_11char_traitsIcEENS1_IcEEEEiNS_4lessIS7_EENS1_INS_4pairIKS7_iEEEEEEEELi1ELb1EE5__getB8ue170006Ev, symObjAddr: 0x1C388, symBinAddr: 0x1000202B0, symSize: 0x14 }
  - { offsetInCU: 0x4522A, offset: 0x4522A, size: 0x8, addend: 0x0, symName: __ZNSt3__117__compressed_pairIPNS_3mapINS_12basic_stringIcNS_11char_traitsIcEENS_9allocatorIcEEEEiNS_4lessIS7_EENS5_INS_4pairIKS7_iEEEEEENS5_ISE_EEE5firstB8ue170006Ev, symObjAddr: 0x1C39C, symBinAddr: 0x1000202C4, symSize: 0x24 }
  - { offsetInCU: 0x45250, offset: 0x45250, size: 0x8, addend: 0x0, symName: __ZNSt3__122__compressed_pair_elemIPNS_3mapINS_12basic_stringIcNS_11char_traitsIcEENS_9allocatorIcEEEEiNS_4lessIS7_EENS5_INS_4pairIKS7_iEEEEEELi0ELb0EE5__getB8ue170006Ev, symObjAddr: 0x1C3C0, symBinAddr: 0x1000202E8, symSize: 0x14 }
  - { offsetInCU: 0x45276, offset: 0x45276, size: 0x8, addend: 0x0, symName: __ZNKSt3__16vectorINS_3mapINS_12basic_stringIcNS_11char_traitsIcEENS_9allocatorIcEEEEiNS_4lessIS7_EENS5_INS_4pairIKS7_iEEEEEENS5_ISE_EEE31__annotate_contiguous_containerB8ue170006EPKvSI_SI_SI_, symObjAddr: 0x1C3D4, symBinAddr: 0x1000202FC, symSize: 0x20 }
  - { offsetInCU: 0x452CC, offset: 0x452CC, size: 0x8, addend: 0x0, symName: __ZNKSt3__16vectorINS_3mapINS_12basic_stringIcNS_11char_traitsIcEENS_9allocatorIcEEEEiNS_4lessIS7_EENS5_INS_4pairIKS7_iEEEEEENS5_ISE_EEE4dataB8ue170006Ev, symObjAddr: 0x1C3F4, symBinAddr: 0x10002031C, symSize: 0x28 }
  - { offsetInCU: 0x452F2, offset: 0x452F2, size: 0x8, addend: 0x0, symName: __ZNKSt3__16vectorINS_3mapINS_12basic_stringIcNS_11char_traitsIcEENS_9allocatorIcEEEEiNS_4lessIS7_EENS5_INS_4pairIKS7_iEEEEEENS5_ISE_EEE8capacityB8ue170006Ev, symObjAddr: 0x1C41C, symBinAddr: 0x100020344, symSize: 0x40 }
  - { offsetInCU: 0x45318, offset: 0x45318, size: 0x8, addend: 0x0, symName: __ZNKSt3__16vectorINS_3mapINS_12basic_stringIcNS_11char_traitsIcEENS_9allocatorIcEEEEiNS_4lessIS7_EENS5_INS_4pairIKS7_iEEEEEENS5_ISE_EEE9__end_capB8ue170006Ev, symObjAddr: 0x1C470, symBinAddr: 0x100020398, symSize: 0x28 }
  - { offsetInCU: 0x4533E, offset: 0x4533E, size: 0x8, addend: 0x0, symName: __ZNKSt3__117__compressed_pairIPNS_3mapINS_12basic_stringIcNS_11char_traitsIcEENS_9allocatorIcEEEEiNS_4lessIS7_EENS5_INS_4pairIKS7_iEEEEEENS5_ISE_EEE5firstB8ue170006Ev, symObjAddr: 0x1C498, symBinAddr: 0x1000203C0, symSize: 0x24 }
  - { offsetInCU: 0x45364, offset: 0x45364, size: 0x8, addend: 0x0, symName: __ZNKSt3__122__compressed_pair_elemIPNS_3mapINS_12basic_stringIcNS_11char_traitsIcEENS_9allocatorIcEEEEiNS_4lessIS7_EENS5_INS_4pairIKS7_iEEEEEELi0ELb0EE5__getB8ue170006Ev, symObjAddr: 0x1C4BC, symBinAddr: 0x1000203E4, symSize: 0x14 }
  - { offsetInCU: 0x453A8, offset: 0x453A8, size: 0x8, addend: 0x0, symName: __ZNSt3__16vectorINS_3mapINS_12basic_stringIcNS_11char_traitsIcEENS_9allocatorIcEEEEiNS_4lessIS7_EENS5_INS_4pairIKS7_iEEEEEENS5_ISE_EEE21_ConstructTransactionC1B8ue170006ERSG_m, symObjAddr: 0x1C4D0, symBinAddr: 0x1000203F8, symSize: 0x3C }
  - { offsetInCU: 0x453F0, offset: 0x453F0, size: 0x8, addend: 0x0, symName: __ZNSt3__116allocator_traitsINS_9allocatorINS_3mapINS_12basic_stringIcNS_11char_traitsIcEENS1_IcEEEEiNS_4lessIS7_EENS1_INS_4pairIKS7_iEEEEEEEEE9constructB8ue170006ISE_JEvEEvRSF_PT_DpOT0_, symObjAddr: 0x1C50C, symBinAddr: 0x100020434, symSize: 0x2C }
  - { offsetInCU: 0x45432, offset: 0x45432, size: 0x8, addend: 0x0, symName: __ZNSt3__16vectorINS_3mapINS_12basic_stringIcNS_11char_traitsIcEENS_9allocatorIcEEEEiNS_4lessIS7_EENS5_INS_4pairIKS7_iEEEEEENS5_ISE_EEE21_ConstructTransactionD1B8ue170006Ev, symObjAddr: 0x1C538, symBinAddr: 0x100020460, symSize: 0x2C }
  - { offsetInCU: 0x4545C, offset: 0x4545C, size: 0x8, addend: 0x0, symName: __ZNSt3__16vectorINS_3mapINS_12basic_stringIcNS_11char_traitsIcEENS_9allocatorIcEEEEiNS_4lessIS7_EENS5_INS_4pairIKS7_iEEEEEENS5_ISE_EEE21_ConstructTransactionC2B8ue170006ERSG_m, symObjAddr: 0x1C564, symBinAddr: 0x10002048C, symSize: 0x4C }
  - { offsetInCU: 0x454A4, offset: 0x454A4, size: 0x8, addend: 0x0, symName: __ZNSt3__19allocatorINS_3mapINS_12basic_stringIcNS_11char_traitsIcEENS0_IcEEEEiNS_4lessIS6_EENS0_INS_4pairIKS6_iEEEEEEE9constructB8ue170006ISD_JEEEvPT_DpOT0_, symObjAddr: 0x1C5B0, symBinAddr: 0x1000204D8, symSize: 0x28 }
  - { offsetInCU: 0x454E6, offset: 0x454E6, size: 0x8, addend: 0x0, symName: __ZNSt3__16vectorINS_3mapINS_12basic_stringIcNS_11char_traitsIcEENS_9allocatorIcEEEEiNS_4lessIS7_EENS5_INS_4pairIKS7_iEEEEEENS5_ISE_EEE21_ConstructTransactionD2B8ue170006Ev, symObjAddr: 0x1C5D8, symBinAddr: 0x100020500, symSize: 0x20 }
  - { offsetInCU: 0x45510, offset: 0x45510, size: 0x8, addend: 0x0, symName: __ZNSt3__128__exception_guard_exceptionsINS_6vectorINS_3mapINS_12basic_stringIcNS_11char_traitsIcEENS_9allocatorIcEEEEiNS_4lessIS8_EENS6_INS_4pairIKS8_iEEEEEENS6_ISF_EEE16__destroy_vectorEED2B8ue170006Ev, symObjAddr: 0x1C5F8, symBinAddr: 0x100020520, symSize: 0x50 }
  - { offsetInCU: 0x4553A, offset: 0x4553A, size: 0x8, addend: 0x0, symName: __ZNSt3__16vectorINS_3mapINS_12basic_stringIcNS_11char_traitsIcEENS_9allocatorIcEEEEiNS_4lessIS7_EENS5_INS_4pairIKS7_iEEEEEENS5_ISE_EEE16__destroy_vectorclB8ue170006Ev, symObjAddr: 0x1C648, symBinAddr: 0x100020570, symSize: 0x90 }
  - { offsetInCU: 0x45560, offset: 0x45560, size: 0x8, addend: 0x0, symName: __ZNSt3__16vectorINS_3mapINS_12basic_stringIcNS_11char_traitsIcEENS_9allocatorIcEEEEiNS_4lessIS7_EENS5_INS_4pairIKS7_iEEEEEENS5_ISE_EEE7__clearB8ue170006Ev, symObjAddr: 0x1C6D8, symBinAddr: 0x100020600, symSize: 0x28 }
  - { offsetInCU: 0x45586, offset: 0x45586, size: 0x8, addend: 0x0, symName: __ZNKSt3__16vectorINS_3mapINS_12basic_stringIcNS_11char_traitsIcEENS_9allocatorIcEEEEiNS_4lessIS7_EENS5_INS_4pairIKS7_iEEEEEENS5_ISE_EEE17__annotate_deleteB8ue170006Ev, symObjAddr: 0x1C700, symBinAddr: 0x100020628, symSize: 0xD4 }
  - { offsetInCU: 0x455AC, offset: 0x455AC, size: 0x8, addend: 0x0, symName: __ZNSt3__116allocator_traitsINS_9allocatorINS_3mapINS_12basic_stringIcNS_11char_traitsIcEENS1_IcEEEEiNS_4lessIS7_EENS1_INS_4pairIKS7_iEEEEEEEEE10deallocateB8ue170006ERSF_PSE_m, symObjAddr: 0x1C7D4, symBinAddr: 0x1000206FC, symSize: 0x34 }
  - { offsetInCU: 0x455EE, offset: 0x455EE, size: 0x8, addend: 0x0, symName: __ZNSt3__16vectorINS_3mapINS_12basic_stringIcNS_11char_traitsIcEENS_9allocatorIcEEEEiNS_4lessIS7_EENS5_INS_4pairIKS7_iEEEEEENS5_ISE_EEE22__base_destruct_at_endB8ue170006EPSE_, symObjAddr: 0x1C808, symBinAddr: 0x100020730, symSize: 0x8C }
  - { offsetInCU: 0x45632, offset: 0x45632, size: 0x8, addend: 0x0, symName: __ZNSt3__116allocator_traitsINS_9allocatorINS_3mapINS_12basic_stringIcNS_11char_traitsIcEENS1_IcEEEEiNS_4lessIS7_EENS1_INS_4pairIKS7_iEEEEEEEEE7destroyB8ue170006ISE_vEEvRSF_PT_, symObjAddr: 0x1C894, symBinAddr: 0x1000207BC, symSize: 0x2C }
  - { offsetInCU: 0x4566F, offset: 0x4566F, size: 0x8, addend: 0x0, symName: __ZNSt3__19allocatorINS_3mapINS_12basic_stringIcNS_11char_traitsIcEENS0_IcEEEEiNS_4lessIS6_EENS0_INS_4pairIKS6_iEEEEEEE7destroyB8ue170006EPSD_, symObjAddr: 0x1C8C0, symBinAddr: 0x1000207E8, symSize: 0x28 }
  - { offsetInCU: 0x456A3, offset: 0x456A3, size: 0x8, addend: 0x0, symName: __ZNKSt3__16vectorINS_3mapINS_12basic_stringIcNS_11char_traitsIcEENS_9allocatorIcEEEEiNS_4lessIS7_EENS5_INS_4pairIKS7_iEEEEEENS5_ISE_EEE4sizeB8ue170006Ev, symObjAddr: 0x1C8E8, symBinAddr: 0x100020810, symSize: 0x28 }
  - { offsetInCU: 0x456C9, offset: 0x456C9, size: 0x8, addend: 0x0, symName: __ZNSt3__19allocatorINS_3mapINS_12basic_stringIcNS_11char_traitsIcEENS0_IcEEEEiNS_4lessIS6_EENS0_INS_4pairIKS6_iEEEEEEE10deallocateB8ue170006EPSD_m, symObjAddr: 0x1C910, symBinAddr: 0x100020838, symSize: 0x44 }
  - { offsetInCU: 0x4570B, offset: 0x4570B, size: 0x8, addend: 0x0, symName: __ZNSt3__16vectorINS_3mapINS_12basic_stringIcNS_11char_traitsIcEENS_9allocatorIcEEEEiNS_4lessIS7_EENS5_INS_4pairIKS7_iEEEEEENS5_ISE_EEED2B8ue170006Ev, symObjAddr: 0x1C954, symBinAddr: 0x10002087C, symSize: 0x40 }
  - { offsetInCU: 0x4573B, offset: 0x4573B, size: 0x8, addend: 0x0, symName: __ZNSt3__117reference_wrapperINS_6vectorIP4CellNS_9allocatorIS3_EEEEEC1B8ue170006IRS6_vEEOT_, symObjAddr: 0x1C994, symBinAddr: 0x1000208BC, symSize: 0x34 }
  - { offsetInCU: 0x4577D, offset: 0x4577D, size: 0x8, addend: 0x0, symName: __ZNSt3__117reference_wrapperINS_6vectorIP4CellNS_9allocatorIS3_EEEEEC2B8ue170006IRS6_vEEOT_, symObjAddr: 0x1C9C8, symBinAddr: 0x1000208F0, symSize: 0x28 }
  - { offsetInCU: 0x457E1, offset: 0x457E1, size: 0x8, addend: 0x0, symName: __ZNSt3__117reference_wrapperINS_3mapINS_12basic_stringIcNS_11char_traitsIcEENS_9allocatorIcEEEEiNS_4lessIS7_EENS5_INS_4pairIKS7_iEEEEEEEC1B8ue170006IRSE_vEEOT_, symObjAddr: 0x1C9F0, symBinAddr: 0x100020918, symSize: 0x34 }
  - { offsetInCU: 0x45823, offset: 0x45823, size: 0x8, addend: 0x0, symName: __ZNSt3__117reference_wrapperINS_3mapINS_12basic_stringIcNS_11char_traitsIcEENS_9allocatorIcEEEEiNS_4lessIS7_EENS5_INS_4pairIKS7_iEEEEEEEC2B8ue170006IRSE_vEEOT_, symObjAddr: 0x1CA24, symBinAddr: 0x10002094C, symSize: 0x28 }
  - { offsetInCU: 0x45881, offset: 0x45881, size: 0x8, addend: 0x0, symName: __ZNSt3__16vectorINS_6threadENS_9allocatorIS1_EEE9__end_capB8ue170006Ev, symObjAddr: 0x1CA4C, symBinAddr: 0x100020974, symSize: 0x28 }
  - { offsetInCU: 0x458A7, offset: 0x458A7, size: 0x8, addend: 0x0, symName: __ZNSt3__16vectorINS_6threadENS_9allocatorIS1_EEE22__construct_one_at_endB8ue170006IJRFvRNS0_IP4CellNS2_IS7_EEEERNS_3mapINS_12basic_stringIcNS_11char_traitsIcEENS2_IcEEEEiNS_4lessISG_EENS2_INS_4pairIKSG_iEEEEEEiiENS_17reference_wrapperIS9_EENSR_ISN_EERiSU_EEEvDpOT_, symObjAddr: 0x1CA74, symBinAddr: 0x10002099C, symSize: 0xB0 }
  - { offsetInCU: 0x45946, offset: 0x45946, size: 0x8, addend: 0x0, symName: __ZNSt3__16vectorINS_6threadENS_9allocatorIS1_EEE24__emplace_back_slow_pathIJRFvRNS0_IP4CellNS2_IS7_EEEERNS_3mapINS_12basic_stringIcNS_11char_traitsIcEENS2_IcEEEEiNS_4lessISG_EENS2_INS_4pairIKSG_iEEEEEEiiENS_17reference_wrapperIS9_EENSR_ISN_EERiSU_EEEvDpOT_, symObjAddr: 0x1CB24, symBinAddr: 0x100020A4C, symSize: 0xF8 }
  - { offsetInCU: 0x459F6, offset: 0x459F6, size: 0x8, addend: 0x0, symName: __ZNSt3__117__compressed_pairIPNS_6threadENS_9allocatorIS1_EEE5firstB8ue170006Ev, symObjAddr: 0x1CC1C, symBinAddr: 0x100020B44, symSize: 0x24 }
  - { offsetInCU: 0x45A1C, offset: 0x45A1C, size: 0x8, addend: 0x0, symName: __ZNSt3__122__compressed_pair_elemIPNS_6threadELi0ELb0EE5__getB8ue170006Ev, symObjAddr: 0x1CC40, symBinAddr: 0x100020B68, symSize: 0x14 }
  - { offsetInCU: 0x45A60, offset: 0x45A60, size: 0x8, addend: 0x0, symName: __ZNSt3__16vectorINS_6threadENS_9allocatorIS1_EEE21_ConstructTransactionC1B8ue170006ERS4_m, symObjAddr: 0x1CC54, symBinAddr: 0x100020B7C, symSize: 0x3C }
  - { offsetInCU: 0x45AA8, offset: 0x45AA8, size: 0x8, addend: 0x0, symName: __ZNSt3__116allocator_traitsINS_9allocatorINS_6threadEEEE9constructB8ue170006IS2_JRFvRNS_6vectorIP4CellNS1_IS8_EEEERNS_3mapINS_12basic_stringIcNS_11char_traitsIcEENS1_IcEEEEiNS_4lessISH_EENS1_INS_4pairIKSH_iEEEEEEiiENS_17reference_wrapperISA_EENSS_ISO_EERiSV_EvEEvRS3_PT_DpOT0_, symObjAddr: 0x1CC90, symBinAddr: 0x100020BB8, symSize: 0x54 }
  - { offsetInCU: 0x45B4F, offset: 0x45B4F, size: 0x8, addend: 0x0, symName: __ZNSt3__16vectorINS_6threadENS_9allocatorIS1_EEE21_ConstructTransactionD1B8ue170006Ev, symObjAddr: 0x1CCE4, symBinAddr: 0x100020C0C, symSize: 0x2C }
  - { offsetInCU: 0x45B79, offset: 0x45B79, size: 0x8, addend: 0x0, symName: __ZNSt3__16vectorINS_6threadENS_9allocatorIS1_EEE21_ConstructTransactionC2B8ue170006ERS4_m, symObjAddr: 0x1CD10, symBinAddr: 0x100020C38, symSize: 0x44 }
  - { offsetInCU: 0x45BC1, offset: 0x45BC1, size: 0x8, addend: 0x0, symName: __ZNSt3__19allocatorINS_6threadEE9constructB8ue170006IS1_JRFvRNS_6vectorIP4CellNS0_IS6_EEEERNS_3mapINS_12basic_stringIcNS_11char_traitsIcEENS0_IcEEEEiNS_4lessISF_EENS0_INS_4pairIKSF_iEEEEEEiiENS_17reference_wrapperIS8_EENSQ_ISM_EERiST_EEEvPT_DpOT0_, symObjAddr: 0x1CD54, symBinAddr: 0x100020C7C, symSize: 0x50 }
  - { offsetInCU: 0x45C63, offset: 0x45C63, size: 0x8, addend: 0x0, symName: __ZNSt3__16threadC1IRFvRNS_6vectorIP4CellNS_9allocatorIS4_EEEERNS_3mapINS_12basic_stringIcNS_11char_traitsIcEENS5_IcEEEEiNS_4lessISE_EENS5_INS_4pairIKSE_iEEEEEEiiEJNS_17reference_wrapperIS7_EENSP_ISL_EERiSS_EvEEOT_DpOT0_, symObjAddr: 0x1CDA4, symBinAddr: 0x100020CCC, symSize: 0x54 }
  - { offsetInCU: 0x45CF7, offset: 0x45CF7, size: 0x8, addend: 0x0, symName: __ZNSt3__16threadC2IRFvRNS_6vectorIP4CellNS_9allocatorIS4_EEEERNS_3mapINS_12basic_stringIcNS_11char_traitsIcEENS5_IcEEEEiNS_4lessISE_EENS5_INS_4pairIKSE_iEEEEEEiiEJNS_17reference_wrapperIS7_EENSP_ISL_EERiSS_EvEEOT_DpOT0_, symObjAddr: 0x1CDF8, symBinAddr: 0x100020D20, symSize: 0x168 }
  - { offsetInCU: 0x45DBB, offset: 0x45DBB, size: 0x8, addend: 0x0, symName: __ZNSt3__110unique_ptrINS_15__thread_structENS_14default_deleteIS1_EEEC1B8ue170006ILb1EvEEPS1_, symObjAddr: 0x1CF60, symBinAddr: 0x100020E88, symSize: 0x34 }
  - { offsetInCU: 0x45DFE, offset: 0x45DFE, size: 0x8, addend: 0x0, symName: __ZNSt3__15tupleIJNS_10unique_ptrINS_15__thread_structENS_14default_deleteIS2_EEEEPFvRNS_6vectorIP4CellNS_9allocatorIS8_EEEERNS_3mapINS_12basic_stringIcNS_11char_traitsIcEENS9_IcEEEEiNS_4lessISI_EENS9_INS_4pairIKSI_iEEEEEEiiENS_17reference_wrapperISB_EENST_ISP_EEiiEEC1B8ue170006IJS5_RSR_SU_SV_RiSZ_ELi0EEEDpOT_, symObjAddr: 0x1CF94, symBinAddr: 0x100020EBC, symSize: 0x5C }
  - { offsetInCU: 0x45F5A, offset: 0x45F5A, size: 0x8, addend: 0x0, symName: __ZNSt3__110unique_ptrINS_5tupleIJNS0_INS_15__thread_structENS_14default_deleteIS2_EEEEPFvRNS_6vectorIP4CellNS_9allocatorIS8_EEEERNS_3mapINS_12basic_stringIcNS_11char_traitsIcEENS9_IcEEEEiNS_4lessISI_EENS9_INS_4pairIKSI_iEEEEEEiiENS_17reference_wrapperISB_EENST_ISP_EEiiEEENS3_ISW_EEEC1B8ue170006ILb1EvEEPSW_, symObjAddr: 0x1CFF0, symBinAddr: 0x100020F18, symSize: 0x34 }
  - { offsetInCU: 0x45F9D, offset: 0x45F9D, size: 0x8, addend: 0x0, symName: __ZNKSt3__110unique_ptrINS_5tupleIJNS0_INS_15__thread_structENS_14default_deleteIS2_EEEEPFvRNS_6vectorIP4CellNS_9allocatorIS8_EEEERNS_3mapINS_12basic_stringIcNS_11char_traitsIcEENS9_IcEEEEiNS_4lessISI_EENS9_INS_4pairIKSI_iEEEEEEiiENS_17reference_wrapperISB_EENST_ISP_EEiiEEENS3_ISW_EEE3getB8ue170006Ev, symObjAddr: 0x1D0EC, symBinAddr: 0x100021014, symSize: 0x28 }
  - { offsetInCU: 0x45FC3, offset: 0x45FC3, size: 0x8, addend: 0x0, symName: __ZNSt3__110unique_ptrINS_5tupleIJNS0_INS_15__thread_structENS_14default_deleteIS2_EEEEPFvRNS_6vectorIP4CellNS_9allocatorIS8_EEEERNS_3mapINS_12basic_stringIcNS_11char_traitsIcEENS9_IcEEEEiNS_4lessISI_EENS9_INS_4pairIKSI_iEEEEEEiiENS_17reference_wrapperISB_EENST_ISP_EEiiEEENS3_ISW_EEE7releaseB8ue170006Ev, symObjAddr: 0x1D114, symBinAddr: 0x10002103C, symSize: 0x44 }
  - { offsetInCU: 0x45FF8, offset: 0x45FF8, size: 0x8, addend: 0x0, symName: __ZNSt3__110unique_ptrINS_5tupleIJNS0_INS_15__thread_structENS_14default_deleteIS2_EEEEPFvRNS_6vectorIP4CellNS_9allocatorIS8_EEEERNS_3mapINS_12basic_stringIcNS_11char_traitsIcEENS9_IcEEEEiNS_4lessISI_EENS9_INS_4pairIKSI_iEEEEEEiiENS_17reference_wrapperISB_EENST_ISP_EEiiEEENS3_ISW_EEED1B8ue170006Ev, symObjAddr: 0x1D158, symBinAddr: 0x100021080, symSize: 0x2C }
  - { offsetInCU: 0x46022, offset: 0x46022, size: 0x8, addend: 0x0, symName: __ZNSt3__110unique_ptrINS_15__thread_structENS_14default_deleteIS1_EEED1B8ue170006Ev, symObjAddr: 0x1D184, symBinAddr: 0x1000210AC, symSize: 0x2C }
  - { offsetInCU: 0x4604C, offset: 0x4604C, size: 0x8, addend: 0x0, symName: __ZNSt3__110unique_ptrINS_15__thread_structENS_14default_deleteIS1_EEEC2B8ue170006ILb1EvEEPS1_, symObjAddr: 0x1D1B0, symBinAddr: 0x1000210D8, symSize: 0x44 }
  - { offsetInCU: 0x46095, offset: 0x46095, size: 0x8, addend: 0x0, symName: __ZNSt3__117__compressed_pairIPNS_15__thread_structENS_14default_deleteIS1_EEEC1B8ue170006IRS2_NS_16__value_init_tagEEEOT_OT0_, symObjAddr: 0x1D1F4, symBinAddr: 0x10002111C, symSize: 0x3C }
  - { offsetInCU: 0x460ED, offset: 0x460ED, size: 0x8, addend: 0x0, symName: __ZNSt3__117__compressed_pairIPNS_15__thread_structENS_14default_deleteIS1_EEEC2B8ue170006IRS2_NS_16__value_init_tagEEEOT_OT0_, symObjAddr: 0x1D230, symBinAddr: 0x100021158, symSize: 0x40 }
  - { offsetInCU: 0x46145, offset: 0x46145, size: 0x8, addend: 0x0, symName: __ZNSt3__122__compressed_pair_elemIPNS_15__thread_structELi0ELb0EEC2B8ue170006IRS2_vEEOT_, symObjAddr: 0x1D270, symBinAddr: 0x100021198, symSize: 0x24 }
  - { offsetInCU: 0x46187, offset: 0x46187, size: 0x8, addend: 0x0, symName: __ZNSt3__122__compressed_pair_elemINS_14default_deleteINS_15__thread_structEEELi1ELb1EEC2B8ue170006ENS_16__value_init_tagE, symObjAddr: 0x1D294, symBinAddr: 0x1000211BC, symSize: 0x14 }
  - { offsetInCU: 0x461BB, offset: 0x461BB, size: 0x8, addend: 0x0, symName: __ZNSt3__15tupleIJNS_10unique_ptrINS_15__thread_structENS_14default_deleteIS2_EEEEPFvRNS_6vectorIP4CellNS_9allocatorIS8_EEEERNS_3mapINS_12basic_stringIcNS_11char_traitsIcEENS9_IcEEEEiNS_4lessISI_EENS9_INS_4pairIKSI_iEEEEEEiiENS_17reference_wrapperISB_EENST_ISP_EEiiEEC2B8ue170006IJS5_RSR_SU_SV_RiSZ_ELi0EEEDpOT_, symObjAddr: 0x1D2A8, symBinAddr: 0x1000211D0, symSize: 0x5C }
  - { offsetInCU: 0x46269, offset: 0x46269, size: 0x8, addend: 0x0, symName: __ZNSt3__112__tuple_implINS_15__tuple_indicesIJLm0ELm1ELm2ELm3ELm4ELm5EEEEJNS_10unique_ptrINS_15__thread_structENS_14default_deleteIS4_EEEEPFvRNS_6vectorIP4CellNS_9allocatorISA_EEEERNS_3mapINS_12basic_stringIcNS_11char_traitsIcEENSB_IcEEEEiNS_4lessISK_EENSB_INS_4pairIKSK_iEEEEEEiiENS_17reference_wrapperISD_EENSV_ISR_EEiiEEC1B8ue170006IJLm0ELm1ELm2ELm3ELm4ELm5EEJS7_SU_SW_SX_iiEJEJEJS7_RST_SW_SX_RiS11_EEENS1_IJXspT_EEEENS_13__tuple_typesIJDpT0_EEENS1_IJXspT1_EEEENS13_IJDpT2_EEEDpOT3_, symObjAddr: 0x1D304, symBinAddr: 0x10002122C, symSize: 0x5C }
  - { offsetInCU: 0x46399, offset: 0x46399, size: 0x8, addend: 0x0, symName: __ZNSt3__112__tuple_implINS_15__tuple_indicesIJLm0ELm1ELm2ELm3ELm4ELm5EEEEJNS_10unique_ptrINS_15__thread_structENS_14default_deleteIS4_EEEEPFvRNS_6vectorIP4CellNS_9allocatorISA_EEEERNS_3mapINS_12basic_stringIcNS_11char_traitsIcEENSB_IcEEEEiNS_4lessISK_EENSB_INS_4pairIKSK_iEEEEEEiiENS_17reference_wrapperISD_EENSV_ISR_EEiiEEC2B8ue170006IJLm0ELm1ELm2ELm3ELm4ELm5EEJS7_SU_SW_SX_iiEJEJEJS7_RST_SW_SX_RiS11_EEENS1_IJXspT_EEEENS_13__tuple_typesIJDpT0_EEENS1_IJXspT1_EEEENS13_IJDpT2_EEEDpOT3_, symObjAddr: 0x1D360, symBinAddr: 0x100021288, symSize: 0x98 }
  - { offsetInCU: 0x464C9, offset: 0x464C9, size: 0x8, addend: 0x0, symName: __ZNSt3__112__tuple_leafILm0ENS_10unique_ptrINS_15__thread_structENS_14default_deleteIS2_EEEELb0EEC2B8ue170006IS5_vEEOT_, symObjAddr: 0x1D3F8, symBinAddr: 0x100021320, symSize: 0x34 }
  - { offsetInCU: 0x4650C, offset: 0x4650C, size: 0x8, addend: 0x0, symName: __ZNSt3__112__tuple_leafILm1EPFvRNS_6vectorIP4CellNS_9allocatorIS3_EEEERNS_3mapINS_12basic_stringIcNS_11char_traitsIcEENS4_IcEEEEiNS_4lessISD_EENS4_INS_4pairIKSD_iEEEEEEiiELb0EEC2B8ue170006IRSM_vEEOT_, symObjAddr: 0x1D42C, symBinAddr: 0x100021354, symSize: 0x20 }
  - { offsetInCU: 0x4654F, offset: 0x4654F, size: 0x8, addend: 0x0, symName: __ZNSt3__112__tuple_leafILm2ENS_17reference_wrapperINS_6vectorIP4CellNS_9allocatorIS4_EEEEEELb0EEC2B8ue170006IS8_vEEOT_, symObjAddr: 0x1D44C, symBinAddr: 0x100021374, symSize: 0x24 }
  - { offsetInCU: 0x46592, offset: 0x46592, size: 0x8, addend: 0x0, symName: __ZNSt3__112__tuple_leafILm3ENS_17reference_wrapperINS_3mapINS_12basic_stringIcNS_11char_traitsIcEENS_9allocatorIcEEEEiNS_4lessIS8_EENS6_INS_4pairIKS8_iEEEEEEEELb0EEC2B8ue170006ISG_vEEOT_, symObjAddr: 0x1D470, symBinAddr: 0x100021398, symSize: 0x24 }
  - { offsetInCU: 0x465D5, offset: 0x465D5, size: 0x8, addend: 0x0, symName: __ZNSt3__112__tuple_leafILm4EiLb0EEC2B8ue170006IRivEEOT_, symObjAddr: 0x1D494, symBinAddr: 0x1000213BC, symSize: 0x24 }
  - { offsetInCU: 0x46618, offset: 0x46618, size: 0x8, addend: 0x0, symName: __ZNSt3__112__tuple_leafILm5EiLb0EEC2B8ue170006IRivEEOT_, symObjAddr: 0x1D4B8, symBinAddr: 0x1000213E0, symSize: 0x24 }
  - { offsetInCU: 0x4665B, offset: 0x4665B, size: 0x8, addend: 0x0, symName: __ZNSt3__110unique_ptrINS_15__thread_structENS_14default_deleteIS1_EEEC1B8ue170006EOS4_, symObjAddr: 0x1D4DC, symBinAddr: 0x100021404, symSize: 0x34 }
  - { offsetInCU: 0x46693, offset: 0x46693, size: 0x8, addend: 0x0, symName: __ZNSt3__110unique_ptrINS_15__thread_structENS_14default_deleteIS1_EEEC2B8ue170006EOS4_, symObjAddr: 0x1D510, symBinAddr: 0x100021438, symSize: 0x60 }
  - { offsetInCU: 0x466CB, offset: 0x466CB, size: 0x8, addend: 0x0, symName: __ZNSt3__110unique_ptrINS_15__thread_structENS_14default_deleteIS1_EEE7releaseB8ue170006Ev, symObjAddr: 0x1D570, symBinAddr: 0x100021498, symSize: 0x44 }
  - { offsetInCU: 0x46700, offset: 0x46700, size: 0x8, addend: 0x0, symName: __ZNSt3__110unique_ptrINS_15__thread_structENS_14default_deleteIS1_EEE11get_deleterB8ue170006Ev, symObjAddr: 0x1D5B4, symBinAddr: 0x1000214DC, symSize: 0x24 }
  - { offsetInCU: 0x46732, offset: 0x46732, size: 0x8, addend: 0x0, symName: __ZNSt3__117__compressed_pairIPNS_15__thread_structENS_14default_deleteIS1_EEEC1B8ue170006IS2_S4_EEOT_OT0_, symObjAddr: 0x1D5D8, symBinAddr: 0x100021500, symSize: 0x3C }
  - { offsetInCU: 0x4678A, offset: 0x4678A, size: 0x8, addend: 0x0, symName: __ZNSt3__117__compressed_pairIPNS_15__thread_structENS_14default_deleteIS1_EEE5firstB8ue170006Ev, symObjAddr: 0x1D614, symBinAddr: 0x10002153C, symSize: 0x24 }
  - { offsetInCU: 0x467B0, offset: 0x467B0, size: 0x8, addend: 0x0, symName: __ZNSt3__122__compressed_pair_elemIPNS_15__thread_structELi0ELb0EE5__getB8ue170006Ev, symObjAddr: 0x1D638, symBinAddr: 0x100021560, symSize: 0x14 }
  - { offsetInCU: 0x467D6, offset: 0x467D6, size: 0x8, addend: 0x0, symName: __ZNSt3__117__compressed_pairIPNS_15__thread_structENS_14default_deleteIS1_EEE6secondB8ue170006Ev, symObjAddr: 0x1D64C, symBinAddr: 0x100021574, symSize: 0x24 }
  - { offsetInCU: 0x467FC, offset: 0x467FC, size: 0x8, addend: 0x0, symName: __ZNSt3__122__compressed_pair_elemINS_14default_deleteINS_15__thread_structEEELi1ELb1EE5__getB8ue170006Ev, symObjAddr: 0x1D670, symBinAddr: 0x100021598, symSize: 0x14 }
  - { offsetInCU: 0x46822, offset: 0x46822, size: 0x8, addend: 0x0, symName: __ZNSt3__117__compressed_pairIPNS_15__thread_structENS_14default_deleteIS1_EEEC2B8ue170006IS2_S4_EEOT_OT0_, symObjAddr: 0x1D684, symBinAddr: 0x1000215AC, symSize: 0x44 }
  - { offsetInCU: 0x4687A, offset: 0x4687A, size: 0x8, addend: 0x0, symName: __ZNSt3__122__compressed_pair_elemIPNS_15__thread_structELi0ELb0EEC2B8ue170006IS2_vEEOT_, symObjAddr: 0x1D6C8, symBinAddr: 0x1000215F0, symSize: 0x24 }
  - { offsetInCU: 0x468BC, offset: 0x468BC, size: 0x8, addend: 0x0, symName: __ZNSt3__122__compressed_pair_elemINS_14default_deleteINS_15__thread_structEEELi1ELb1EEC2B8ue170006IS3_vEEOT_, symObjAddr: 0x1D6EC, symBinAddr: 0x100021614, symSize: 0x18 }
  - { offsetInCU: 0x468FE, offset: 0x468FE, size: 0x8, addend: 0x0, symName: __ZNSt3__110unique_ptrINS_5tupleIJNS0_INS_15__thread_structENS_14default_deleteIS2_EEEEPFvRNS_6vectorIP4CellNS_9allocatorIS8_EEEERNS_3mapINS_12basic_stringIcNS_11char_traitsIcEENS9_IcEEEEiNS_4lessISI_EENS9_INS_4pairIKSI_iEEEEEEiiENS_17reference_wrapperISB_EENST_ISP_EEiiEEENS3_ISW_EEEC2B8ue170006ILb1EvEEPSW_, symObjAddr: 0x1D704, symBinAddr: 0x10002162C, symSize: 0x44 }
  - { offsetInCU: 0x46941, offset: 0x46941, size: 0x8, addend: 0x0, symName: __ZNSt3__117__compressed_pairIPNS_5tupleIJNS_10unique_ptrINS_15__thread_structENS_14default_deleteIS3_EEEEPFvRNS_6vectorIP4CellNS_9allocatorIS9_EEEERNS_3mapINS_12basic_stringIcNS_11char_traitsIcEENSA_IcEEEEiNS_4lessISJ_EENSA_INS_4pairIKSJ_iEEEEEEiiENS_17reference_wrapperISC_EENSU_ISQ_EEiiEEENS4_ISX_EEEC1B8ue170006IRSY_NS_16__value_init_tagEEEOT_OT0_, symObjAddr: 0x1D748, symBinAddr: 0x100021670, symSize: 0x3C }
  - { offsetInCU: 0x46999, offset: 0x46999, size: 0x8, addend: 0x0, symName: __ZNSt3__117__compressed_pairIPNS_5tupleIJNS_10unique_ptrINS_15__thread_structENS_14default_deleteIS3_EEEEPFvRNS_6vectorIP4CellNS_9allocatorIS9_EEEERNS_3mapINS_12basic_stringIcNS_11char_traitsIcEENSA_IcEEEEiNS_4lessISJ_EENSA_INS_4pairIKSJ_iEEEEEEiiENS_17reference_wrapperISC_EENSU_ISQ_EEiiEEENS4_ISX_EEEC2B8ue170006IRSY_NS_16__value_init_tagEEEOT_OT0_, symObjAddr: 0x1D784, symBinAddr: 0x1000216AC, symSize: 0x40 }
  - { offsetInCU: 0x469F1, offset: 0x469F1, size: 0x8, addend: 0x0, symName: __ZNSt3__122__compressed_pair_elemIPNS_5tupleIJNS_10unique_ptrINS_15__thread_structENS_14default_deleteIS3_EEEEPFvRNS_6vectorIP4CellNS_9allocatorIS9_EEEERNS_3mapINS_12basic_stringIcNS_11char_traitsIcEENSA_IcEEEEiNS_4lessISJ_EENSA_INS_4pairIKSJ_iEEEEEEiiENS_17reference_wrapperISC_EENSU_ISQ_EEiiEEELi0ELb0EEC2B8ue170006IRSY_vEEOT_, symObjAddr: 0x1D7C4, symBinAddr: 0x1000216EC, symSize: 0x24 }
  - { offsetInCU: 0x46A33, offset: 0x46A33, size: 0x8, addend: 0x0, symName: __ZNSt3__122__compressed_pair_elemINS_14default_deleteINS_5tupleIJNS_10unique_ptrINS_15__thread_structENS1_IS4_EEEEPFvRNS_6vectorIP4CellNS_9allocatorIS9_EEEERNS_3mapINS_12basic_stringIcNS_11char_traitsIcEENSA_IcEEEEiNS_4lessISJ_EENSA_INS_4pairIKSJ_iEEEEEEiiENS_17reference_wrapperISC_EENSU_ISQ_EEiiEEEEELi1ELb1EEC2B8ue170006ENS_16__value_init_tagE, symObjAddr: 0x1D7E8, symBinAddr: 0x100021710, symSize: 0x14 }
  - { offsetInCU: 0x46A9B, offset: 0x46A9B, size: 0x8, addend: 0x0, symName: __ZNSt3__121__thread_specific_ptrINS_15__thread_structEE11set_pointerEPS1_, symObjAddr: 0x1D7FC, symBinAddr: 0x100021724, symSize: 0x30 }
  - { offsetInCU: 0x46AD0, offset: 0x46AD0, size: 0x8, addend: 0x0, symName: __ZNSt3__112__tuple_leafILm0ENS_10unique_ptrINS_15__thread_structENS_14default_deleteIS2_EEEELb0EE3getB8ue170006Ev, symObjAddr: 0x1D8E8, symBinAddr: 0x100021810, symSize: 0x14 }
  - { offsetInCU: 0x46AF6, offset: 0x46AF6, size: 0x8, addend: 0x0, symName: __ZNKSt3__117reference_wrapperINS_6vectorIP4CellNS_9allocatorIS3_EEEEEcvRS6_B8ue170006Ev, symObjAddr: 0x1DA30, symBinAddr: 0x100021958, symSize: 0x18 }
  - { offsetInCU: 0x46B1C, offset: 0x46B1C, size: 0x8, addend: 0x0, symName: __ZNKSt3__117reference_wrapperINS_3mapINS_12basic_stringIcNS_11char_traitsIcEENS_9allocatorIcEEEEiNS_4lessIS7_EENS5_INS_4pairIKS7_iEEEEEEEcvRSE_B8ue170006Ev, symObjAddr: 0x1DA48, symBinAddr: 0x100021970, symSize: 0x18 }
  - { offsetInCU: 0x46B42, offset: 0x46B42, size: 0x8, addend: 0x0, symName: __ZNSt3__112__tuple_leafILm1EPFvRNS_6vectorIP4CellNS_9allocatorIS3_EEEERNS_3mapINS_12basic_stringIcNS_11char_traitsIcEENS4_IcEEEEiNS_4lessISD_EENS4_INS_4pairIKSD_iEEEEEEiiELb0EE3getB8ue170006Ev, symObjAddr: 0x1DA60, symBinAddr: 0x100021988, symSize: 0x14 }
  - { offsetInCU: 0x46B68, offset: 0x46B68, size: 0x8, addend: 0x0, symName: __ZNSt3__112__tuple_leafILm2ENS_17reference_wrapperINS_6vectorIP4CellNS_9allocatorIS4_EEEEEELb0EE3getB8ue170006Ev, symObjAddr: 0x1DA74, symBinAddr: 0x10002199C, symSize: 0x14 }
  - { offsetInCU: 0x46B8E, offset: 0x46B8E, size: 0x8, addend: 0x0, symName: __ZNSt3__112__tuple_leafILm3ENS_17reference_wrapperINS_3mapINS_12basic_stringIcNS_11char_traitsIcEENS_9allocatorIcEEEEiNS_4lessIS8_EENS6_INS_4pairIKS8_iEEEEEEEELb0EE3getB8ue170006Ev, symObjAddr: 0x1DA88, symBinAddr: 0x1000219B0, symSize: 0x14 }
  - { offsetInCU: 0x46BB4, offset: 0x46BB4, size: 0x8, addend: 0x0, symName: __ZNSt3__112__tuple_leafILm4EiLb0EE3getB8ue170006Ev, symObjAddr: 0x1DA9C, symBinAddr: 0x1000219C4, symSize: 0x14 }
  - { offsetInCU: 0x46BDA, offset: 0x46BDA, size: 0x8, addend: 0x0, symName: __ZNSt3__112__tuple_leafILm5EiLb0EE3getB8ue170006Ev, symObjAddr: 0x1DAB0, symBinAddr: 0x1000219D8, symSize: 0x14 }
  - { offsetInCU: 0x46C00, offset: 0x46C00, size: 0x8, addend: 0x0, symName: __ZNKSt3__117__compressed_pairIPNS_5tupleIJNS_10unique_ptrINS_15__thread_structENS_14default_deleteIS3_EEEEPFvRNS_6vectorIP4CellNS_9allocatorIS9_EEEERNS_3mapINS_12basic_stringIcNS_11char_traitsIcEENSA_IcEEEEiNS_4lessISJ_EENSA_INS_4pairIKSJ_iEEEEEEiiENS_17reference_wrapperISC_EENSU_ISQ_EEiiEEENS4_ISX_EEE5firstB8ue170006Ev, symObjAddr: 0x1DAC4, symBinAddr: 0x1000219EC, symSize: 0x24 }
  - { offsetInCU: 0x46C26, offset: 0x46C26, size: 0x8, addend: 0x0, symName: __ZNKSt3__122__compressed_pair_elemIPNS_5tupleIJNS_10unique_ptrINS_15__thread_structENS_14default_deleteIS3_EEEEPFvRNS_6vectorIP4CellNS_9allocatorIS9_EEEERNS_3mapINS_12basic_stringIcNS_11char_traitsIcEENSA_IcEEEEiNS_4lessISJ_EENSA_INS_4pairIKSJ_iEEEEEEiiENS_17reference_wrapperISC_EENSU_ISQ_EEiiEEELi0ELb0EE5__getB8ue170006Ev, symObjAddr: 0x1DAE8, symBinAddr: 0x100021A10, symSize: 0x14 }
  - { offsetInCU: 0x46C4C, offset: 0x46C4C, size: 0x8, addend: 0x0, symName: __ZNSt3__117__compressed_pairIPNS_5tupleIJNS_10unique_ptrINS_15__thread_structENS_14default_deleteIS3_EEEEPFvRNS_6vectorIP4CellNS_9allocatorIS9_EEEERNS_3mapINS_12basic_stringIcNS_11char_traitsIcEENSA_IcEEEEiNS_4lessISJ_EENSA_INS_4pairIKSJ_iEEEEEEiiENS_17reference_wrapperISC_EENSU_ISQ_EEiiEEENS4_ISX_EEE5firstB8ue170006Ev, symObjAddr: 0x1DAFC, symBinAddr: 0x100021A24, symSize: 0x24 }
  - { offsetInCU: 0x46C72, offset: 0x46C72, size: 0x8, addend: 0x0, symName: __ZNSt3__122__compressed_pair_elemIPNS_5tupleIJNS_10unique_ptrINS_15__thread_structENS_14default_deleteIS3_EEEEPFvRNS_6vectorIP4CellNS_9allocatorIS9_EEEERNS_3mapINS_12basic_stringIcNS_11char_traitsIcEENSA_IcEEEEiNS_4lessISJ_EENSA_INS_4pairIKSJ_iEEEEEEiiENS_17reference_wrapperISC_EENSU_ISQ_EEiiEEELi0ELb0EE5__getB8ue170006Ev, symObjAddr: 0x1DB20, symBinAddr: 0x100021A48, symSize: 0x14 }
  - { offsetInCU: 0x46C98, offset: 0x46C98, size: 0x8, addend: 0x0, symName: __ZNSt3__110unique_ptrINS_5tupleIJNS0_INS_15__thread_structENS_14default_deleteIS2_EEEEPFvRNS_6vectorIP4CellNS_9allocatorIS8_EEEERNS_3mapINS_12basic_stringIcNS_11char_traitsIcEENS9_IcEEEEiNS_4lessISI_EENS9_INS_4pairIKSI_iEEEEEEiiENS_17reference_wrapperISB_EENST_ISP_EEiiEEENS3_ISW_EEED2B8ue170006Ev, symObjAddr: 0x1DB34, symBinAddr: 0x100021A5C, symSize: 0x30 }
  - { offsetInCU: 0x46CC2, offset: 0x46CC2, size: 0x8, addend: 0x0, symName: __ZNSt3__110unique_ptrINS_5tupleIJNS0_INS_15__thread_structENS_14default_deleteIS2_EEEEPFvRNS_6vectorIP4CellNS_9allocatorIS8_EEEERNS_3mapINS_12basic_stringIcNS_11char_traitsIcEENS9_IcEEEEiNS_4lessISI_EENS9_INS_4pairIKSI_iEEEEEEiiENS_17reference_wrapperISB_EENST_ISP_EEiiEEENS3_ISW_EEE5resetB8ue170006EPSW_, symObjAddr: 0x1DB64, symBinAddr: 0x100021A8C, symSize: 0x78 }
  - { offsetInCU: 0x46D06, offset: 0x46D06, size: 0x8, addend: 0x0, symName: __ZNSt3__117__compressed_pairIPNS_5tupleIJNS_10unique_ptrINS_15__thread_structENS_14default_deleteIS3_EEEEPFvRNS_6vectorIP4CellNS_9allocatorIS9_EEEERNS_3mapINS_12basic_stringIcNS_11char_traitsIcEENSA_IcEEEEiNS_4lessISJ_EENSA_INS_4pairIKSJ_iEEEEEEiiENS_17reference_wrapperISC_EENSU_ISQ_EEiiEEENS4_ISX_EEE6secondB8ue170006Ev, symObjAddr: 0x1DBDC, symBinAddr: 0x100021B04, symSize: 0x24 }
  - { offsetInCU: 0x46D2C, offset: 0x46D2C, size: 0x8, addend: 0x0, symName: __ZNKSt3__114default_deleteINS_5tupleIJNS_10unique_ptrINS_15__thread_structENS0_IS3_EEEEPFvRNS_6vectorIP4CellNS_9allocatorIS8_EEEERNS_3mapINS_12basic_stringIcNS_11char_traitsIcEENS9_IcEEEEiNS_4lessISI_EENS9_INS_4pairIKSI_iEEEEEEiiENS_17reference_wrapperISB_EENST_ISP_EEiiEEEEclB8ue170006EPSW_, symObjAddr: 0x1DC00, symBinAddr: 0x100021B28, symSize: 0x4C }
  - { offsetInCU: 0x46D60, offset: 0x46D60, size: 0x8, addend: 0x0, symName: __ZNSt3__122__compressed_pair_elemINS_14default_deleteINS_5tupleIJNS_10unique_ptrINS_15__thread_structENS1_IS4_EEEEPFvRNS_6vectorIP4CellNS_9allocatorIS9_EEEERNS_3mapINS_12basic_stringIcNS_11char_traitsIcEENSA_IcEEEEiNS_4lessISJ_EENSA_INS_4pairIKSJ_iEEEEEEiiENS_17reference_wrapperISC_EENSU_ISQ_EEiiEEEEELi1ELb1EE5__getB8ue170006Ev, symObjAddr: 0x1DC4C, symBinAddr: 0x100021B74, symSize: 0x14 }
  - { offsetInCU: 0x46D86, offset: 0x46D86, size: 0x8, addend: 0x0, symName: __ZNSt3__15tupleIJNS_10unique_ptrINS_15__thread_structENS_14default_deleteIS2_EEEEPFvRNS_6vectorIP4CellNS_9allocatorIS8_EEEERNS_3mapINS_12basic_stringIcNS_11char_traitsIcEENS9_IcEEEEiNS_4lessISI_EENS9_INS_4pairIKSI_iEEEEEEiiENS_17reference_wrapperISB_EENST_ISP_EEiiEED1Ev, symObjAddr: 0x1DC60, symBinAddr: 0x100021B88, symSize: 0x2C }
  - { offsetInCU: 0x46DB3, offset: 0x46DB3, size: 0x8, addend: 0x0, symName: __ZNSt3__15tupleIJNS_10unique_ptrINS_15__thread_structENS_14default_deleteIS2_EEEEPFvRNS_6vectorIP4CellNS_9allocatorIS8_EEEERNS_3mapINS_12basic_stringIcNS_11char_traitsIcEENS9_IcEEEEiNS_4lessISI_EENS9_INS_4pairIKSI_iEEEEEEiiENS_17reference_wrapperISB_EENST_ISP_EEiiEED2Ev, symObjAddr: 0x1DC8C, symBinAddr: 0x100021BB4, symSize: 0x2C }
  - { offsetInCU: 0x46DE0, offset: 0x46DE0, size: 0x8, addend: 0x0, symName: __ZNSt3__112__tuple_implINS_15__tuple_indicesIJLm0ELm1ELm2ELm3ELm4ELm5EEEEJNS_10unique_ptrINS_15__thread_structENS_14default_deleteIS4_EEEEPFvRNS_6vectorIP4CellNS_9allocatorISA_EEEERNS_3mapINS_12basic_stringIcNS_11char_traitsIcEENSB_IcEEEEiNS_4lessISK_EENSB_INS_4pairIKSK_iEEEEEEiiENS_17reference_wrapperISD_EENSV_ISR_EEiiEED1Ev, symObjAddr: 0x1DCB8, symBinAddr: 0x100021BE0, symSize: 0x2C }
  - { offsetInCU: 0x46E0D, offset: 0x46E0D, size: 0x8, addend: 0x0, symName: __ZNSt3__112__tuple_implINS_15__tuple_indicesIJLm0ELm1ELm2ELm3ELm4ELm5EEEEJNS_10unique_ptrINS_15__thread_structENS_14default_deleteIS4_EEEEPFvRNS_6vectorIP4CellNS_9allocatorISA_EEEERNS_3mapINS_12basic_stringIcNS_11char_traitsIcEENSB_IcEEEEiNS_4lessISK_EENSB_INS_4pairIKSK_iEEEEEEiiENS_17reference_wrapperISD_EENSV_ISR_EEiiEED2Ev, symObjAddr: 0x1DCE4, symBinAddr: 0x100021C0C, symSize: 0x2C }
  - { offsetInCU: 0x46E3A, offset: 0x46E3A, size: 0x8, addend: 0x0, symName: __ZNSt3__112__tuple_leafILm0ENS_10unique_ptrINS_15__thread_structENS_14default_deleteIS2_EEEELb0EED2Ev, symObjAddr: 0x1DD10, symBinAddr: 0x100021C38, symSize: 0x2C }
  - { offsetInCU: 0x46E67, offset: 0x46E67, size: 0x8, addend: 0x0, symName: __ZNSt3__110unique_ptrINS_15__thread_structENS_14default_deleteIS1_EEED2B8ue170006Ev, symObjAddr: 0x1DD3C, symBinAddr: 0x100021C64, symSize: 0x30 }
  - { offsetInCU: 0x46E91, offset: 0x46E91, size: 0x8, addend: 0x0, symName: __ZNSt3__110unique_ptrINS_15__thread_structENS_14default_deleteIS1_EEE5resetB8ue170006EPS1_, symObjAddr: 0x1DD6C, symBinAddr: 0x100021C94, symSize: 0x78 }
  - { offsetInCU: 0x46ED5, offset: 0x46ED5, size: 0x8, addend: 0x0, symName: __ZNKSt3__114default_deleteINS_15__thread_structEEclB8ue170006EPS1_, symObjAddr: 0x1DDE4, symBinAddr: 0x100021D0C, symSize: 0x4C }
  - { offsetInCU: 0x46F09, offset: 0x46F09, size: 0x8, addend: 0x0, symName: __ZNSt3__16vectorINS_6threadENS_9allocatorIS1_EEE21_ConstructTransactionD2B8ue170006Ev, symObjAddr: 0x1DE30, symBinAddr: 0x100021D58, symSize: 0x20 }
  - { offsetInCU: 0x46F33, offset: 0x46F33, size: 0x8, addend: 0x0, symName: __ZNKSt3__16vectorINS_6threadENS_9allocatorIS1_EEE11__recommendB8ue170006Em, symObjAddr: 0x1DE50, symBinAddr: 0x100021D78, symSize: 0xB4 }
  - { offsetInCU: 0x46F88, offset: 0x46F88, size: 0x8, addend: 0x0, symName: __ZNSt3__114__split_bufferINS_6threadERNS_9allocatorIS1_EEEC1EmmS4_, symObjAddr: 0x1DF04, symBinAddr: 0x100021E2C, symSize: 0x44 }
  - { offsetInCU: 0x46FDE, offset: 0x46FDE, size: 0x8, addend: 0x0, symName: __ZNSt3__114__split_bufferINS_6threadERNS_9allocatorIS1_EEED1Ev, symObjAddr: 0x1E058, symBinAddr: 0x100021F80, symSize: 0x2C }
  - { offsetInCU: 0x4700A, offset: 0x4700A, size: 0x8, addend: 0x0, symName: __ZNKSt3__16vectorINS_6threadENS_9allocatorIS1_EEE8max_sizeEv, symObjAddr: 0x1E084, symBinAddr: 0x100021FAC, symSize: 0x60 }
  - { offsetInCU: 0x47032, offset: 0x47032, size: 0x8, addend: 0x0, symName: __ZNKSt3__16vectorINS_6threadENS_9allocatorIS1_EEE20__throw_length_errorB8ue170006Ev, symObjAddr: 0x1E0E4, symBinAddr: 0x10002200C, symSize: 0x1C }
  - { offsetInCU: 0x47064, offset: 0x47064, size: 0x8, addend: 0x0, symName: __ZNSt3__116allocator_traitsINS_9allocatorINS_6threadEEEE8max_sizeB8ue170006IS3_vEEmRKS3_, symObjAddr: 0x1E100, symBinAddr: 0x100022028, symSize: 0x24 }
  - { offsetInCU: 0x47092, offset: 0x47092, size: 0x8, addend: 0x0, symName: __ZNKSt3__16vectorINS_6threadENS_9allocatorIS1_EEE7__allocB8ue170006Ev, symObjAddr: 0x1E124, symBinAddr: 0x10002204C, symSize: 0x28 }
  - { offsetInCU: 0x470B8, offset: 0x470B8, size: 0x8, addend: 0x0, symName: __ZNKSt3__19allocatorINS_6threadEE8max_sizeB8ue170006Ev, symObjAddr: 0x1E14C, symBinAddr: 0x100022074, symSize: 0x14 }
  - { offsetInCU: 0x470DE, offset: 0x470DE, size: 0x8, addend: 0x0, symName: __ZNKSt3__117__compressed_pairIPNS_6threadENS_9allocatorIS1_EEE6secondB8ue170006Ev, symObjAddr: 0x1E160, symBinAddr: 0x100022088, symSize: 0x24 }
  - { offsetInCU: 0x47104, offset: 0x47104, size: 0x8, addend: 0x0, symName: __ZNKSt3__122__compressed_pair_elemINS_9allocatorINS_6threadEEELi1ELb1EE5__getB8ue170006Ev, symObjAddr: 0x1E184, symBinAddr: 0x1000220AC, symSize: 0x14 }
  - { offsetInCU: 0x4712A, offset: 0x4712A, size: 0x8, addend: 0x0, symName: __ZNSt3__114__split_bufferINS_6threadERNS_9allocatorIS1_EEEC2EmmS4_, symObjAddr: 0x1E198, symBinAddr: 0x1000220C0, symSize: 0xD4 }
  - { offsetInCU: 0x4719D, offset: 0x4719D, size: 0x8, addend: 0x0, symName: __ZNSt3__117__compressed_pairIPNS_6threadERNS_9allocatorIS1_EEEC1B8ue170006IDnS5_EEOT_OT0_, symObjAddr: 0x1E26C, symBinAddr: 0x100022194, symSize: 0x3C }
  - { offsetInCU: 0x471F5, offset: 0x471F5, size: 0x8, addend: 0x0, symName: __ZNSt3__114__split_bufferINS_6threadERNS_9allocatorIS1_EEE7__allocB8ue170006Ev, symObjAddr: 0x1E2E8, symBinAddr: 0x100022210, symSize: 0x28 }
  - { offsetInCU: 0x4721B, offset: 0x4721B, size: 0x8, addend: 0x0, symName: __ZNSt3__114__split_bufferINS_6threadERNS_9allocatorIS1_EEE9__end_capB8ue170006Ev, symObjAddr: 0x1E310, symBinAddr: 0x100022238, symSize: 0x28 }
  - { offsetInCU: 0x47241, offset: 0x47241, size: 0x8, addend: 0x0, symName: __ZNSt3__117__compressed_pairIPNS_6threadERNS_9allocatorIS1_EEEC2B8ue170006IDnS5_EEOT_OT0_, symObjAddr: 0x1E338, symBinAddr: 0x100022260, symSize: 0x48 }
  - { offsetInCU: 0x47299, offset: 0x47299, size: 0x8, addend: 0x0, symName: __ZNSt3__122__compressed_pair_elemIRNS_9allocatorINS_6threadEEELi1ELb0EEC2B8ue170006IS4_vEEOT_, symObjAddr: 0x1E380, symBinAddr: 0x1000222A8, symSize: 0x20 }
  - { offsetInCU: 0x472DB, offset: 0x472DB, size: 0x8, addend: 0x0, symName: __ZNSt3__19allocatorINS_6threadEE8allocateB8ue170006Em, symObjAddr: 0x1E3A0, symBinAddr: 0x1000222C8, symSize: 0x58 }
  - { offsetInCU: 0x4730F, offset: 0x4730F, size: 0x8, addend: 0x0, symName: __ZNSt3__117__compressed_pairIPNS_6threadERNS_9allocatorIS1_EEE6secondB8ue170006Ev, symObjAddr: 0x1E3F8, symBinAddr: 0x100022320, symSize: 0x28 }
  - { offsetInCU: 0x47335, offset: 0x47335, size: 0x8, addend: 0x0, symName: __ZNSt3__122__compressed_pair_elemIRNS_9allocatorINS_6threadEEELi1ELb0EE5__getB8ue170006Ev, symObjAddr: 0x1E420, symBinAddr: 0x100022348, symSize: 0x18 }
  - { offsetInCU: 0x4735B, offset: 0x4735B, size: 0x8, addend: 0x0, symName: __ZNSt3__117__compressed_pairIPNS_6threadERNS_9allocatorIS1_EEE5firstB8ue170006Ev, symObjAddr: 0x1E438, symBinAddr: 0x100022360, symSize: 0x24 }
  - { offsetInCU: 0x47381, offset: 0x47381, size: 0x8, addend: 0x0, symName: __ZNSt3__116reverse_iteratorIPNS_6threadEEC1B8ue170006ES2_, symObjAddr: 0x1E588, symBinAddr: 0x1000224B0, symSize: 0x34 }
  - { offsetInCU: 0x473B9, offset: 0x473B9, size: 0x8, addend: 0x0, symName: __ZNKSt3__116reverse_iteratorIPNS_6threadEE4baseB8ue170006Ev, symObjAddr: 0x1E5BC, symBinAddr: 0x1000224E4, symSize: 0x18 }
  - { offsetInCU: 0x473DF, offset: 0x473DF, size: 0x8, addend: 0x0, symName: __ZNKSt3__16vectorINS_6threadENS_9allocatorIS1_EEE14__annotate_newB8ue170006Em, symObjAddr: 0x1E610, symBinAddr: 0x100022538, symSize: 0xAC }
  - { offsetInCU: 0x47414, offset: 0x47414, size: 0x8, addend: 0x0, symName: __ZNSt3__129_AllocatorDestroyRangeReverseINS_9allocatorINS_6threadEEENS_16reverse_iteratorIPS2_EEEC1B8ue170006ERS3_RS6_S9_, symObjAddr: 0x1E708, symBinAddr: 0x100022630, symSize: 0x44 }
  - { offsetInCU: 0x4746B, offset: 0x4746B, size: 0x8, addend: 0x0, symName: __ZNSt3__116allocator_traitsINS_9allocatorINS_6threadEEEE9constructB8ue170006IS2_JS2_EvEEvRS3_PT_DpOT0_, symObjAddr: 0x1E794, symBinAddr: 0x1000226BC, symSize: 0x34 }
  - { offsetInCU: 0x474C2, offset: 0x474C2, size: 0x8, addend: 0x0, symName: __ZNKSt3__116reverse_iteratorIPNS_6threadEEdeB8ue170006Ev, symObjAddr: 0x1E7EC, symBinAddr: 0x100022714, symSize: 0x28 }
  - { offsetInCU: 0x474F6, offset: 0x474F6, size: 0x8, addend: 0x0, symName: __ZNSt3__116reverse_iteratorIPNS_6threadEEppB8ue170006Ev, symObjAddr: 0x1E814, symBinAddr: 0x10002273C, symSize: 0x20 }
  - { offsetInCU: 0x4751C, offset: 0x4751C, size: 0x8, addend: 0x0, symName: __ZNSt3__128__exception_guard_exceptionsINS_29_AllocatorDestroyRangeReverseINS_9allocatorINS_6threadEEENS_16reverse_iteratorIPS3_EEEEE10__completeB8ue170006Ev, symObjAddr: 0x1E834, symBinAddr: 0x10002275C, symSize: 0x1C }
  - { offsetInCU: 0x47542, offset: 0x47542, size: 0x8, addend: 0x0, symName: __ZNSt3__128__exception_guard_exceptionsINS_29_AllocatorDestroyRangeReverseINS_9allocatorINS_6threadEEENS_16reverse_iteratorIPS3_EEEEED1B8ue170006Ev, symObjAddr: 0x1E850, symBinAddr: 0x100022778, symSize: 0x2C }
  - { offsetInCU: 0x4756C, offset: 0x4756C, size: 0x8, addend: 0x0, symName: __ZNSt3__128__exception_guard_exceptionsINS_29_AllocatorDestroyRangeReverseINS_9allocatorINS_6threadEEENS_16reverse_iteratorIPS3_EEEEEC1B8ue170006ES8_, symObjAddr: 0x1E87C, symBinAddr: 0x1000227A4, symSize: 0x34 }
  - { offsetInCU: 0x475A5, offset: 0x475A5, size: 0x8, addend: 0x0, symName: __ZNSt3__128__exception_guard_exceptionsINS_29_AllocatorDestroyRangeReverseINS_9allocatorINS_6threadEEENS_16reverse_iteratorIPS3_EEEEEC2B8ue170006ES8_, symObjAddr: 0x1E8B0, symBinAddr: 0x1000227D8, symSize: 0x30 }
  - { offsetInCU: 0x475DE, offset: 0x475DE, size: 0x8, addend: 0x0, symName: __ZNSt3__129_AllocatorDestroyRangeReverseINS_9allocatorINS_6threadEEENS_16reverse_iteratorIPS2_EEEC2B8ue170006ERS3_RS6_S9_, symObjAddr: 0x1E8E0, symBinAddr: 0x100022808, symSize: 0x38 }
  - { offsetInCU: 0x47635, offset: 0x47635, size: 0x8, addend: 0x0, symName: __ZNSt3__19allocatorINS_6threadEE9constructB8ue170006IS1_JS1_EEEvPT_DpOT0_, symObjAddr: 0x1E918, symBinAddr: 0x100022840, symSize: 0x30 }
  - { offsetInCU: 0x4768B, offset: 0x4768B, size: 0x8, addend: 0x0, symName: __ZNSt3__16threadC1B8ue170006EOS0_, symObjAddr: 0x1E948, symBinAddr: 0x100022870, symSize: 0x34 }
  - { offsetInCU: 0x476C3, offset: 0x476C3, size: 0x8, addend: 0x0, symName: __ZNSt3__16threadC2B8ue170006EOS0_, symObjAddr: 0x1E97C, symBinAddr: 0x1000228A4, symSize: 0x2C }
  - { offsetInCU: 0x47701, offset: 0x47701, size: 0x8, addend: 0x0, symName: __ZNSt3__119__to_address_helperINS_16reverse_iteratorIPNS_6threadEEEvE6__callB8ue170006ERKS4_, symObjAddr: 0x1E9A8, symBinAddr: 0x1000228D0, symSize: 0x38 }
  - { offsetInCU: 0x47724, offset: 0x47724, size: 0x8, addend: 0x0, symName: __ZNKSt3__116reverse_iteratorIPNS_6threadEEptB8ue170006Ev, symObjAddr: 0x1E9E0, symBinAddr: 0x100022908, symSize: 0x24 }
  - { offsetInCU: 0x4774A, offset: 0x4774A, size: 0x8, addend: 0x0, symName: __ZNSt3__128__exception_guard_exceptionsINS_29_AllocatorDestroyRangeReverseINS_9allocatorINS_6threadEEENS_16reverse_iteratorIPS3_EEEEED2B8ue170006Ev, symObjAddr: 0x1EA04, symBinAddr: 0x10002292C, symSize: 0x50 }
  - { offsetInCU: 0x47774, offset: 0x47774, size: 0x8, addend: 0x0, symName: __ZNKSt3__129_AllocatorDestroyRangeReverseINS_9allocatorINS_6threadEEENS_16reverse_iteratorIPS2_EEEclB8ue170006Ev, symObjAddr: 0x1EA54, symBinAddr: 0x10002297C, symSize: 0xB4 }
  - { offsetInCU: 0x4779B, offset: 0x4779B, size: 0x8, addend: 0x0, symName: __ZNSt3__116reverse_iteratorINS0_IPNS_6threadEEEEC1B8ue170006ES3_, symObjAddr: 0x1EB78, symBinAddr: 0x100022AA0, symSize: 0x3C }
  - { offsetInCU: 0x477D3, offset: 0x477D3, size: 0x8, addend: 0x0, symName: __ZNSt3__116reverse_iteratorINS0_IPNS_6threadEEEEppB8ue170006Ev, symObjAddr: 0x1EC38, symBinAddr: 0x100022B60, symSize: 0x30 }
  - { offsetInCU: 0x477F9, offset: 0x477F9, size: 0x8, addend: 0x0, symName: __ZNKSt3__116reverse_iteratorINS0_IPNS_6threadEEEE4baseB8ue170006Ev, symObjAddr: 0x1EC68, symBinAddr: 0x100022B90, symSize: 0x24 }
  - { offsetInCU: 0x47825, offset: 0x47825, size: 0x8, addend: 0x0, symName: __ZNSt3__119__to_address_helperINS_16reverse_iteratorINS1_IPNS_6threadEEEEEvE6__callB8ue170006ERKS5_, symObjAddr: 0x1EC8C, symBinAddr: 0x100022BB4, symSize: 0x38 }
  - { offsetInCU: 0x47848, offset: 0x47848, size: 0x8, addend: 0x0, symName: __ZNKSt3__116reverse_iteratorINS0_IPNS_6threadEEEEptB8ue170006Ev, symObjAddr: 0x1ECC4, symBinAddr: 0x100022BEC, symSize: 0x24 }
  - { offsetInCU: 0x4786E, offset: 0x4786E, size: 0x8, addend: 0x0, symName: __ZNKSt3__116reverse_iteratorINS0_IPNS_6threadEEEEdeB8ue170006Ev, symObjAddr: 0x1ECE8, symBinAddr: 0x100022C10, symSize: 0x34 }
  - { offsetInCU: 0x478A2, offset: 0x478A2, size: 0x8, addend: 0x0, symName: __ZNSt3__116reverse_iteratorIPNS_6threadEEmmB8ue170006Ev, symObjAddr: 0x1ED1C, symBinAddr: 0x100022C44, symSize: 0x20 }
  - { offsetInCU: 0x478C8, offset: 0x478C8, size: 0x8, addend: 0x0, symName: __ZNSt3__116reverse_iteratorINS0_IPNS_6threadEEEEC2B8ue170006ES3_, symObjAddr: 0x1ED3C, symBinAddr: 0x100022C64, symSize: 0x2C }
  - { offsetInCU: 0x47900, offset: 0x47900, size: 0x8, addend: 0x0, symName: __ZNSt3__116reverse_iteratorIPNS_6threadEEC2B8ue170006ES2_, symObjAddr: 0x1ED68, symBinAddr: 0x100022C90, symSize: 0x28 }
  - { offsetInCU: 0x47938, offset: 0x47938, size: 0x8, addend: 0x0, symName: __ZNSt3__114__split_bufferINS_6threadERNS_9allocatorIS1_EEED2Ev, symObjAddr: 0x1ED90, symBinAddr: 0x100022CB8, symSize: 0x8C }
  - { offsetInCU: 0x47964, offset: 0x47964, size: 0x8, addend: 0x0, symName: __ZNSt3__114__split_bufferINS_6threadERNS_9allocatorIS1_EEE5clearB8ue170006Ev, symObjAddr: 0x1EE1C, symBinAddr: 0x100022D44, symSize: 0x28 }
  - { offsetInCU: 0x4798A, offset: 0x4798A, size: 0x8, addend: 0x0, symName: __ZNKSt3__114__split_bufferINS_6threadERNS_9allocatorIS1_EEE8capacityB8ue170006Ev, symObjAddr: 0x1EE44, symBinAddr: 0x100022D6C, symSize: 0x40 }
  - { offsetInCU: 0x479B0, offset: 0x479B0, size: 0x8, addend: 0x0, symName: __ZNSt3__114__split_bufferINS_6threadERNS_9allocatorIS1_EEE17__destruct_at_endB8ue170006EPS1_, symObjAddr: 0x1EE84, symBinAddr: 0x100022DAC, symSize: 0x2C }
  - { offsetInCU: 0x479E4, offset: 0x479E4, size: 0x8, addend: 0x0, symName: __ZNSt3__114__split_bufferINS_6threadERNS_9allocatorIS1_EEE17__destruct_at_endB8ue170006EPS1_NS_17integral_constantIbLb0EEE, symObjAddr: 0x1EEB0, symBinAddr: 0x100022DD8, symSize: 0x80 }
  - { offsetInCU: 0x47A24, offset: 0x47A24, size: 0x8, addend: 0x0, symName: __ZNKSt3__114__split_bufferINS_6threadERNS_9allocatorIS1_EEE9__end_capB8ue170006Ev, symObjAddr: 0x1EF30, symBinAddr: 0x100022E58, symSize: 0x28 }
  - { offsetInCU: 0x47A4A, offset: 0x47A4A, size: 0x8, addend: 0x0, symName: __ZNKSt3__117__compressed_pairIPNS_6threadERNS_9allocatorIS1_EEE5firstB8ue170006Ev, symObjAddr: 0x1EF58, symBinAddr: 0x100022E80, symSize: 0x24 }
  - { offsetInCU: 0x47A70, offset: 0x47A70, size: 0x8, addend: 0x0, symName: __ZNSt3__16vectorINS_6threadENS_9allocatorIS1_EEE11__make_iterB8ue170006EPS1_, symObjAddr: 0x1EF7C, symBinAddr: 0x100022EA4, symSize: 0x30 }
  - { offsetInCU: 0x47AA5, offset: 0x47AA5, size: 0x8, addend: 0x0, symName: __ZNSt3__111__wrap_iterIPNS_6threadEEC1B8ue170006ES2_, symObjAddr: 0x1EFAC, symBinAddr: 0x100022ED4, symSize: 0x34 }
  - { offsetInCU: 0x47ADD, offset: 0x47ADD, size: 0x8, addend: 0x0, symName: __ZNSt3__111__wrap_iterIPNS_6threadEEC2B8ue170006ES2_, symObjAddr: 0x1EFE0, symBinAddr: 0x100022F08, symSize: 0x20 }
  - { offsetInCU: 0x47B15, offset: 0x47B15, size: 0x8, addend: 0x0, symName: __ZNSt3__16vectorINS_3mapINS_12basic_stringIcNS_11char_traitsIcEENS_9allocatorIcEEEEiNS_4lessIS7_EENS5_INS_4pairIKS7_iEEEEEENS5_ISE_EEE11__make_iterB8ue170006EPSE_, symObjAddr: 0x1F000, symBinAddr: 0x100022F28, symSize: 0x30 }
  - { offsetInCU: 0x47B4A, offset: 0x47B4A, size: 0x8, addend: 0x0, symName: __ZNSt3__111__wrap_iterIPNS_3mapINS_12basic_stringIcNS_11char_traitsIcEENS_9allocatorIcEEEEiNS_4lessIS7_EENS5_INS_4pairIKS7_iEEEEEEEC1B8ue170006ESF_, symObjAddr: 0x1F030, symBinAddr: 0x100022F58, symSize: 0x34 }
  - { offsetInCU: 0x47B82, offset: 0x47B82, size: 0x8, addend: 0x0, symName: __ZNSt3__111__wrap_iterIPNS_3mapINS_12basic_stringIcNS_11char_traitsIcEENS_9allocatorIcEEEEiNS_4lessIS7_EENS5_INS_4pairIKS7_iEEEEEEEC2B8ue170006ESF_, symObjAddr: 0x1F064, symBinAddr: 0x100022F8C, symSize: 0x20 }
  - { offsetInCU: 0x47BBA, offset: 0x47BBA, size: 0x8, addend: 0x0, symName: __ZNKSt3__16__treeINS_12__value_typeINS_12basic_stringIcNS_11char_traitsIcEENS_9allocatorIcEEEEiEENS_19__map_value_compareIS7_S8_NS_4lessIS7_EELb1EEENS5_IS8_EEE5beginB8ue170006Ev, symObjAddr: 0x1F084, symBinAddr: 0x100022FAC, symSize: 0x34 }
  - { offsetInCU: 0x47BE0, offset: 0x47BE0, size: 0x8, addend: 0x0, symName: __ZNSt3__120__map_const_iteratorINS_21__tree_const_iteratorINS_12__value_typeINS_12basic_stringIcNS_11char_traitsIcEENS_9allocatorIcEEEEiEEPNS_11__tree_nodeIS9_PvEElEEEC1B8ue170006ESE_, symObjAddr: 0x1F0B8, symBinAddr: 0x100022FE0, symSize: 0x34 }
  - { offsetInCU: 0x47C19, offset: 0x47C19, size: 0x8, addend: 0x0, symName: __ZNKSt3__16__treeINS_12__value_typeINS_12basic_stringIcNS_11char_traitsIcEENS_9allocatorIcEEEEiEENS_19__map_value_compareIS7_S8_NS_4lessIS7_EELb1EEENS5_IS8_EEE12__begin_nodeB8ue170006Ev, symObjAddr: 0x1F0EC, symBinAddr: 0x100023014, symSize: 0x14 }
  - { offsetInCU: 0x47C3F, offset: 0x47C3F, size: 0x8, addend: 0x0, symName: __ZNSt3__121__tree_const_iteratorINS_12__value_typeINS_12basic_stringIcNS_11char_traitsIcEENS_9allocatorIcEEEEiEEPNS_11__tree_nodeIS8_PvEElEC1B8ue170006EPNS_15__tree_end_nodeIPNS_16__tree_node_baseISA_EEEE, symObjAddr: 0x1F100, symBinAddr: 0x100023028, symSize: 0x34 }
  - { offsetInCU: 0x47C78, offset: 0x47C78, size: 0x8, addend: 0x0, symName: __ZNSt3__121__tree_const_iteratorINS_12__value_typeINS_12basic_stringIcNS_11char_traitsIcEENS_9allocatorIcEEEEiEEPNS_11__tree_nodeIS8_PvEElEC2B8ue170006EPNS_15__tree_end_nodeIPNS_16__tree_node_baseISA_EEEE, symObjAddr: 0x1F134, symBinAddr: 0x10002305C, symSize: 0x20 }
  - { offsetInCU: 0x47CB1, offset: 0x47CB1, size: 0x8, addend: 0x0, symName: __ZNSt3__120__map_const_iteratorINS_21__tree_const_iteratorINS_12__value_typeINS_12basic_stringIcNS_11char_traitsIcEENS_9allocatorIcEEEEiEEPNS_11__tree_nodeIS9_PvEElEEEC2B8ue170006ESE_, symObjAddr: 0x1F154, symBinAddr: 0x10002307C, symSize: 0x20 }
  - { offsetInCU: 0x47CEA, offset: 0x47CEA, size: 0x8, addend: 0x0, symName: __ZNKSt3__16__treeINS_12__value_typeINS_12basic_stringIcNS_11char_traitsIcEENS_9allocatorIcEEEEiEENS_19__map_value_compareIS7_S8_NS_4lessIS7_EELb1EEENS5_IS8_EEE3endB8ue170006Ev, symObjAddr: 0x1F174, symBinAddr: 0x10002309C, symSize: 0x34 }
  - { offsetInCU: 0x47D10, offset: 0x47D10, size: 0x8, addend: 0x0, symName: __ZNSt3__121__tree_const_iteratorINS_12__value_typeINS_12basic_stringIcNS_11char_traitsIcEENS_9allocatorIcEEEEiEEPNS_11__tree_nodeIS8_PvEElEppB8ue170006Ev, symObjAddr: 0x1F20C, symBinAddr: 0x100023134, symSize: 0x38 }
  - { offsetInCU: 0x47D36, offset: 0x47D36, size: 0x8, addend: 0x0, symName: __ZNKSt3__121__tree_const_iteratorINS_12__value_typeINS_12basic_stringIcNS_11char_traitsIcEENS_9allocatorIcEEEEiEEPNS_11__tree_nodeIS8_PvEElEptB8ue170006Ev, symObjAddr: 0x1F244, symBinAddr: 0x10002316C, symSize: 0x2C }
  - { offsetInCU: 0x47D5C, offset: 0x47D5C, size: 0x8, addend: 0x0, symName: __ZNSt3__114pointer_traitsIPKNS_12__value_typeINS_12basic_stringIcNS_11char_traitsIcEENS_9allocatorIcEEEEiEEE10pointer_toB8ue170006ERS9_, symObjAddr: 0x1F270, symBinAddr: 0x100023198, symSize: 0x14 }
  - { offsetInCU: 0x47D7F, offset: 0x47D7F, size: 0x8, addend: 0x0, symName: __ZNKSt3__121__tree_const_iteratorINS_12__value_typeINS_12basic_stringIcNS_11char_traitsIcEENS_9allocatorIcEEEEiEEPNS_11__tree_nodeIS8_PvEElE8__get_npB8ue170006Ev, symObjAddr: 0x1F284, symBinAddr: 0x1000231AC, symSize: 0x18 }
  - { offsetInCU: 0x47DA5, offset: 0x47DA5, size: 0x8, addend: 0x0, symName: __ZNSt3__16__treeINS_12__value_typeINS_12basic_stringIcNS_11char_traitsIcEENS_9allocatorIcEEEEiEENS_19__map_value_compareIS7_S8_NS_4lessIS7_EELb1EEENS5_IS8_EEE5beginB8ue170006Ev, symObjAddr: 0x1F29C, symBinAddr: 0x1000231C4, symSize: 0x34 }
  - { offsetInCU: 0x47DCB, offset: 0x47DCB, size: 0x8, addend: 0x0, symName: __ZNSt3__115__tree_iteratorINS_12__value_typeINS_12basic_stringIcNS_11char_traitsIcEENS_9allocatorIcEEEEiEEPNS_11__tree_nodeIS8_PvEElEppB8ue170006Ev, symObjAddr: 0x1F2D0, symBinAddr: 0x1000231F8, symSize: 0x38 }
  - { offsetInCU: 0x47DF1, offset: 0x47DF1, size: 0x8, addend: 0x0, symName: __ZNSt3__16vectorINS0_IP4CellNS_9allocatorIS2_EEEENS3_IS5_EEE11__make_iterB8ue170006EPS5_, symObjAddr: 0x1F308, symBinAddr: 0x100023230, symSize: 0x30 }
  - { offsetInCU: 0x47E26, offset: 0x47E26, size: 0x8, addend: 0x0, symName: __ZNSt3__111__wrap_iterIPNS_6vectorIP4CellNS_9allocatorIS3_EEEEEC1B8ue170006ES7_, symObjAddr: 0x1F338, symBinAddr: 0x100023260, symSize: 0x34 }
  - { offsetInCU: 0x47E5E, offset: 0x47E5E, size: 0x8, addend: 0x0, symName: __ZNSt3__111__wrap_iterIPNS_6vectorIP4CellNS_9allocatorIS3_EEEEEC2B8ue170006ES7_, symObjAddr: 0x1F36C, symBinAddr: 0x100023294, symSize: 0x20 }
  - { offsetInCU: 0x47E96, offset: 0x47E96, size: 0x8, addend: 0x0, symName: __ZNKSt3__16__treeINS_12__value_typeINS_12basic_stringIcNS_11char_traitsIcEENS_9allocatorIcEEEE8CellTypeEENS_19__map_value_compareIS7_S9_NS_4lessIS7_EELb1EEENS5_IS9_EEE4sizeB8ue170006Ev, symObjAddr: 0x1F38C, symBinAddr: 0x1000232B4, symSize: 0x28 }
  - { offsetInCU: 0x47EBC, offset: 0x47EBC, size: 0x8, addend: 0x0, symName: __ZNKSt3__117__compressed_pairImNS_19__map_value_compareINS_12basic_stringIcNS_11char_traitsIcEENS_9allocatorIcEEEENS_12__value_typeIS7_8CellTypeEENS_4lessIS7_EELb1EEEE5firstB8ue170006Ev, symObjAddr: 0x1F3B4, symBinAddr: 0x1000232DC, symSize: 0x24 }
  - { offsetInCU: 0x47EE2, offset: 0x47EE2, size: 0x8, addend: 0x0, symName: __ZNKSt3__122__compressed_pair_elemImLi0ELb0EE5__getB8ue170006Ev, symObjAddr: 0x1F3D8, symBinAddr: 0x100023300, symSize: 0x14 }
  - { offsetInCU: 0x47F08, offset: 0x47F08, size: 0x8, addend: 0x0, symName: __ZNSt3__16__treeINS_12__value_typeINS_12basic_stringIcNS_11char_traitsIcEENS_9allocatorIcEEEENS_3mapIS7_fNS_4lessIS7_EENS5_INS_4pairIKS7_fEEEEEEEENS_19__map_value_compareIS7_SG_SA_Lb1EEENS5_ISG_EEEaSEOSK_, symObjAddr: 0x1F3EC, symBinAddr: 0x100023314, symSize: 0x34 }
  - { offsetInCU: 0x47F3F, offset: 0x47F3F, size: 0x8, addend: 0x0, symName: __ZNSt3__16__treeINS_12__value_typeINS_12basic_stringIcNS_11char_traitsIcEENS_9allocatorIcEEEENS_3mapIS7_fNS_4lessIS7_EENS5_INS_4pairIKS7_fEEEEEEEENS_19__map_value_compareIS7_SG_SA_Lb1EEENS5_ISG_EEE13__move_assignERSK_NS_17integral_constantIbLb1EEE, symObjAddr: 0x1F420, symBinAddr: 0x100023348, symSize: 0x138 }
  - { offsetInCU: 0x47F82, offset: 0x47F82, size: 0x8, addend: 0x0, symName: __ZNSt3__16__treeINS_12__value_typeINS_12basic_stringIcNS_11char_traitsIcEENS_9allocatorIcEEEENS_3mapIS7_fNS_4lessIS7_EENS5_INS_4pairIKS7_fEEEEEEEENS_19__map_value_compareIS7_SG_SA_Lb1EEENS5_ISG_EEE19__move_assign_allocB8ue170006ERSK_, symObjAddr: 0x1F558, symBinAddr: 0x100023480, symSize: 0x2C }
  - { offsetInCU: 0x47FB7, offset: 0x47FB7, size: 0x8, addend: 0x0, symName: __ZNSt3__16__treeINS_12__value_typeINS_12basic_stringIcNS_11char_traitsIcEENS_9allocatorIcEEEENS_3mapIS7_fNS_4lessIS7_EENS5_INS_4pairIKS7_fEEEEEEEENS_19__map_value_compareIS7_SG_SA_Lb1EEENS5_ISG_EEE19__move_assign_allocB8ue170006ERSK_NS_17integral_constantIbLb1EEE, symObjAddr: 0x1F584, symBinAddr: 0x1000234AC, symSize: 0x38 }
  - { offsetInCU: 0x47FF8, offset: 0x47FF8, size: 0x8, addend: 0x0, symName: __ZNKSt3__16__treeINS_12__value_typeINS_12basic_stringIcNS_11char_traitsIcEENS_9allocatorIcEEEENS_3mapIS7_fNS_4lessIS7_EENS5_INS_4pairIKS7_fEEEEEEEENS_19__map_value_compareIS7_SG_SA_Lb1EEENS5_ISG_EEE4sizeB8ue170006Ev, symObjAddr: 0x1F5BC, symBinAddr: 0x1000234E4, symSize: 0x28 }
  - { offsetInCU: 0x4801E, offset: 0x4801E, size: 0x8, addend: 0x0, symName: __ZNKSt3__117__compressed_pairImNS_19__map_value_compareINS_12basic_stringIcNS_11char_traitsIcEENS_9allocatorIcEEEENS_12__value_typeIS7_NS_3mapIS7_fNS_4lessIS7_EENS5_INS_4pairIKS7_fEEEEEEEESB_Lb1EEEE5firstB8ue170006Ev, symObjAddr: 0x1F5E4, symBinAddr: 0x10002350C, symSize: 0x24 }
  - { offsetInCU: 0x48044, offset: 0x48044, size: 0x8, addend: 0x0, symName: __ZNSt3__16vectorINS0_IP4CellNS_9allocatorIS2_EEEENS3_IS5_EEEC2Em, symObjAddr: 0x1F608, symBinAddr: 0x100023530, symSize: 0xD4 }
  - { offsetInCU: 0x48094, offset: 0x48094, size: 0x8, addend: 0x0, symName: __ZNSt3__117__compressed_pairIPNS_6vectorIP4CellNS_9allocatorIS3_EEEENS4_IS6_EEEC1B8ue170006IDnNS_18__default_init_tagEEEOT_OT0_, symObjAddr: 0x1F6DC, symBinAddr: 0x100023604, symSize: 0x3C }
  - { offsetInCU: 0x480EC, offset: 0x480EC, size: 0x8, addend: 0x0, symName: __ZNSt3__16vectorINS0_IP4CellNS_9allocatorIS2_EEEENS3_IS5_EEE16__destroy_vectorC1B8ue170006ERS7_, symObjAddr: 0x1F758, symBinAddr: 0x100023680, symSize: 0x34 }
  - { offsetInCU: 0x48125, offset: 0x48125, size: 0x8, addend: 0x0, symName: __ZNSt3__16vectorINS0_IP4CellNS_9allocatorIS2_EEEENS3_IS5_EEE11__vallocateB8ue170006Em, symObjAddr: 0x1F78C, symBinAddr: 0x1000236B4, symSize: 0xB4 }
  - { offsetInCU: 0x48169, offset: 0x48169, size: 0x8, addend: 0x0, symName: __ZNSt3__16vectorINS0_IP4CellNS_9allocatorIS2_EEEENS3_IS5_EEE18__construct_at_endEm, symObjAddr: 0x1F840, symBinAddr: 0x100023768, symSize: 0xC8 }
  - { offsetInCU: 0x481DB, offset: 0x481DB, size: 0x8, addend: 0x0, symName: __ZNSt3__128__exception_guard_exceptionsINS_6vectorINS1_IP4CellNS_9allocatorIS3_EEEENS4_IS6_EEE16__destroy_vectorEE10__completeB8ue170006Ev, symObjAddr: 0x1F908, symBinAddr: 0x100023830, symSize: 0x1C }
  - { offsetInCU: 0x48201, offset: 0x48201, size: 0x8, addend: 0x0, symName: __ZNSt3__128__exception_guard_exceptionsINS_6vectorINS1_IP4CellNS_9allocatorIS3_EEEENS4_IS6_EEE16__destroy_vectorEED1B8ue170006Ev, symObjAddr: 0x1F924, symBinAddr: 0x10002384C, symSize: 0x2C }
  - { offsetInCU: 0x4822B, offset: 0x4822B, size: 0x8, addend: 0x0, symName: __ZNSt3__117__compressed_pairIPNS_6vectorIP4CellNS_9allocatorIS3_EEEENS4_IS6_EEEC2B8ue170006IDnNS_18__default_init_tagEEEOT_OT0_, symObjAddr: 0x1F950, symBinAddr: 0x100023878, symSize: 0x40 }
  - { offsetInCU: 0x48283, offset: 0x48283, size: 0x8, addend: 0x0, symName: __ZNSt3__122__compressed_pair_elemIPNS_6vectorIP4CellNS_9allocatorIS3_EEEELi0ELb0EEC2B8ue170006IDnvEEOT_, symObjAddr: 0x1F990, symBinAddr: 0x1000238B8, symSize: 0x1C }
  - { offsetInCU: 0x482C5, offset: 0x482C5, size: 0x8, addend: 0x0, symName: __ZNSt3__122__compressed_pair_elemINS_9allocatorINS_6vectorIP4CellNS1_IS4_EEEEEELi1ELb1EEC2B8ue170006ENS_18__default_init_tagE, symObjAddr: 0x1F9AC, symBinAddr: 0x1000238D4, symSize: 0x2C }
  - { offsetInCU: 0x482F9, offset: 0x482F9, size: 0x8, addend: 0x0, symName: __ZNSt3__19allocatorINS_6vectorIP4CellNS0_IS3_EEEEEC2B8ue170006Ev, symObjAddr: 0x1F9D8, symBinAddr: 0x100023900, symSize: 0x2C }
  - { offsetInCU: 0x48323, offset: 0x48323, size: 0x8, addend: 0x0, symName: __ZNSt3__116__non_trivial_ifILb1ENS_9allocatorINS_6vectorIP4CellNS1_IS4_EEEEEEEC2B8ue170006Ev, symObjAddr: 0x1FA04, symBinAddr: 0x10002392C, symSize: 0x14 }
  - { offsetInCU: 0x4834D, offset: 0x4834D, size: 0x8, addend: 0x0, symName: __ZNSt3__128__exception_guard_exceptionsINS_6vectorINS1_IP4CellNS_9allocatorIS3_EEEENS4_IS6_EEE16__destroy_vectorEEC1B8ue170006ES9_, symObjAddr: 0x1FA18, symBinAddr: 0x100023940, symSize: 0x34 }
  - { offsetInCU: 0x48385, offset: 0x48385, size: 0x8, addend: 0x0, symName: __ZNSt3__128__exception_guard_exceptionsINS_6vectorINS1_IP4CellNS_9allocatorIS3_EEEENS4_IS6_EEE16__destroy_vectorEEC2B8ue170006ES9_, symObjAddr: 0x1FA4C, symBinAddr: 0x100023974, symSize: 0x24 }
  - { offsetInCU: 0x483BD, offset: 0x483BD, size: 0x8, addend: 0x0, symName: __ZNSt3__16vectorINS0_IP4CellNS_9allocatorIS2_EEEENS3_IS5_EEE16__destroy_vectorC2B8ue170006ERS7_, symObjAddr: 0x1FA70, symBinAddr: 0x100023998, symSize: 0x20 }
  - { offsetInCU: 0x483F6, offset: 0x483F6, size: 0x8, addend: 0x0, symName: __ZNKSt3__16vectorINS0_IP4CellNS_9allocatorIS2_EEEENS3_IS5_EEE8max_sizeEv, symObjAddr: 0x1FA90, symBinAddr: 0x1000239B8, symSize: 0x60 }
  - { offsetInCU: 0x4841E, offset: 0x4841E, size: 0x8, addend: 0x0, symName: __ZNKSt3__16vectorINS0_IP4CellNS_9allocatorIS2_EEEENS3_IS5_EEE20__throw_length_errorB8ue170006Ev, symObjAddr: 0x1FAF0, symBinAddr: 0x100023A18, symSize: 0x1C }
  - { offsetInCU: 0x48444, offset: 0x48444, size: 0x8, addend: 0x0, symName: __ZNSt3__16vectorINS0_IP4CellNS_9allocatorIS2_EEEENS3_IS5_EEE7__allocB8ue170006Ev, symObjAddr: 0x1FB4C, symBinAddr: 0x100023A74, symSize: 0x28 }
  - { offsetInCU: 0x4846A, offset: 0x4846A, size: 0x8, addend: 0x0, symName: __ZNSt3__16vectorINS0_IP4CellNS_9allocatorIS2_EEEENS3_IS5_EEE9__end_capB8ue170006Ev, symObjAddr: 0x1FB74, symBinAddr: 0x100023A9C, symSize: 0x28 }
  - { offsetInCU: 0x48490, offset: 0x48490, size: 0x8, addend: 0x0, symName: __ZNKSt3__16vectorINS0_IP4CellNS_9allocatorIS2_EEEENS3_IS5_EEE14__annotate_newB8ue170006Em, symObjAddr: 0x1FB9C, symBinAddr: 0x100023AC4, symSize: 0xC8 }
  - { offsetInCU: 0x484D1, offset: 0x484D1, size: 0x8, addend: 0x0, symName: __ZNSt3__116allocator_traitsINS_9allocatorINS_6vectorIP4CellNS1_IS4_EEEEEEE8max_sizeB8ue170006IS7_vEEmRKS7_, symObjAddr: 0x1FC64, symBinAddr: 0x100023B8C, symSize: 0x24 }
  - { offsetInCU: 0x484FF, offset: 0x484FF, size: 0x8, addend: 0x0, symName: __ZNKSt3__16vectorINS0_IP4CellNS_9allocatorIS2_EEEENS3_IS5_EEE7__allocB8ue170006Ev, symObjAddr: 0x1FC88, symBinAddr: 0x100023BB0, symSize: 0x28 }
  - { offsetInCU: 0x48525, offset: 0x48525, size: 0x8, addend: 0x0, symName: __ZNKSt3__19allocatorINS_6vectorIP4CellNS0_IS3_EEEEE8max_sizeB8ue170006Ev, symObjAddr: 0x1FCB0, symBinAddr: 0x100023BD8, symSize: 0x18 }
  - { offsetInCU: 0x4854B, offset: 0x4854B, size: 0x8, addend: 0x0, symName: __ZNKSt3__117__compressed_pairIPNS_6vectorIP4CellNS_9allocatorIS3_EEEENS4_IS6_EEE6secondB8ue170006Ev, symObjAddr: 0x1FCC8, symBinAddr: 0x100023BF0, symSize: 0x24 }
  - { offsetInCU: 0x48571, offset: 0x48571, size: 0x8, addend: 0x0, symName: __ZNKSt3__122__compressed_pair_elemINS_9allocatorINS_6vectorIP4CellNS1_IS4_EEEEEELi1ELb1EE5__getB8ue170006Ev, symObjAddr: 0x1FCEC, symBinAddr: 0x100023C14, symSize: 0x14 }
  - { offsetInCU: 0x48597, offset: 0x48597, size: 0x8, addend: 0x0, symName: __ZNSt3__19allocatorINS_6vectorIP4CellNS0_IS3_EEEEE8allocateB8ue170006Em, symObjAddr: 0x1FD00, symBinAddr: 0x100023C28, symSize: 0x5C }
  - { offsetInCU: 0x485CB, offset: 0x485CB, size: 0x8, addend: 0x0, symName: __ZNSt3__117__compressed_pairIPNS_6vectorIP4CellNS_9allocatorIS3_EEEENS4_IS6_EEE6secondB8ue170006Ev, symObjAddr: 0x1FD5C, symBinAddr: 0x100023C84, symSize: 0x24 }
  - { offsetInCU: 0x485F1, offset: 0x485F1, size: 0x8, addend: 0x0, symName: __ZNSt3__122__compressed_pair_elemINS_9allocatorINS_6vectorIP4CellNS1_IS4_EEEEEELi1ELb1EE5__getB8ue170006Ev, symObjAddr: 0x1FD80, symBinAddr: 0x100023CA8, symSize: 0x14 }
  - { offsetInCU: 0x48617, offset: 0x48617, size: 0x8, addend: 0x0, symName: __ZNSt3__117__compressed_pairIPNS_6vectorIP4CellNS_9allocatorIS3_EEEENS4_IS6_EEE5firstB8ue170006Ev, symObjAddr: 0x1FD94, symBinAddr: 0x100023CBC, symSize: 0x24 }
  - { offsetInCU: 0x4863D, offset: 0x4863D, size: 0x8, addend: 0x0, symName: __ZNSt3__122__compressed_pair_elemIPNS_6vectorIP4CellNS_9allocatorIS3_EEEELi0ELb0EE5__getB8ue170006Ev, symObjAddr: 0x1FDB8, symBinAddr: 0x100023CE0, symSize: 0x14 }
  - { offsetInCU: 0x48663, offset: 0x48663, size: 0x8, addend: 0x0, symName: __ZNKSt3__16vectorINS0_IP4CellNS_9allocatorIS2_EEEENS3_IS5_EEE31__annotate_contiguous_containerB8ue170006EPKvS9_S9_S9_, symObjAddr: 0x1FDCC, symBinAddr: 0x100023CF4, symSize: 0x20 }
  - { offsetInCU: 0x486B9, offset: 0x486B9, size: 0x8, addend: 0x0, symName: __ZNKSt3__16vectorINS0_IP4CellNS_9allocatorIS2_EEEENS3_IS5_EEE4dataB8ue170006Ev, symObjAddr: 0x1FDEC, symBinAddr: 0x100023D14, symSize: 0x28 }
  - { offsetInCU: 0x486DF, offset: 0x486DF, size: 0x8, addend: 0x0, symName: __ZNKSt3__16vectorINS0_IP4CellNS_9allocatorIS2_EEEENS3_IS5_EEE8capacityB8ue170006Ev, symObjAddr: 0x1FE14, symBinAddr: 0x100023D3C, symSize: 0x40 }
  - { offsetInCU: 0x48705, offset: 0x48705, size: 0x8, addend: 0x0, symName: __ZNKSt3__16vectorINS0_IP4CellNS_9allocatorIS2_EEEENS3_IS5_EEE9__end_capB8ue170006Ev, symObjAddr: 0x1FE68, symBinAddr: 0x100023D90, symSize: 0x28 }
  - { offsetInCU: 0x4872B, offset: 0x4872B, size: 0x8, addend: 0x0, symName: __ZNKSt3__117__compressed_pairIPNS_6vectorIP4CellNS_9allocatorIS3_EEEENS4_IS6_EEE5firstB8ue170006Ev, symObjAddr: 0x1FE90, symBinAddr: 0x100023DB8, symSize: 0x24 }
  - { offsetInCU: 0x48751, offset: 0x48751, size: 0x8, addend: 0x0, symName: __ZNKSt3__122__compressed_pair_elemIPNS_6vectorIP4CellNS_9allocatorIS3_EEEELi0ELb0EE5__getB8ue170006Ev, symObjAddr: 0x1FEB4, symBinAddr: 0x100023DDC, symSize: 0x14 }
  - { offsetInCU: 0x48795, offset: 0x48795, size: 0x8, addend: 0x0, symName: __ZNSt3__16vectorINS0_IP4CellNS_9allocatorIS2_EEEENS3_IS5_EEE21_ConstructTransactionC1B8ue170006ERS7_m, symObjAddr: 0x1FEC8, symBinAddr: 0x100023DF0, symSize: 0x3C }
  - { offsetInCU: 0x487DD, offset: 0x487DD, size: 0x8, addend: 0x0, symName: __ZNSt3__116allocator_traitsINS_9allocatorINS_6vectorIP4CellNS1_IS4_EEEEEEE9constructB8ue170006IS6_JEvEEvRS7_PT_DpOT0_, symObjAddr: 0x1FF04, symBinAddr: 0x100023E2C, symSize: 0x2C }
  - { offsetInCU: 0x4881F, offset: 0x4881F, size: 0x8, addend: 0x0, symName: __ZNSt3__16vectorINS0_IP4CellNS_9allocatorIS2_EEEENS3_IS5_EEE21_ConstructTransactionD1B8ue170006Ev, symObjAddr: 0x1FF30, symBinAddr: 0x100023E58, symSize: 0x2C }
  - { offsetInCU: 0x48849, offset: 0x48849, size: 0x8, addend: 0x0, symName: __ZNSt3__16vectorINS0_IP4CellNS_9allocatorIS2_EEEENS3_IS5_EEE21_ConstructTransactionC2B8ue170006ERS7_m, symObjAddr: 0x1FF5C, symBinAddr: 0x100023E84, symSize: 0x4C }
  - { offsetInCU: 0x48891, offset: 0x48891, size: 0x8, addend: 0x0, symName: __ZNSt3__19allocatorINS_6vectorIP4CellNS0_IS3_EEEEE9constructB8ue170006IS5_JEEEvPT_DpOT0_, symObjAddr: 0x1FFA8, symBinAddr: 0x100023ED0, symSize: 0x28 }
  - { offsetInCU: 0x488D3, offset: 0x488D3, size: 0x8, addend: 0x0, symName: __ZNSt3__16vectorINS0_IP4CellNS_9allocatorIS2_EEEENS3_IS5_EEE21_ConstructTransactionD2B8ue170006Ev, symObjAddr: 0x1FFD0, symBinAddr: 0x100023EF8, symSize: 0x20 }
  - { offsetInCU: 0x488FD, offset: 0x488FD, size: 0x8, addend: 0x0, symName: __ZNSt3__128__exception_guard_exceptionsINS_6vectorINS1_IP4CellNS_9allocatorIS3_EEEENS4_IS6_EEE16__destroy_vectorEED2B8ue170006Ev, symObjAddr: 0x1FFF0, symBinAddr: 0x100023F18, symSize: 0x50 }
  - { offsetInCU: 0x48927, offset: 0x48927, size: 0x8, addend: 0x0, symName: __ZNSt3__16vectorINS0_IP4CellNS_9allocatorIS2_EEEENS3_IS5_EEE16__destroy_vectorclB8ue170006Ev, symObjAddr: 0x20040, symBinAddr: 0x100023F68, symSize: 0x90 }
  - { offsetInCU: 0x4894D, offset: 0x4894D, size: 0x8, addend: 0x0, symName: __ZNSt3__16vectorINS0_IP4CellNS_9allocatorIS2_EEEENS3_IS5_EEE7__clearB8ue170006Ev, symObjAddr: 0x200D0, symBinAddr: 0x100023FF8, symSize: 0x28 }
  - { offsetInCU: 0x48973, offset: 0x48973, size: 0x8, addend: 0x0, symName: __ZNKSt3__16vectorINS0_IP4CellNS_9allocatorIS2_EEEENS3_IS5_EEE17__annotate_deleteB8ue170006Ev, symObjAddr: 0x200F8, symBinAddr: 0x100024020, symSize: 0xD4 }
  - { offsetInCU: 0x48999, offset: 0x48999, size: 0x8, addend: 0x0, symName: __ZNSt3__116allocator_traitsINS_9allocatorINS_6vectorIP4CellNS1_IS4_EEEEEEE10deallocateB8ue170006ERS7_PS6_m, symObjAddr: 0x201CC, symBinAddr: 0x1000240F4, symSize: 0x34 }
  - { offsetInCU: 0x489DB, offset: 0x489DB, size: 0x8, addend: 0x0, symName: __ZNSt3__16vectorINS0_IP4CellNS_9allocatorIS2_EEEENS3_IS5_EEE22__base_destruct_at_endB8ue170006EPS5_, symObjAddr: 0x20200, symBinAddr: 0x100024128, symSize: 0x8C }
  - { offsetInCU: 0x48A1F, offset: 0x48A1F, size: 0x8, addend: 0x0, symName: __ZNSt3__116allocator_traitsINS_9allocatorINS_6vectorIP4CellNS1_IS4_EEEEEEE7destroyB8ue170006IS6_vEEvRS7_PT_, symObjAddr: 0x2028C, symBinAddr: 0x1000241B4, symSize: 0x2C }
  - { offsetInCU: 0x48A5C, offset: 0x48A5C, size: 0x8, addend: 0x0, symName: __ZNSt3__19allocatorINS_6vectorIP4CellNS0_IS3_EEEEE7destroyB8ue170006EPS5_, symObjAddr: 0x202B8, symBinAddr: 0x1000241E0, symSize: 0x28 }
  - { offsetInCU: 0x48A90, offset: 0x48A90, size: 0x8, addend: 0x0, symName: __ZNSt3__19allocatorINS_6vectorIP4CellNS0_IS3_EEEEE10deallocateB8ue170006EPS5_m, symObjAddr: 0x202E0, symBinAddr: 0x100024208, symSize: 0x44 }
  - { offsetInCU: 0x48AD2, offset: 0x48AD2, size: 0x8, addend: 0x0, symName: __ZNSt3__16vectorINS0_IP4CellNS_9allocatorIS2_EEEENS3_IS5_EEED2B8ue170006Ev, symObjAddr: 0x20324, symBinAddr: 0x10002424C, symSize: 0x40 }
  - { offsetInCU: 0x48AFC, offset: 0x48AFC, size: 0x8, addend: 0x0, symName: __ZNSt3__113basic_istreamIcNS_11char_traitsIcEEEC2B8ue170006EPNS_15basic_streambufIcS2_EE, symObjAddr: 0x20364, symBinAddr: 0x10002428C, symSize: 0x64 }
  - { offsetInCU: 0x48B41, offset: 0x48B41, size: 0x8, addend: 0x0, symName: __ZNKSt3__19basic_iosIcNS_11char_traitsIcEEE4failB8ue170006Ev, symObjAddr: 0x203C8, symBinAddr: 0x1000242F0, symSize: 0x28 }
  - { offsetInCU: 0x48B67, offset: 0x48B67, size: 0x8, addend: 0x0, symName: __ZNKSt3__18ios_base4failB8ue170006Ev, symObjAddr: 0x203F0, symBinAddr: 0x100024318, symSize: 0x28 }
  - { offsetInCU: 0x48BB3, offset: 0x48BB3, size: 0x8, addend: 0x0, symName: __ZNKSt3__113basic_istreamIcNS_11char_traitsIcEEE6sentrycvbB8ue170006Ev, symObjAddr: 0x20650, symBinAddr: 0x100024578, symSize: 0x1C }
  - { offsetInCU: 0x48BD9, offset: 0x48BD9, size: 0x8, addend: 0x0, symName: __ZNSt3__115basic_streambufIcNS_11char_traitsIcEEE6sbumpcB8ue170006Ev, symObjAddr: 0x2066C, symBinAddr: 0x100024594, symSize: 0x78 }
  - { offsetInCU: 0x48BFF, offset: 0x48BFF, size: 0x8, addend: 0x0, symName: __ZNSt3__111char_traitsIcE12to_char_typeB8ue170006Ei, symObjAddr: 0x206E4, symBinAddr: 0x10002460C, symSize: 0x18 }
  - { offsetInCU: 0x48C22, offset: 0x48C22, size: 0x8, addend: 0x0, symName: __ZNSt3__111char_traitsIcE2eqEcc, symObjAddr: 0x206FC, symBinAddr: 0x100024624, symSize: 0x28 }
  - { offsetInCU: 0x48C53, offset: 0x48C53, size: 0x8, addend: 0x0, symName: __ZNSt3__18ios_base18__setstate_nothrowB8ue170006Ej, symObjAddr: 0x20724, symBinAddr: 0x10002464C, symSize: 0x64 }
  - { offsetInCU: 0x48C88, offset: 0x48C88, size: 0x8, addend: 0x0, symName: __ZNKSt3__19basic_iosIcNS_11char_traitsIcEEE10exceptionsB8ue170006Ev, symObjAddr: 0x20788, symBinAddr: 0x1000246B0, symSize: 0x24 }
  - { offsetInCU: 0x48CAE, offset: 0x48CAE, size: 0x8, addend: 0x0, symName: __ZNSt3__111char_traitsIcE11to_int_typeB8ue170006Ec, symObjAddr: 0x207AC, symBinAddr: 0x1000246D4, symSize: 0x14 }
  - { offsetInCU: 0x48CD2, offset: 0x48CD2, size: 0x8, addend: 0x0, symName: __ZNKSt3__18ios_base10exceptionsB8ue170006Ev, symObjAddr: 0x207C0, symBinAddr: 0x1000246E8, symSize: 0x18 }
  - { offsetInCU: 0x48CFA, offset: 0x48CFA, size: 0x8, addend: 0x0, symName: __ZNSt3__115basic_stringbufIcNS_11char_traitsIcEENS_9allocatorIcEEEC1B8ue170006ERKNS_12basic_stringIcS2_S4_EEj, symObjAddr: 0x207D8, symBinAddr: 0x100024700, symSize: 0x3C }
  - { offsetInCU: 0x48D42, offset: 0x48D42, size: 0x8, addend: 0x0, symName: __ZNSt3__115basic_stringbufIcNS_11char_traitsIcEENS_9allocatorIcEEEC2B8ue170006ERKNS_12basic_stringIcS2_S4_EEj, symObjAddr: 0x20814, symBinAddr: 0x10002473C, symSize: 0xB4 }
  - { offsetInCU: 0x48D8A, offset: 0x48D8A, size: 0x8, addend: 0x0, symName: __ZNSt3__112basic_stringIcNS_11char_traitsIcEENS_9allocatorIcEEEC1B8ue170006ERKS4_, symObjAddr: 0x208C8, symBinAddr: 0x1000247F0, symSize: 0x34 }
  - { offsetInCU: 0x48DC3, offset: 0x48DC3, size: 0x8, addend: 0x0, symName: __ZNSt3__112basic_stringIcNS_11char_traitsIcEENS_9allocatorIcEEEC2B8ue170006ERKS4_, symObjAddr: 0x208FC, symBinAddr: 0x100024824, symSize: 0x48 }
  - { offsetInCU: 0x48DFC, offset: 0x48DFC, size: 0x8, addend: 0x0, symName: __ZNSt3__115basic_streambufIcNS_11char_traitsIcEEE5sgetcB8ue170006Ev, symObjAddr: 0x20944, symBinAddr: 0x10002486C, symSize: 0x70 }
  - { offsetInCU: 0x48E22, offset: 0x48E22, size: 0x8, addend: 0x0, symName: __ZNKSt3__15ctypeIcE2isB8ue170006Ejc, symObjAddr: 0x209B4, symBinAddr: 0x1000248DC, symSize: 0x7C }
  - { offsetInCU: 0x48E65, offset: 0x48E65, size: 0x8, addend: 0x0, symName: __Z7isasciii, symObjAddr: 0x20A30, symBinAddr: 0x100024958, symSize: 0x24 }
  - { offsetInCU: 0x48E92, offset: 0x48E92, size: 0x8, addend: 0x0, symName: __ZNSt3__114basic_iostreamIcNS_11char_traitsIcEEEC2B8ue170006EPNS_15basic_streambufIcS2_EE, symObjAddr: 0x20A54, symBinAddr: 0x10002497C, symSize: 0xAC }
  - { offsetInCU: 0x48ED8, offset: 0x48ED8, size: 0x8, addend: 0x0, symName: __ZNSt3__115basic_stringbufIcNS_11char_traitsIcEENS_9allocatorIcEEEC1B8ue170006Ej, symObjAddr: 0x20B00, symBinAddr: 0x100024A28, symSize: 0x34 }
  - { offsetInCU: 0x48F11, offset: 0x48F11, size: 0x8, addend: 0x0, symName: __ZNSt3__113basic_ostreamIcNS_11char_traitsIcEEEC2B8ue170006Ev, symObjAddr: 0x20B34, symBinAddr: 0x100024A5C, symSize: 0x34 }
  - { offsetInCU: 0x48F48, offset: 0x48F48, size: 0x8, addend: 0x0, symName: __ZNSt3__115basic_stringbufIcNS_11char_traitsIcEENS_9allocatorIcEEEC2B8ue170006Ej, symObjAddr: 0x20B68, symBinAddr: 0x100024A90, symSize: 0x60 }
  - { offsetInCU: 0x48F81, offset: 0x48F81, size: 0x8, addend: 0x0, symName: __ZNSt3__112basic_stringIcNS_11char_traitsIcEENS_9allocatorIcEEE15__make_iteratorB8ue170006EPc, symObjAddr: 0x20BC8, symBinAddr: 0x100024AF0, symSize: 0x30 }
  - { offsetInCU: 0x48FB6, offset: 0x48FB6, size: 0x8, addend: 0x0, symName: __ZNSt3__111__wrap_iterIPcEC1B8ue170006ES1_, symObjAddr: 0x20BF8, symBinAddr: 0x100024B20, symSize: 0x34 }
  - { offsetInCU: 0x48FEE, offset: 0x48FEE, size: 0x8, addend: 0x0, symName: __ZNSt3__111__wrap_iterIPcEC2B8ue170006ES1_, symObjAddr: 0x20C2C, symBinAddr: 0x100024B54, symSize: 0x20 }
  - { offsetInCU: 0x49026, offset: 0x49026, size: 0x8, addend: 0x0, symName: __ZNKSt3__111__wrap_iterIPcEdeB8ue170006Ev, symObjAddr: 0x20C80, symBinAddr: 0x100024BA8, symSize: 0x18 }
  - { offsetInCU: 0x4904C, offset: 0x4904C, size: 0x8, addend: 0x0, symName: __ZNSt3__111__wrap_iterIPcEppB8ue170006Ev, symObjAddr: 0x20C98, symBinAddr: 0x100024BC0, symSize: 0x20 }
  - { offsetInCU: 0x49072, offset: 0x49072, size: 0x8, addend: 0x0, symName: __ZNKSt3__111__wrap_iterIPcE4baseB8ue170006Ev, symObjAddr: 0x20D00, symBinAddr: 0x100024C28, symSize: 0x18 }
  - { offsetInCU: 0x49098, offset: 0x49098, size: 0x8, addend: 0x0, symName: __ZNSt3__16vectorIP4CellNS_9allocatorIS2_EEEC2B8ue170006Ev, symObjAddr: 0x20D18, symBinAddr: 0x100024C40, symSize: 0x4C }
  - { offsetInCU: 0x490C2, offset: 0x490C2, size: 0x8, addend: 0x0, symName: __ZNSt3__117__compressed_pairIPP4CellNS_9allocatorIS2_EEEC1B8ue170006IDnNS_18__default_init_tagEEEOT_OT0_, symObjAddr: 0x20D64, symBinAddr: 0x100024C8C, symSize: 0x3C }
  - { offsetInCU: 0x4911A, offset: 0x4911A, size: 0x8, addend: 0x0, symName: __ZNSt3__117__compressed_pairIPP4CellNS_9allocatorIS2_EEEC2B8ue170006IDnNS_18__default_init_tagEEEOT_OT0_, symObjAddr: 0x20DA0, symBinAddr: 0x100024CC8, symSize: 0x40 }
  - { offsetInCU: 0x49172, offset: 0x49172, size: 0x8, addend: 0x0, symName: __ZNSt3__122__compressed_pair_elemINS_9allocatorIP4CellEELi1ELb1EEC2B8ue170006ENS_18__default_init_tagE, symObjAddr: 0x20DE0, symBinAddr: 0x100024D08, symSize: 0x2C }
  - { offsetInCU: 0x491A6, offset: 0x491A6, size: 0x8, addend: 0x0, symName: __ZNSt3__19allocatorIP4CellEC2B8ue170006Ev, symObjAddr: 0x20E0C, symBinAddr: 0x100024D34, symSize: 0x2C }
  - { offsetInCU: 0x491D0, offset: 0x491D0, size: 0x8, addend: 0x0, symName: __ZNSt3__116__non_trivial_ifILb1ENS_9allocatorIP4CellEEEC2B8ue170006Ev, symObjAddr: 0x20E38, symBinAddr: 0x100024D60, symSize: 0x14 }
  - { offsetInCU: 0x491FA, offset: 0x491FA, size: 0x8, addend: 0x0, symName: __ZNSt3__16vectorIP4CellNS_9allocatorIS2_EEED2B8ue170006Ev, symObjAddr: 0x20E4C, symBinAddr: 0x100024D74, symSize: 0x44 }
  - { offsetInCU: 0x49224, offset: 0x49224, size: 0x8, addend: 0x0, symName: __ZNSt3__16vectorIP4CellNS_9allocatorIS2_EEE16__destroy_vectorC1B8ue170006ERS5_, symObjAddr: 0x20E90, symBinAddr: 0x100024DB8, symSize: 0x34 }
  - { offsetInCU: 0x4925D, offset: 0x4925D, size: 0x8, addend: 0x0, symName: __ZNSt3__16vectorIP4CellNS_9allocatorIS2_EEE16__destroy_vectorclB8ue170006Ev, symObjAddr: 0x20EC4, symBinAddr: 0x100024DEC, symSize: 0x90 }
  - { offsetInCU: 0x49283, offset: 0x49283, size: 0x8, addend: 0x0, symName: __ZNSt3__16vectorIP4CellNS_9allocatorIS2_EEE16__destroy_vectorC2B8ue170006ERS5_, symObjAddr: 0x20F54, symBinAddr: 0x100024E7C, symSize: 0x20 }
  - { offsetInCU: 0x492BC, offset: 0x492BC, size: 0x8, addend: 0x0, symName: __ZNSt3__16vectorIP4CellNS_9allocatorIS2_EEE7__clearB8ue170006Ev, symObjAddr: 0x20F74, symBinAddr: 0x100024E9C, symSize: 0x28 }
  - { offsetInCU: 0x492E2, offset: 0x492E2, size: 0x8, addend: 0x0, symName: __ZNSt3__16vectorIP4CellNS_9allocatorIS2_EEE22__construct_one_at_endB8ue170006IJRKS2_EEEvDpOT_, symObjAddr: 0x20F9C, symBinAddr: 0x100024EC4, symSize: 0x90 }
  - { offsetInCU: 0x49331, offset: 0x49331, size: 0x8, addend: 0x0, symName: __ZNSt3__16vectorIP4CellNS_9allocatorIS2_EEE21__push_back_slow_pathIRKS2_EEvOT_, symObjAddr: 0x2102C, symBinAddr: 0x100024F54, symSize: 0xD8 }
  - { offsetInCU: 0x4938F, offset: 0x4938F, size: 0x8, addend: 0x0, symName: __ZNSt3__116allocator_traitsINS_9allocatorIP4CellEEE9constructB8ue170006IS3_JRKS3_EvEEvRS4_PT_DpOT0_, symObjAddr: 0x21104, symBinAddr: 0x10002502C, symSize: 0x34 }
  - { offsetInCU: 0x493E6, offset: 0x493E6, size: 0x8, addend: 0x0, symName: __ZNSt3__19allocatorIP4CellE9constructB8ue170006IS2_JRKS2_EEEvPT_DpOT0_, symObjAddr: 0x21138, symBinAddr: 0x100025060, symSize: 0x28 }
  - { offsetInCU: 0x4943C, offset: 0x4943C, size: 0x8, addend: 0x0, symName: __ZNSt3__13mapIiiNS_4lessIiEENS_9allocatorINS_4pairIKiiEEEEEC2B8ue170006Ev, symObjAddr: 0x21160, symBinAddr: 0x100025088, symSize: 0x40 }
  - { offsetInCU: 0x49466, offset: 0x49466, size: 0x8, addend: 0x0, symName: __ZNSt3__119__map_value_compareIiNS_12__value_typeIiiEENS_4lessIiEELb1EEC1B8ue170006ES4_, symObjAddr: 0x211A0, symBinAddr: 0x1000250C8, symSize: 0x2C }
  - { offsetInCU: 0x4949F, offset: 0x4949F, size: 0x8, addend: 0x0, symName: __ZNSt3__16__treeINS_12__value_typeIiiEENS_19__map_value_compareIiS2_NS_4lessIiEELb1EEENS_9allocatorIS2_EEEC1ERKS6_, symObjAddr: 0x211CC, symBinAddr: 0x1000250F4, symSize: 0x34 }
  - { offsetInCU: 0x494DA, offset: 0x494DA, size: 0x8, addend: 0x0, symName: __ZNSt3__119__map_value_compareIiNS_12__value_typeIiiEENS_4lessIiEELb1EEC2B8ue170006ES4_, symObjAddr: 0x21200, symBinAddr: 0x100025128, symSize: 0x14 }
  - { offsetInCU: 0x49513, offset: 0x49513, size: 0x8, addend: 0x0, symName: __ZNSt3__16__treeINS_12__value_typeIiiEENS_19__map_value_compareIiS2_NS_4lessIiEELb1EEENS_9allocatorIS2_EEEC2ERKS6_, symObjAddr: 0x21214, symBinAddr: 0x10002513C, symSize: 0x7C }
  - { offsetInCU: 0x4954E, offset: 0x4954E, size: 0x8, addend: 0x0, symName: __ZNSt3__117__compressed_pairINS_15__tree_end_nodeIPNS_16__tree_node_baseIPvEEEENS_9allocatorINS_11__tree_nodeINS_12__value_typeIiiEES3_EEEEEC1B8ue170006ILb1EvEEv, symObjAddr: 0x21290, symBinAddr: 0x1000251B8, symSize: 0x2C }
